
slavemcu.elf:     file format elf32-littlearm

Sections:
Idx Name          Size      VMA       LMA       File off  Algn
  0 .isr_vector   0000010c  08000000  08000000  00001000  2**0
                  CONTENTS, ALLOC, LOAD, READONLY, DATA
  1 .text         00006f24  0800010c  0800010c  0000110c  2**2
                  CONTENTS, ALLOC, LOAD, READONLY, CODE
  2 .rodata       00001374  08007030  08007030  00008030  2**2
                  CONTENTS, ALLOC, LOAD, READONLY, DATA
  3 .ARM.extab    00000000  080083a4  080083a4  0000a08c  2**0
                  CONTENTS, READONLY
  4 .ARM          00000000  080083a4  080083a4  0000a08c  2**0
                  CONTENTS, READONLY
  5 .preinit_array 00000000  080083a4  080083a4  0000a08c  2**0
                  CONTENTS, ALLOC, LOAD, DATA
  6 .init_array   00000004  080083a4  080083a4  000093a4  2**2
                  CONTENTS, ALLOC, LOAD, READONLY, DATA
  7 .fini_array   00000004  080083a8  080083a8  000093a8  2**2
                  CONTENTS, ALLOC, LOAD, READONLY, DATA
  8 .data         0000008c  20000000  080083ac  0000a000  2**2
                  CONTENTS, ALLOC, LOAD, DATA
  9 .bss          00000938  2000008c  08008438  0000a08c  2**2
                  ALLOC
 10 ._user_heap_stack 00000604  200009c4  08008438  0000a9c4  2**0
                  ALLOC
 11 .ARM.attributes 00000029  00000000  00000000  0000a08c  2**0
                  CONTENTS, READONLY
 12 .debug_info   0000b5d9  00000000  00000000  0000a0b5  2**0
                  CONTENTS, READONLY, DEBUGGING, OCTETS
 13 .debug_abbrev 00002b9a  00000000  00000000  0001568e  2**0
                  CONTENTS, READONLY, DEBUGGING, OCTETS
 14 .debug_aranges 00000b18  00000000  00000000  00018228  2**3
                  CONTENTS, READONLY, DEBUGGING, OCTETS
 15 .debug_rnglists 0000085b  00000000  00000000  00018d40  2**0
                  CONTENTS, READONLY, DEBUGGING, OCTETS
 16 .debug_macro  000044c9  00000000  00000000  0001959b  2**0
                  CONTENTS, READONLY, DEBUGGING, OCTETS
 17 .debug_line   0000edc3  00000000  00000000  0001da64  2**0
                  CONTENTS, READONLY, DEBUGGING, OCTETS
 18 .debug_str    00085a51  00000000  00000000  0002c827  2**0
                  CONTENTS, READONLY, DEBUGGING, OCTETS
 19 .comment      00000043  00000000  00000000  000b2278  2**0
                  CONTENTS, READONLY
 20 .debug_frame  00003468  00000000  00000000  000b22bc  2**2
                  CONTENTS, READONLY, DEBUGGING, OCTETS
 21 .debug_line_str 00000063  00000000  00000000  000b5724  2**0
                  CONTENTS, READONLY, DEBUGGING, OCTETS

Disassembly of section .text:

0800010c <__do_global_dtors_aux>:
 800010c:	b510      	push	{r4, lr}
 800010e:	4c05      	ldr	r4, [pc, #20]	@ (8000124 <__do_global_dtors_aux+0x18>)
 8000110:	7823      	ldrb	r3, [r4, #0]
 8000112:	b933      	cbnz	r3, 8000122 <__do_global_dtors_aux+0x16>
 8000114:	4b04      	ldr	r3, [pc, #16]	@ (8000128 <__do_global_dtors_aux+0x1c>)
 8000116:	b113      	cbz	r3, 800011e <__do_global_dtors_aux+0x12>
 8000118:	4804      	ldr	r0, [pc, #16]	@ (800012c <__do_global_dtors_aux+0x20>)
 800011a:	f3af 8000 	nop.w
 800011e:	2301      	movs	r3, #1
 8000120:	7023      	strb	r3, [r4, #0]
 8000122:	bd10      	pop	{r4, pc}
 8000124:	2000008c 	.word	0x2000008c
 8000128:	00000000 	.word	0x00000000
 800012c:	08007018 	.word	0x08007018

08000130 <frame_dummy>:
 8000130:	b508      	push	{r3, lr}
 8000132:	4b03      	ldr	r3, [pc, #12]	@ (8000140 <frame_dummy+0x10>)
 8000134:	b11b      	cbz	r3, 800013e <frame_dummy+0xe>
 8000136:	4903      	ldr	r1, [pc, #12]	@ (8000144 <frame_dummy+0x14>)
 8000138:	4803      	ldr	r0, [pc, #12]	@ (8000148 <frame_dummy+0x18>)
 800013a:	f3af 8000 	nop.w
 800013e:	bd08      	pop	{r3, pc}
 8000140:	00000000 	.word	0x00000000
 8000144:	20000090 	.word	0x20000090
 8000148:	08007018 	.word	0x08007018

0800014c <__aeabi_drsub>:
 800014c:	f081 4100 	eor.w	r1, r1, #2147483648	@ 0x80000000
 8000150:	e002      	b.n	8000158 <__adddf3>
 8000152:	bf00      	nop

08000154 <__aeabi_dsub>:
 8000154:	f083 4300 	eor.w	r3, r3, #2147483648	@ 0x80000000

08000158 <__adddf3>:
 8000158:	b530      	push	{r4, r5, lr}
 800015a:	ea4f 0441 	mov.w	r4, r1, lsl #1
 800015e:	ea4f 0543 	mov.w	r5, r3, lsl #1
 8000162:	ea94 0f05 	teq	r4, r5
 8000166:	bf08      	it	eq
 8000168:	ea90 0f02 	teqeq	r0, r2
 800016c:	bf1f      	itttt	ne
 800016e:	ea54 0c00 	orrsne.w	ip, r4, r0
 8000172:	ea55 0c02 	orrsne.w	ip, r5, r2
 8000176:	ea7f 5c64 	mvnsne.w	ip, r4, asr #21
 800017a:	ea7f 5c65 	mvnsne.w	ip, r5, asr #21
 800017e:	f000 80e2 	beq.w	8000346 <__adddf3+0x1ee>
 8000182:	ea4f 5454 	mov.w	r4, r4, lsr #21
 8000186:	ebd4 5555 	rsbs	r5, r4, r5, lsr #21
 800018a:	bfb8      	it	lt
 800018c:	426d      	neglt	r5, r5
 800018e:	dd0c      	ble.n	80001aa <__adddf3+0x52>
 8000190:	442c      	add	r4, r5
 8000192:	ea80 0202 	eor.w	r2, r0, r2
 8000196:	ea81 0303 	eor.w	r3, r1, r3
 800019a:	ea82 0000 	eor.w	r0, r2, r0
 800019e:	ea83 0101 	eor.w	r1, r3, r1
 80001a2:	ea80 0202 	eor.w	r2, r0, r2
 80001a6:	ea81 0303 	eor.w	r3, r1, r3
 80001aa:	2d36      	cmp	r5, #54	@ 0x36
 80001ac:	bf88      	it	hi
 80001ae:	bd30      	pophi	{r4, r5, pc}
 80001b0:	f011 4f00 	tst.w	r1, #2147483648	@ 0x80000000
 80001b4:	ea4f 3101 	mov.w	r1, r1, lsl #12
 80001b8:	f44f 1c80 	mov.w	ip, #1048576	@ 0x100000
 80001bc:	ea4c 3111 	orr.w	r1, ip, r1, lsr #12
 80001c0:	d002      	beq.n	80001c8 <__adddf3+0x70>
 80001c2:	4240      	negs	r0, r0
 80001c4:	eb61 0141 	sbc.w	r1, r1, r1, lsl #1
 80001c8:	f013 4f00 	tst.w	r3, #2147483648	@ 0x80000000
 80001cc:	ea4f 3303 	mov.w	r3, r3, lsl #12
 80001d0:	ea4c 3313 	orr.w	r3, ip, r3, lsr #12
 80001d4:	d002      	beq.n	80001dc <__adddf3+0x84>
 80001d6:	4252      	negs	r2, r2
 80001d8:	eb63 0343 	sbc.w	r3, r3, r3, lsl #1
 80001dc:	ea94 0f05 	teq	r4, r5
 80001e0:	f000 80a7 	beq.w	8000332 <__adddf3+0x1da>
 80001e4:	f1a4 0401 	sub.w	r4, r4, #1
 80001e8:	f1d5 0e20 	rsbs	lr, r5, #32
 80001ec:	db0d      	blt.n	800020a <__adddf3+0xb2>
 80001ee:	fa02 fc0e 	lsl.w	ip, r2, lr
 80001f2:	fa22 f205 	lsr.w	r2, r2, r5
 80001f6:	1880      	adds	r0, r0, r2
 80001f8:	f141 0100 	adc.w	r1, r1, #0
 80001fc:	fa03 f20e 	lsl.w	r2, r3, lr
 8000200:	1880      	adds	r0, r0, r2
 8000202:	fa43 f305 	asr.w	r3, r3, r5
 8000206:	4159      	adcs	r1, r3
 8000208:	e00e      	b.n	8000228 <__adddf3+0xd0>
 800020a:	f1a5 0520 	sub.w	r5, r5, #32
 800020e:	f10e 0e20 	add.w	lr, lr, #32
 8000212:	2a01      	cmp	r2, #1
 8000214:	fa03 fc0e 	lsl.w	ip, r3, lr
 8000218:	bf28      	it	cs
 800021a:	f04c 0c02 	orrcs.w	ip, ip, #2
 800021e:	fa43 f305 	asr.w	r3, r3, r5
 8000222:	18c0      	adds	r0, r0, r3
 8000224:	eb51 71e3 	adcs.w	r1, r1, r3, asr #31
 8000228:	f001 4500 	and.w	r5, r1, #2147483648	@ 0x80000000
 800022c:	d507      	bpl.n	800023e <__adddf3+0xe6>
 800022e:	f04f 0e00 	mov.w	lr, #0
 8000232:	f1dc 0c00 	rsbs	ip, ip, #0
 8000236:	eb7e 0000 	sbcs.w	r0, lr, r0
 800023a:	eb6e 0101 	sbc.w	r1, lr, r1
 800023e:	f5b1 1f80 	cmp.w	r1, #1048576	@ 0x100000
 8000242:	d31b      	bcc.n	800027c <__adddf3+0x124>
 8000244:	f5b1 1f00 	cmp.w	r1, #2097152	@ 0x200000
 8000248:	d30c      	bcc.n	8000264 <__adddf3+0x10c>
 800024a:	0849      	lsrs	r1, r1, #1
 800024c:	ea5f 0030 	movs.w	r0, r0, rrx
 8000250:	ea4f 0c3c 	mov.w	ip, ip, rrx
 8000254:	f104 0401 	add.w	r4, r4, #1
 8000258:	ea4f 5244 	mov.w	r2, r4, lsl #21
 800025c:	f512 0f80 	cmn.w	r2, #4194304	@ 0x400000
 8000260:	f080 809a 	bcs.w	8000398 <__adddf3+0x240>
 8000264:	f1bc 4f00 	cmp.w	ip, #2147483648	@ 0x80000000
 8000268:	bf08      	it	eq
 800026a:	ea5f 0c50 	movseq.w	ip, r0, lsr #1
 800026e:	f150 0000 	adcs.w	r0, r0, #0
 8000272:	eb41 5104 	adc.w	r1, r1, r4, lsl #20
 8000276:	ea41 0105 	orr.w	r1, r1, r5
 800027a:	bd30      	pop	{r4, r5, pc}
 800027c:	ea5f 0c4c 	movs.w	ip, ip, lsl #1
 8000280:	4140      	adcs	r0, r0
 8000282:	eb41 0101 	adc.w	r1, r1, r1
 8000286:	3c01      	subs	r4, #1
 8000288:	bf28      	it	cs
 800028a:	f5b1 1f80 	cmpcs.w	r1, #1048576	@ 0x100000
 800028e:	d2e9      	bcs.n	8000264 <__adddf3+0x10c>
 8000290:	f091 0f00 	teq	r1, #0
 8000294:	bf04      	itt	eq
 8000296:	4601      	moveq	r1, r0
 8000298:	2000      	moveq	r0, #0
 800029a:	fab1 f381 	clz	r3, r1
 800029e:	bf08      	it	eq
 80002a0:	3320      	addeq	r3, #32
 80002a2:	f1a3 030b 	sub.w	r3, r3, #11
 80002a6:	f1b3 0220 	subs.w	r2, r3, #32
 80002aa:	da0c      	bge.n	80002c6 <__adddf3+0x16e>
 80002ac:	320c      	adds	r2, #12
 80002ae:	dd08      	ble.n	80002c2 <__adddf3+0x16a>
 80002b0:	f102 0c14 	add.w	ip, r2, #20
 80002b4:	f1c2 020c 	rsb	r2, r2, #12
 80002b8:	fa01 f00c 	lsl.w	r0, r1, ip
 80002bc:	fa21 f102 	lsr.w	r1, r1, r2
 80002c0:	e00c      	b.n	80002dc <__adddf3+0x184>
 80002c2:	f102 0214 	add.w	r2, r2, #20
 80002c6:	bfd8      	it	le
 80002c8:	f1c2 0c20 	rsble	ip, r2, #32
 80002cc:	fa01 f102 	lsl.w	r1, r1, r2
 80002d0:	fa20 fc0c 	lsr.w	ip, r0, ip
 80002d4:	bfdc      	itt	le
 80002d6:	ea41 010c 	orrle.w	r1, r1, ip
 80002da:	4090      	lslle	r0, r2
 80002dc:	1ae4      	subs	r4, r4, r3
 80002de:	bfa2      	ittt	ge
 80002e0:	eb01 5104 	addge.w	r1, r1, r4, lsl #20
 80002e4:	4329      	orrge	r1, r5
 80002e6:	bd30      	popge	{r4, r5, pc}
 80002e8:	ea6f 0404 	mvn.w	r4, r4
 80002ec:	3c1f      	subs	r4, #31
 80002ee:	da1c      	bge.n	800032a <__adddf3+0x1d2>
 80002f0:	340c      	adds	r4, #12
 80002f2:	dc0e      	bgt.n	8000312 <__adddf3+0x1ba>
 80002f4:	f104 0414 	add.w	r4, r4, #20
 80002f8:	f1c4 0220 	rsb	r2, r4, #32
 80002fc:	fa20 f004 	lsr.w	r0, r0, r4
 8000300:	fa01 f302 	lsl.w	r3, r1, r2
 8000304:	ea40 0003 	orr.w	r0, r0, r3
 8000308:	fa21 f304 	lsr.w	r3, r1, r4
 800030c:	ea45 0103 	orr.w	r1, r5, r3
 8000310:	bd30      	pop	{r4, r5, pc}
 8000312:	f1c4 040c 	rsb	r4, r4, #12
 8000316:	f1c4 0220 	rsb	r2, r4, #32
 800031a:	fa20 f002 	lsr.w	r0, r0, r2
 800031e:	fa01 f304 	lsl.w	r3, r1, r4
 8000322:	ea40 0003 	orr.w	r0, r0, r3
 8000326:	4629      	mov	r1, r5
 8000328:	bd30      	pop	{r4, r5, pc}
 800032a:	fa21 f004 	lsr.w	r0, r1, r4
 800032e:	4629      	mov	r1, r5
 8000330:	bd30      	pop	{r4, r5, pc}
 8000332:	f094 0f00 	teq	r4, #0
 8000336:	f483 1380 	eor.w	r3, r3, #1048576	@ 0x100000
 800033a:	bf06      	itte	eq
 800033c:	f481 1180 	eoreq.w	r1, r1, #1048576	@ 0x100000
 8000340:	3401      	addeq	r4, #1
 8000342:	3d01      	subne	r5, #1
 8000344:	e74e      	b.n	80001e4 <__adddf3+0x8c>
 8000346:	ea7f 5c64 	mvns.w	ip, r4, asr #21
 800034a:	bf18      	it	ne
 800034c:	ea7f 5c65 	mvnsne.w	ip, r5, asr #21
 8000350:	d029      	beq.n	80003a6 <__adddf3+0x24e>
 8000352:	ea94 0f05 	teq	r4, r5
 8000356:	bf08      	it	eq
 8000358:	ea90 0f02 	teqeq	r0, r2
 800035c:	d005      	beq.n	800036a <__adddf3+0x212>
 800035e:	ea54 0c00 	orrs.w	ip, r4, r0
 8000362:	bf04      	itt	eq
 8000364:	4619      	moveq	r1, r3
 8000366:	4610      	moveq	r0, r2
 8000368:	bd30      	pop	{r4, r5, pc}
 800036a:	ea91 0f03 	teq	r1, r3
 800036e:	bf1e      	ittt	ne
 8000370:	2100      	movne	r1, #0
 8000372:	2000      	movne	r0, #0
 8000374:	bd30      	popne	{r4, r5, pc}
 8000376:	ea5f 5c54 	movs.w	ip, r4, lsr #21
 800037a:	d105      	bne.n	8000388 <__adddf3+0x230>
 800037c:	0040      	lsls	r0, r0, #1
 800037e:	4149      	adcs	r1, r1
 8000380:	bf28      	it	cs
 8000382:	f041 4100 	orrcs.w	r1, r1, #2147483648	@ 0x80000000
 8000386:	bd30      	pop	{r4, r5, pc}
 8000388:	f514 0480 	adds.w	r4, r4, #4194304	@ 0x400000
 800038c:	bf3c      	itt	cc
 800038e:	f501 1180 	addcc.w	r1, r1, #1048576	@ 0x100000
 8000392:	bd30      	popcc	{r4, r5, pc}
 8000394:	f001 4500 	and.w	r5, r1, #2147483648	@ 0x80000000
 8000398:	f045 41fe 	orr.w	r1, r5, #2130706432	@ 0x7f000000
 800039c:	f441 0170 	orr.w	r1, r1, #15728640	@ 0xf00000
 80003a0:	f04f 0000 	mov.w	r0, #0
 80003a4:	bd30      	pop	{r4, r5, pc}
 80003a6:	ea7f 5c64 	mvns.w	ip, r4, asr #21
 80003aa:	bf1a      	itte	ne
 80003ac:	4619      	movne	r1, r3
 80003ae:	4610      	movne	r0, r2
 80003b0:	ea7f 5c65 	mvnseq.w	ip, r5, asr #21
 80003b4:	bf1c      	itt	ne
 80003b6:	460b      	movne	r3, r1
 80003b8:	4602      	movne	r2, r0
 80003ba:	ea50 3401 	orrs.w	r4, r0, r1, lsl #12
 80003be:	bf06      	itte	eq
 80003c0:	ea52 3503 	orrseq.w	r5, r2, r3, lsl #12
 80003c4:	ea91 0f03 	teqeq	r1, r3
 80003c8:	f441 2100 	orrne.w	r1, r1, #524288	@ 0x80000
 80003cc:	bd30      	pop	{r4, r5, pc}
 80003ce:	bf00      	nop

080003d0 <__aeabi_ui2d>:
 80003d0:	f090 0f00 	teq	r0, #0
 80003d4:	bf04      	itt	eq
 80003d6:	2100      	moveq	r1, #0
 80003d8:	4770      	bxeq	lr
 80003da:	b530      	push	{r4, r5, lr}
 80003dc:	f44f 6480 	mov.w	r4, #1024	@ 0x400
 80003e0:	f104 0432 	add.w	r4, r4, #50	@ 0x32
 80003e4:	f04f 0500 	mov.w	r5, #0
 80003e8:	f04f 0100 	mov.w	r1, #0
 80003ec:	e750      	b.n	8000290 <__adddf3+0x138>
 80003ee:	bf00      	nop

080003f0 <__aeabi_i2d>:
 80003f0:	f090 0f00 	teq	r0, #0
 80003f4:	bf04      	itt	eq
 80003f6:	2100      	moveq	r1, #0
 80003f8:	4770      	bxeq	lr
 80003fa:	b530      	push	{r4, r5, lr}
 80003fc:	f44f 6480 	mov.w	r4, #1024	@ 0x400
 8000400:	f104 0432 	add.w	r4, r4, #50	@ 0x32
 8000404:	f010 4500 	ands.w	r5, r0, #2147483648	@ 0x80000000
 8000408:	bf48      	it	mi
 800040a:	4240      	negmi	r0, r0
 800040c:	f04f 0100 	mov.w	r1, #0
 8000410:	e73e      	b.n	8000290 <__adddf3+0x138>
 8000412:	bf00      	nop

08000414 <__aeabi_f2d>:
 8000414:	0042      	lsls	r2, r0, #1
 8000416:	ea4f 01e2 	mov.w	r1, r2, asr #3
 800041a:	ea4f 0131 	mov.w	r1, r1, rrx
 800041e:	ea4f 7002 	mov.w	r0, r2, lsl #28
 8000422:	bf1f      	itttt	ne
 8000424:	f012 437f 	andsne.w	r3, r2, #4278190080	@ 0xff000000
 8000428:	f093 4f7f 	teqne	r3, #4278190080	@ 0xff000000
 800042c:	f081 5160 	eorne.w	r1, r1, #939524096	@ 0x38000000
 8000430:	4770      	bxne	lr
 8000432:	f032 427f 	bics.w	r2, r2, #4278190080	@ 0xff000000
 8000436:	bf08      	it	eq
 8000438:	4770      	bxeq	lr
 800043a:	f093 4f7f 	teq	r3, #4278190080	@ 0xff000000
 800043e:	bf04      	itt	eq
 8000440:	f441 2100 	orreq.w	r1, r1, #524288	@ 0x80000
 8000444:	4770      	bxeq	lr
 8000446:	b530      	push	{r4, r5, lr}
 8000448:	f44f 7460 	mov.w	r4, #896	@ 0x380
 800044c:	f001 4500 	and.w	r5, r1, #2147483648	@ 0x80000000
 8000450:	f021 4100 	bic.w	r1, r1, #2147483648	@ 0x80000000
 8000454:	e71c      	b.n	8000290 <__adddf3+0x138>
 8000456:	bf00      	nop

08000458 <__aeabi_ul2d>:
 8000458:	ea50 0201 	orrs.w	r2, r0, r1
 800045c:	bf08      	it	eq
 800045e:	4770      	bxeq	lr
 8000460:	b530      	push	{r4, r5, lr}
 8000462:	f04f 0500 	mov.w	r5, #0
 8000466:	e00a      	b.n	800047e <__aeabi_l2d+0x16>

08000468 <__aeabi_l2d>:
 8000468:	ea50 0201 	orrs.w	r2, r0, r1
 800046c:	bf08      	it	eq
 800046e:	4770      	bxeq	lr
 8000470:	b530      	push	{r4, r5, lr}
 8000472:	f011 4500 	ands.w	r5, r1, #2147483648	@ 0x80000000
 8000476:	d502      	bpl.n	800047e <__aeabi_l2d+0x16>
 8000478:	4240      	negs	r0, r0
 800047a:	eb61 0141 	sbc.w	r1, r1, r1, lsl #1
 800047e:	f44f 6480 	mov.w	r4, #1024	@ 0x400
 8000482:	f104 0432 	add.w	r4, r4, #50	@ 0x32
 8000486:	ea5f 5c91 	movs.w	ip, r1, lsr #22
 800048a:	f43f aed8 	beq.w	800023e <__adddf3+0xe6>
 800048e:	f04f 0203 	mov.w	r2, #3
 8000492:	ea5f 0cdc 	movs.w	ip, ip, lsr #3
 8000496:	bf18      	it	ne
 8000498:	3203      	addne	r2, #3
 800049a:	ea5f 0cdc 	movs.w	ip, ip, lsr #3
 800049e:	bf18      	it	ne
 80004a0:	3203      	addne	r2, #3
 80004a2:	eb02 02dc 	add.w	r2, r2, ip, lsr #3
 80004a6:	f1c2 0320 	rsb	r3, r2, #32
 80004aa:	fa00 fc03 	lsl.w	ip, r0, r3
 80004ae:	fa20 f002 	lsr.w	r0, r0, r2
 80004b2:	fa01 fe03 	lsl.w	lr, r1, r3
 80004b6:	ea40 000e 	orr.w	r0, r0, lr
 80004ba:	fa21 f102 	lsr.w	r1, r1, r2
 80004be:	4414      	add	r4, r2
 80004c0:	e6bd      	b.n	800023e <__adddf3+0xe6>
 80004c2:	bf00      	nop

080004c4 <__aeabi_frsub>:
 80004c4:	f080 4000 	eor.w	r0, r0, #2147483648	@ 0x80000000
 80004c8:	e002      	b.n	80004d0 <__addsf3>
 80004ca:	bf00      	nop

080004cc <__aeabi_fsub>:
 80004cc:	f081 4100 	eor.w	r1, r1, #2147483648	@ 0x80000000

080004d0 <__addsf3>:
 80004d0:	0042      	lsls	r2, r0, #1
 80004d2:	bf1f      	itttt	ne
 80004d4:	ea5f 0341 	movsne.w	r3, r1, lsl #1
 80004d8:	ea92 0f03 	teqne	r2, r3
 80004dc:	ea7f 6c22 	mvnsne.w	ip, r2, asr #24
 80004e0:	ea7f 6c23 	mvnsne.w	ip, r3, asr #24
 80004e4:	d06a      	beq.n	80005bc <__addsf3+0xec>
 80004e6:	ea4f 6212 	mov.w	r2, r2, lsr #24
 80004ea:	ebd2 6313 	rsbs	r3, r2, r3, lsr #24
 80004ee:	bfc1      	itttt	gt
 80004f0:	18d2      	addgt	r2, r2, r3
 80004f2:	4041      	eorgt	r1, r0
 80004f4:	4048      	eorgt	r0, r1
 80004f6:	4041      	eorgt	r1, r0
 80004f8:	bfb8      	it	lt
 80004fa:	425b      	neglt	r3, r3
 80004fc:	2b19      	cmp	r3, #25
 80004fe:	bf88      	it	hi
 8000500:	4770      	bxhi	lr
 8000502:	f010 4f00 	tst.w	r0, #2147483648	@ 0x80000000
 8000506:	f440 0000 	orr.w	r0, r0, #8388608	@ 0x800000
 800050a:	f020 407f 	bic.w	r0, r0, #4278190080	@ 0xff000000
 800050e:	bf18      	it	ne
 8000510:	4240      	negne	r0, r0
 8000512:	f011 4f00 	tst.w	r1, #2147483648	@ 0x80000000
 8000516:	f441 0100 	orr.w	r1, r1, #8388608	@ 0x800000
 800051a:	f021 417f 	bic.w	r1, r1, #4278190080	@ 0xff000000
 800051e:	bf18      	it	ne
 8000520:	4249      	negne	r1, r1
 8000522:	ea92 0f03 	teq	r2, r3
 8000526:	d03f      	beq.n	80005a8 <__addsf3+0xd8>
 8000528:	f1a2 0201 	sub.w	r2, r2, #1
 800052c:	fa41 fc03 	asr.w	ip, r1, r3
 8000530:	eb10 000c 	adds.w	r0, r0, ip
 8000534:	f1c3 0320 	rsb	r3, r3, #32
 8000538:	fa01 f103 	lsl.w	r1, r1, r3
 800053c:	f000 4300 	and.w	r3, r0, #2147483648	@ 0x80000000
 8000540:	d502      	bpl.n	8000548 <__addsf3+0x78>
 8000542:	4249      	negs	r1, r1
 8000544:	eb60 0040 	sbc.w	r0, r0, r0, lsl #1
 8000548:	f5b0 0f00 	cmp.w	r0, #8388608	@ 0x800000
 800054c:	d313      	bcc.n	8000576 <__addsf3+0xa6>
 800054e:	f1b0 7f80 	cmp.w	r0, #16777216	@ 0x1000000
 8000552:	d306      	bcc.n	8000562 <__addsf3+0x92>
 8000554:	0840      	lsrs	r0, r0, #1
 8000556:	ea4f 0131 	mov.w	r1, r1, rrx
 800055a:	f102 0201 	add.w	r2, r2, #1
 800055e:	2afe      	cmp	r2, #254	@ 0xfe
 8000560:	d251      	bcs.n	8000606 <__addsf3+0x136>
 8000562:	f1b1 4f00 	cmp.w	r1, #2147483648	@ 0x80000000
 8000566:	eb40 50c2 	adc.w	r0, r0, r2, lsl #23
 800056a:	bf08      	it	eq
 800056c:	f020 0001 	biceq.w	r0, r0, #1
 8000570:	ea40 0003 	orr.w	r0, r0, r3
 8000574:	4770      	bx	lr
 8000576:	0049      	lsls	r1, r1, #1
 8000578:	eb40 0000 	adc.w	r0, r0, r0
 800057c:	3a01      	subs	r2, #1
 800057e:	bf28      	it	cs
 8000580:	f5b0 0f00 	cmpcs.w	r0, #8388608	@ 0x800000
 8000584:	d2ed      	bcs.n	8000562 <__addsf3+0x92>
 8000586:	fab0 fc80 	clz	ip, r0
 800058a:	f1ac 0c08 	sub.w	ip, ip, #8
 800058e:	ebb2 020c 	subs.w	r2, r2, ip
 8000592:	fa00 f00c 	lsl.w	r0, r0, ip
 8000596:	bfaa      	itet	ge
 8000598:	eb00 50c2 	addge.w	r0, r0, r2, lsl #23
 800059c:	4252      	neglt	r2, r2
 800059e:	4318      	orrge	r0, r3
 80005a0:	bfbc      	itt	lt
 80005a2:	40d0      	lsrlt	r0, r2
 80005a4:	4318      	orrlt	r0, r3
 80005a6:	4770      	bx	lr
 80005a8:	f092 0f00 	teq	r2, #0
 80005ac:	f481 0100 	eor.w	r1, r1, #8388608	@ 0x800000
 80005b0:	bf06      	itte	eq
 80005b2:	f480 0000 	eoreq.w	r0, r0, #8388608	@ 0x800000
 80005b6:	3201      	addeq	r2, #1
 80005b8:	3b01      	subne	r3, #1
 80005ba:	e7b5      	b.n	8000528 <__addsf3+0x58>
 80005bc:	ea4f 0341 	mov.w	r3, r1, lsl #1
 80005c0:	ea7f 6c22 	mvns.w	ip, r2, asr #24
 80005c4:	bf18      	it	ne
 80005c6:	ea7f 6c23 	mvnsne.w	ip, r3, asr #24
 80005ca:	d021      	beq.n	8000610 <__addsf3+0x140>
 80005cc:	ea92 0f03 	teq	r2, r3
 80005d0:	d004      	beq.n	80005dc <__addsf3+0x10c>
 80005d2:	f092 0f00 	teq	r2, #0
 80005d6:	bf08      	it	eq
 80005d8:	4608      	moveq	r0, r1
 80005da:	4770      	bx	lr
 80005dc:	ea90 0f01 	teq	r0, r1
 80005e0:	bf1c      	itt	ne
 80005e2:	2000      	movne	r0, #0
 80005e4:	4770      	bxne	lr
 80005e6:	f012 4f7f 	tst.w	r2, #4278190080	@ 0xff000000
 80005ea:	d104      	bne.n	80005f6 <__addsf3+0x126>
 80005ec:	0040      	lsls	r0, r0, #1
 80005ee:	bf28      	it	cs
 80005f0:	f040 4000 	orrcs.w	r0, r0, #2147483648	@ 0x80000000
 80005f4:	4770      	bx	lr
 80005f6:	f112 7200 	adds.w	r2, r2, #33554432	@ 0x2000000
 80005fa:	bf3c      	itt	cc
 80005fc:	f500 0000 	addcc.w	r0, r0, #8388608	@ 0x800000
 8000600:	4770      	bxcc	lr
 8000602:	f000 4300 	and.w	r3, r0, #2147483648	@ 0x80000000
 8000606:	f043 40fe 	orr.w	r0, r3, #2130706432	@ 0x7f000000
 800060a:	f440 0000 	orr.w	r0, r0, #8388608	@ 0x800000
 800060e:	4770      	bx	lr
 8000610:	ea7f 6222 	mvns.w	r2, r2, asr #24
 8000614:	bf16      	itet	ne
 8000616:	4608      	movne	r0, r1
 8000618:	ea7f 6323 	mvnseq.w	r3, r3, asr #24
 800061c:	4601      	movne	r1, r0
 800061e:	0242      	lsls	r2, r0, #9
 8000620:	bf06      	itte	eq
 8000622:	ea5f 2341 	movseq.w	r3, r1, lsl #9
 8000626:	ea90 0f01 	teqeq	r0, r1
 800062a:	f440 0080 	orrne.w	r0, r0, #4194304	@ 0x400000
 800062e:	4770      	bx	lr

08000630 <__aeabi_ui2f>:
 8000630:	f04f 0300 	mov.w	r3, #0
 8000634:	e004      	b.n	8000640 <__aeabi_i2f+0x8>
 8000636:	bf00      	nop

08000638 <__aeabi_i2f>:
 8000638:	f010 4300 	ands.w	r3, r0, #2147483648	@ 0x80000000
 800063c:	bf48      	it	mi
 800063e:	4240      	negmi	r0, r0
 8000640:	ea5f 0c00 	movs.w	ip, r0
 8000644:	bf08      	it	eq
 8000646:	4770      	bxeq	lr
 8000648:	f043 4396 	orr.w	r3, r3, #1258291200	@ 0x4b000000
 800064c:	4601      	mov	r1, r0
 800064e:	f04f 0000 	mov.w	r0, #0
 8000652:	e01c      	b.n	800068e <__aeabi_l2f+0x2a>

08000654 <__aeabi_ul2f>:
 8000654:	ea50 0201 	orrs.w	r2, r0, r1
 8000658:	bf08      	it	eq
 800065a:	4770      	bxeq	lr
 800065c:	f04f 0300 	mov.w	r3, #0
 8000660:	e00a      	b.n	8000678 <__aeabi_l2f+0x14>
 8000662:	bf00      	nop

08000664 <__aeabi_l2f>:
 8000664:	ea50 0201 	orrs.w	r2, r0, r1
 8000668:	bf08      	it	eq
 800066a:	4770      	bxeq	lr
 800066c:	f011 4300 	ands.w	r3, r1, #2147483648	@ 0x80000000
 8000670:	d502      	bpl.n	8000678 <__aeabi_l2f+0x14>
 8000672:	4240      	negs	r0, r0
 8000674:	eb61 0141 	sbc.w	r1, r1, r1, lsl #1
 8000678:	ea5f 0c01 	movs.w	ip, r1
 800067c:	bf02      	ittt	eq
 800067e:	4684      	moveq	ip, r0
 8000680:	4601      	moveq	r1, r0
 8000682:	2000      	moveq	r0, #0
 8000684:	f043 43b6 	orr.w	r3, r3, #1526726656	@ 0x5b000000
 8000688:	bf08      	it	eq
 800068a:	f1a3 5380 	subeq.w	r3, r3, #268435456	@ 0x10000000
 800068e:	f5a3 0300 	sub.w	r3, r3, #8388608	@ 0x800000
 8000692:	fabc f28c 	clz	r2, ip
 8000696:	3a08      	subs	r2, #8
 8000698:	eba3 53c2 	sub.w	r3, r3, r2, lsl #23
 800069c:	db10      	blt.n	80006c0 <__aeabi_l2f+0x5c>
 800069e:	fa01 fc02 	lsl.w	ip, r1, r2
 80006a2:	4463      	add	r3, ip
 80006a4:	fa00 fc02 	lsl.w	ip, r0, r2
 80006a8:	f1c2 0220 	rsb	r2, r2, #32
 80006ac:	f1bc 4f00 	cmp.w	ip, #2147483648	@ 0x80000000
 80006b0:	fa20 f202 	lsr.w	r2, r0, r2
 80006b4:	eb43 0002 	adc.w	r0, r3, r2
 80006b8:	bf08      	it	eq
 80006ba:	f020 0001 	biceq.w	r0, r0, #1
 80006be:	4770      	bx	lr
 80006c0:	f102 0220 	add.w	r2, r2, #32
 80006c4:	fa01 fc02 	lsl.w	ip, r1, r2
 80006c8:	f1c2 0220 	rsb	r2, r2, #32
 80006cc:	ea50 004c 	orrs.w	r0, r0, ip, lsl #1
 80006d0:	fa21 f202 	lsr.w	r2, r1, r2
 80006d4:	eb43 0002 	adc.w	r0, r3, r2
 80006d8:	bf08      	it	eq
 80006da:	ea20 70dc 	biceq.w	r0, r0, ip, lsr #31
 80006de:	4770      	bx	lr

080006e0 <__aeabi_fmul>:
 80006e0:	f04f 0cff 	mov.w	ip, #255	@ 0xff
 80006e4:	ea1c 52d0 	ands.w	r2, ip, r0, lsr #23
 80006e8:	bf1e      	ittt	ne
 80006ea:	ea1c 53d1 	andsne.w	r3, ip, r1, lsr #23
 80006ee:	ea92 0f0c 	teqne	r2, ip
 80006f2:	ea93 0f0c 	teqne	r3, ip
 80006f6:	d06f      	beq.n	80007d8 <__aeabi_fmul+0xf8>
 80006f8:	441a      	add	r2, r3
 80006fa:	ea80 0c01 	eor.w	ip, r0, r1
 80006fe:	0240      	lsls	r0, r0, #9
 8000700:	bf18      	it	ne
 8000702:	ea5f 2141 	movsne.w	r1, r1, lsl #9
 8000706:	d01e      	beq.n	8000746 <__aeabi_fmul+0x66>
 8000708:	f04f 6300 	mov.w	r3, #134217728	@ 0x8000000
 800070c:	ea43 1050 	orr.w	r0, r3, r0, lsr #5
 8000710:	ea43 1151 	orr.w	r1, r3, r1, lsr #5
 8000714:	fba0 3101 	umull	r3, r1, r0, r1
 8000718:	f00c 4000 	and.w	r0, ip, #2147483648	@ 0x80000000
 800071c:	f5b1 0f00 	cmp.w	r1, #8388608	@ 0x800000
 8000720:	bf3e      	ittt	cc
 8000722:	0049      	lslcc	r1, r1, #1
 8000724:	ea41 71d3 	orrcc.w	r1, r1, r3, lsr #31
 8000728:	005b      	lslcc	r3, r3, #1
 800072a:	ea40 0001 	orr.w	r0, r0, r1
 800072e:	f162 027f 	sbc.w	r2, r2, #127	@ 0x7f
 8000732:	2afd      	cmp	r2, #253	@ 0xfd
 8000734:	d81d      	bhi.n	8000772 <__aeabi_fmul+0x92>
 8000736:	f1b3 4f00 	cmp.w	r3, #2147483648	@ 0x80000000
 800073a:	eb40 50c2 	adc.w	r0, r0, r2, lsl #23
 800073e:	bf08      	it	eq
 8000740:	f020 0001 	biceq.w	r0, r0, #1
 8000744:	4770      	bx	lr
 8000746:	f090 0f00 	teq	r0, #0
 800074a:	f00c 4c00 	and.w	ip, ip, #2147483648	@ 0x80000000
 800074e:	bf08      	it	eq
 8000750:	0249      	lsleq	r1, r1, #9
 8000752:	ea4c 2050 	orr.w	r0, ip, r0, lsr #9
 8000756:	ea40 2051 	orr.w	r0, r0, r1, lsr #9
 800075a:	3a7f      	subs	r2, #127	@ 0x7f
 800075c:	bfc2      	ittt	gt
 800075e:	f1d2 03ff 	rsbsgt	r3, r2, #255	@ 0xff
 8000762:	ea40 50c2 	orrgt.w	r0, r0, r2, lsl #23
 8000766:	4770      	bxgt	lr
 8000768:	f440 0000 	orr.w	r0, r0, #8388608	@ 0x800000
 800076c:	f04f 0300 	mov.w	r3, #0
 8000770:	3a01      	subs	r2, #1
 8000772:	dc5d      	bgt.n	8000830 <__aeabi_fmul+0x150>
 8000774:	f112 0f19 	cmn.w	r2, #25
 8000778:	bfdc      	itt	le
 800077a:	f000 4000 	andle.w	r0, r0, #2147483648	@ 0x80000000
 800077e:	4770      	bxle	lr
 8000780:	f1c2 0200 	rsb	r2, r2, #0
 8000784:	0041      	lsls	r1, r0, #1
 8000786:	fa21 f102 	lsr.w	r1, r1, r2
 800078a:	f1c2 0220 	rsb	r2, r2, #32
 800078e:	fa00 fc02 	lsl.w	ip, r0, r2
 8000792:	ea5f 0031 	movs.w	r0, r1, rrx
 8000796:	f140 0000 	adc.w	r0, r0, #0
 800079a:	ea53 034c 	orrs.w	r3, r3, ip, lsl #1
 800079e:	bf08      	it	eq
 80007a0:	ea20 70dc 	biceq.w	r0, r0, ip, lsr #31
 80007a4:	4770      	bx	lr
 80007a6:	f092 0f00 	teq	r2, #0
 80007aa:	f000 4c00 	and.w	ip, r0, #2147483648	@ 0x80000000
 80007ae:	bf02      	ittt	eq
 80007b0:	0040      	lsleq	r0, r0, #1
 80007b2:	f410 0f00 	tsteq.w	r0, #8388608	@ 0x800000
 80007b6:	3a01      	subeq	r2, #1
 80007b8:	d0f9      	beq.n	80007ae <__aeabi_fmul+0xce>
 80007ba:	ea40 000c 	orr.w	r0, r0, ip
 80007be:	f093 0f00 	teq	r3, #0
 80007c2:	f001 4c00 	and.w	ip, r1, #2147483648	@ 0x80000000
 80007c6:	bf02      	ittt	eq
 80007c8:	0049      	lsleq	r1, r1, #1
 80007ca:	f411 0f00 	tsteq.w	r1, #8388608	@ 0x800000
 80007ce:	3b01      	subeq	r3, #1
 80007d0:	d0f9      	beq.n	80007c6 <__aeabi_fmul+0xe6>
 80007d2:	ea41 010c 	orr.w	r1, r1, ip
 80007d6:	e78f      	b.n	80006f8 <__aeabi_fmul+0x18>
 80007d8:	ea0c 53d1 	and.w	r3, ip, r1, lsr #23
 80007dc:	ea92 0f0c 	teq	r2, ip
 80007e0:	bf18      	it	ne
 80007e2:	ea93 0f0c 	teqne	r3, ip
 80007e6:	d00a      	beq.n	80007fe <__aeabi_fmul+0x11e>
 80007e8:	f030 4c00 	bics.w	ip, r0, #2147483648	@ 0x80000000
 80007ec:	bf18      	it	ne
 80007ee:	f031 4c00 	bicsne.w	ip, r1, #2147483648	@ 0x80000000
 80007f2:	d1d8      	bne.n	80007a6 <__aeabi_fmul+0xc6>
 80007f4:	ea80 0001 	eor.w	r0, r0, r1
 80007f8:	f000 4000 	and.w	r0, r0, #2147483648	@ 0x80000000
 80007fc:	4770      	bx	lr
 80007fe:	f090 0f00 	teq	r0, #0
 8000802:	bf17      	itett	ne
 8000804:	f090 4f00 	teqne	r0, #2147483648	@ 0x80000000
 8000808:	4608      	moveq	r0, r1
 800080a:	f091 0f00 	teqne	r1, #0
 800080e:	f091 4f00 	teqne	r1, #2147483648	@ 0x80000000
 8000812:	d014      	beq.n	800083e <__aeabi_fmul+0x15e>
 8000814:	ea92 0f0c 	teq	r2, ip
 8000818:	d101      	bne.n	800081e <__aeabi_fmul+0x13e>
 800081a:	0242      	lsls	r2, r0, #9
 800081c:	d10f      	bne.n	800083e <__aeabi_fmul+0x15e>
 800081e:	ea93 0f0c 	teq	r3, ip
 8000822:	d103      	bne.n	800082c <__aeabi_fmul+0x14c>
 8000824:	024b      	lsls	r3, r1, #9
 8000826:	bf18      	it	ne
 8000828:	4608      	movne	r0, r1
 800082a:	d108      	bne.n	800083e <__aeabi_fmul+0x15e>
 800082c:	ea80 0001 	eor.w	r0, r0, r1
 8000830:	f000 4000 	and.w	r0, r0, #2147483648	@ 0x80000000
 8000834:	f040 40fe 	orr.w	r0, r0, #2130706432	@ 0x7f000000
 8000838:	f440 0000 	orr.w	r0, r0, #8388608	@ 0x800000
 800083c:	4770      	bx	lr
 800083e:	f040 40fe 	orr.w	r0, r0, #2130706432	@ 0x7f000000
 8000842:	f440 0040 	orr.w	r0, r0, #12582912	@ 0xc00000
 8000846:	4770      	bx	lr

08000848 <__aeabi_fdiv>:
 8000848:	f04f 0cff 	mov.w	ip, #255	@ 0xff
 800084c:	ea1c 52d0 	ands.w	r2, ip, r0, lsr #23
 8000850:	bf1e      	ittt	ne
 8000852:	ea1c 53d1 	andsne.w	r3, ip, r1, lsr #23
 8000856:	ea92 0f0c 	teqne	r2, ip
 800085a:	ea93 0f0c 	teqne	r3, ip
 800085e:	d069      	beq.n	8000934 <__aeabi_fdiv+0xec>
 8000860:	eba2 0203 	sub.w	r2, r2, r3
 8000864:	ea80 0c01 	eor.w	ip, r0, r1
 8000868:	0249      	lsls	r1, r1, #9
 800086a:	ea4f 2040 	mov.w	r0, r0, lsl #9
 800086e:	d037      	beq.n	80008e0 <__aeabi_fdiv+0x98>
 8000870:	f04f 5380 	mov.w	r3, #268435456	@ 0x10000000
 8000874:	ea43 1111 	orr.w	r1, r3, r1, lsr #4
 8000878:	ea43 1310 	orr.w	r3, r3, r0, lsr #4
 800087c:	f00c 4000 	and.w	r0, ip, #2147483648	@ 0x80000000
 8000880:	428b      	cmp	r3, r1
 8000882:	bf38      	it	cc
 8000884:	005b      	lslcc	r3, r3, #1
 8000886:	f142 027d 	adc.w	r2, r2, #125	@ 0x7d
 800088a:	f44f 0c00 	mov.w	ip, #8388608	@ 0x800000
 800088e:	428b      	cmp	r3, r1
 8000890:	bf24      	itt	cs
 8000892:	1a5b      	subcs	r3, r3, r1
 8000894:	ea40 000c 	orrcs.w	r0, r0, ip
 8000898:	ebb3 0f51 	cmp.w	r3, r1, lsr #1
 800089c:	bf24      	itt	cs
 800089e:	eba3 0351 	subcs.w	r3, r3, r1, lsr #1
 80008a2:	ea40 005c 	orrcs.w	r0, r0, ip, lsr #1
 80008a6:	ebb3 0f91 	cmp.w	r3, r1, lsr #2
 80008aa:	bf24      	itt	cs
 80008ac:	eba3 0391 	subcs.w	r3, r3, r1, lsr #2
 80008b0:	ea40 009c 	orrcs.w	r0, r0, ip, lsr #2
 80008b4:	ebb3 0fd1 	cmp.w	r3, r1, lsr #3
 80008b8:	bf24      	itt	cs
 80008ba:	eba3 03d1 	subcs.w	r3, r3, r1, lsr #3
 80008be:	ea40 00dc 	orrcs.w	r0, r0, ip, lsr #3
 80008c2:	011b      	lsls	r3, r3, #4
 80008c4:	bf18      	it	ne
 80008c6:	ea5f 1c1c 	movsne.w	ip, ip, lsr #4
 80008ca:	d1e0      	bne.n	800088e <__aeabi_fdiv+0x46>
 80008cc:	2afd      	cmp	r2, #253	@ 0xfd
 80008ce:	f63f af50 	bhi.w	8000772 <__aeabi_fmul+0x92>
 80008d2:	428b      	cmp	r3, r1
 80008d4:	eb40 50c2 	adc.w	r0, r0, r2, lsl #23
 80008d8:	bf08      	it	eq
 80008da:	f020 0001 	biceq.w	r0, r0, #1
 80008de:	4770      	bx	lr
 80008e0:	f00c 4c00 	and.w	ip, ip, #2147483648	@ 0x80000000
 80008e4:	ea4c 2050 	orr.w	r0, ip, r0, lsr #9
 80008e8:	327f      	adds	r2, #127	@ 0x7f
 80008ea:	bfc2      	ittt	gt
 80008ec:	f1d2 03ff 	rsbsgt	r3, r2, #255	@ 0xff
 80008f0:	ea40 50c2 	orrgt.w	r0, r0, r2, lsl #23
 80008f4:	4770      	bxgt	lr
 80008f6:	f440 0000 	orr.w	r0, r0, #8388608	@ 0x800000
 80008fa:	f04f 0300 	mov.w	r3, #0
 80008fe:	3a01      	subs	r2, #1
 8000900:	e737      	b.n	8000772 <__aeabi_fmul+0x92>
 8000902:	f092 0f00 	teq	r2, #0
 8000906:	f000 4c00 	and.w	ip, r0, #2147483648	@ 0x80000000
 800090a:	bf02      	ittt	eq
 800090c:	0040      	lsleq	r0, r0, #1
 800090e:	f410 0f00 	tsteq.w	r0, #8388608	@ 0x800000
 8000912:	3a01      	subeq	r2, #1
 8000914:	d0f9      	beq.n	800090a <__aeabi_fdiv+0xc2>
 8000916:	ea40 000c 	orr.w	r0, r0, ip
 800091a:	f093 0f00 	teq	r3, #0
 800091e:	f001 4c00 	and.w	ip, r1, #2147483648	@ 0x80000000
 8000922:	bf02      	ittt	eq
 8000924:	0049      	lsleq	r1, r1, #1
 8000926:	f411 0f00 	tsteq.w	r1, #8388608	@ 0x800000
 800092a:	3b01      	subeq	r3, #1
 800092c:	d0f9      	beq.n	8000922 <__aeabi_fdiv+0xda>
 800092e:	ea41 010c 	orr.w	r1, r1, ip
 8000932:	e795      	b.n	8000860 <__aeabi_fdiv+0x18>
 8000934:	ea0c 53d1 	and.w	r3, ip, r1, lsr #23
 8000938:	ea92 0f0c 	teq	r2, ip
 800093c:	d108      	bne.n	8000950 <__aeabi_fdiv+0x108>
 800093e:	0242      	lsls	r2, r0, #9
 8000940:	f47f af7d 	bne.w	800083e <__aeabi_fmul+0x15e>
 8000944:	ea93 0f0c 	teq	r3, ip
 8000948:	f47f af70 	bne.w	800082c <__aeabi_fmul+0x14c>
 800094c:	4608      	mov	r0, r1
 800094e:	e776      	b.n	800083e <__aeabi_fmul+0x15e>
 8000950:	ea93 0f0c 	teq	r3, ip
 8000954:	d104      	bne.n	8000960 <__aeabi_fdiv+0x118>
 8000956:	024b      	lsls	r3, r1, #9
 8000958:	f43f af4c 	beq.w	80007f4 <__aeabi_fmul+0x114>
 800095c:	4608      	mov	r0, r1
 800095e:	e76e      	b.n	800083e <__aeabi_fmul+0x15e>
 8000960:	f030 4c00 	bics.w	ip, r0, #2147483648	@ 0x80000000
 8000964:	bf18      	it	ne
 8000966:	f031 4c00 	bicsne.w	ip, r1, #2147483648	@ 0x80000000
 800096a:	d1ca      	bne.n	8000902 <__aeabi_fdiv+0xba>
 800096c:	f030 4200 	bics.w	r2, r0, #2147483648	@ 0x80000000
 8000970:	f47f af5c 	bne.w	800082c <__aeabi_fmul+0x14c>
 8000974:	f031 4300 	bics.w	r3, r1, #2147483648	@ 0x80000000
 8000978:	f47f af3c 	bne.w	80007f4 <__aeabi_fmul+0x114>
 800097c:	e75f      	b.n	800083e <__aeabi_fmul+0x15e>
 800097e:	bf00      	nop

08000980 <LocalBB_Init>:
/* 门控命令缓存 */
static LocalBB_DoorCommand_t pending_door_cmd = DOOR_CMD_NONE;

/* ==================== 初始化函数 ==================== */

void LocalBB_Init(void) {
 8000980:	b598      	push	{r3, r4, r7, lr}
 8000982:	af00      	add	r7, sp, #0
    memset(&g_local_bb, 0, sizeof(LocalBlackboard_t));
 8000984:	22c8      	movs	r2, #200	@ 0xc8
 8000986:	2100      	movs	r1, #0
 8000988:	4814      	ldr	r0, [pc, #80]	@ (80009dc <LocalBB_Init+0x5c>)
 800098a:	f005 fc03 	bl	8006194 <memset>
    
    /* 初始状态 */
    g_local_bb.current_floor = 1;
 800098e:	4b13      	ldr	r3, [pc, #76]	@ (80009dc <LocalBB_Init+0x5c>)
 8000990:	2201      	movs	r2, #1
 8000992:	f883 2083 	strb.w	r2, [r3, #131]	@ 0x83
    g_local_bb.expected_next_floor = 1;
 8000996:	4b11      	ldr	r3, [pc, #68]	@ (80009dc <LocalBB_Init+0x5c>)
 8000998:	2201      	movs	r2, #1
 800099a:	f883 2086 	strb.w	r2, [r3, #134]	@ 0x86
    g_local_bb.direction = DIR_STOP;
 800099e:	4b0f      	ldr	r3, [pc, #60]	@ (80009dc <LocalBB_Init+0x5c>)
 80009a0:	2200      	movs	r2, #0
 80009a2:	f883 2085 	strb.w	r2, [r3, #133]	@ 0x85
    g_local_bb.door_state = LOCAL_DOOR_CLOSED;
 80009a6:	4b0d      	ldr	r3, [pc, #52]	@ (80009dc <LocalBB_Init+0x5c>)
 80009a8:	2200      	movs	r2, #0
 80009aa:	f883 2087 	strb.w	r2, [r3, #135]	@ 0x87
    
    /* 事件队列 */
    g_local_bb.event_head = 0;
 80009ae:	4b0b      	ldr	r3, [pc, #44]	@ (80009dc <LocalBB_Init+0x5c>)
 80009b0:	2200      	movs	r2, #0
 80009b2:	f883 2080 	strb.w	r2, [r3, #128]	@ 0x80
    g_local_bb.event_tail = 0;
 80009b6:	4b09      	ldr	r3, [pc, #36]	@ (80009dc <LocalBB_Init+0x5c>)
 80009b8:	2200      	movs	r2, #0
 80009ba:	f883 2081 	strb.w	r2, [r3, #129]	@ 0x81
    g_local_bb.event_count = 0;
 80009be:	4b07      	ldr	r3, [pc, #28]	@ (80009dc <LocalBB_Init+0x5c>)
 80009c0:	2200      	movs	r2, #0
 80009c2:	f883 2082 	strb.w	r2, [r3, #130]	@ 0x82
    
    strcpy(g_local_bb.debug_msg, "LocalBB Init");
 80009c6:	4a06      	ldr	r2, [pc, #24]	@ (80009e0 <LocalBB_Init+0x60>)
 80009c8:	4b06      	ldr	r3, [pc, #24]	@ (80009e4 <LocalBB_Init+0x64>)
 80009ca:	4614      	mov	r4, r2
 80009cc:	cb0f      	ldmia	r3, {r0, r1, r2, r3}
 80009ce:	c407      	stmia	r4!, {r0, r1, r2}
 80009d0:	7023      	strb	r3, [r4, #0]
    printf("[LocalBB] Initialized\r\n");
 80009d2:	4805      	ldr	r0, [pc, #20]	@ (80009e8 <LocalBB_Init+0x68>)
 80009d4:	f005 fadc 	bl	8005f90 <puts>
}
 80009d8:	bf00      	nop
 80009da:	bd98      	pop	{r3, r4, r7, pc}
 80009dc:	200000a8 	.word	0x200000a8
 80009e0:	20000150 	.word	0x20000150
 80009e4:	08007030 	.word	0x08007030
 80009e8:	08007040 	.word	0x08007040

080009ec <PushEvent>:
    LocalBB_Init();
}

/* ==================== 事件队列管理 ==================== */

static bool PushEvent(LocalEventType_t type, uint8_t data1, uint8_t data2, uint8_t data3) {
 80009ec:	b590      	push	{r4, r7, lr}
 80009ee:	b087      	sub	sp, #28
 80009f0:	af00      	add	r7, sp, #0
 80009f2:	4604      	mov	r4, r0
 80009f4:	4608      	mov	r0, r1
 80009f6:	4611      	mov	r1, r2
 80009f8:	461a      	mov	r2, r3
 80009fa:	4623      	mov	r3, r4
 80009fc:	71fb      	strb	r3, [r7, #7]
 80009fe:	4603      	mov	r3, r0
 8000a00:	71bb      	strb	r3, [r7, #6]
 8000a02:	460b      	mov	r3, r1
 8000a04:	717b      	strb	r3, [r7, #5]
 8000a06:	4613      	mov	r3, r2
 8000a08:	713b      	strb	r3, [r7, #4]
 */
__STATIC_FORCEINLINE uint32_t __get_PRIMASK(void)
{
  uint32_t result;

  __ASM volatile ("MRS %0, primask" : "=r" (result) :: "memory");
 8000a0a:	f3ef 8310 	mrs	r3, PRIMASK
 8000a0e:	60fb      	str	r3, [r7, #12]
  return(result);
 8000a10:	68fb      	ldr	r3, [r7, #12]
    /* 临界区保护 */
    uint32_t primask = __get_PRIMASK();
 8000a12:	617b      	str	r3, [r7, #20]
  __ASM volatile ("cpsid i" : : : "memory");
 8000a14:	b672      	cpsid	i
}
 8000a16:	bf00      	nop
    __disable_irq();
    
    if (g_local_bb.event_count >= MAX_EVENT_QUEUE) {
 8000a18:	4b2f      	ldr	r3, [pc, #188]	@ (8000ad8 <PushEvent+0xec>)
 8000a1a:	f893 3082 	ldrb.w	r3, [r3, #130]	@ 0x82
 8000a1e:	b2db      	uxtb	r3, r3
 8000a20:	2b0f      	cmp	r3, #15
 8000a22:	d91b      	bls.n	8000a5c <PushEvent+0x70>
        /* 队列满时丢弃最旧事件 */
        printf("[LocalBB] Event queue full! Dropping oldest\r\n");
 8000a24:	482d      	ldr	r0, [pc, #180]	@ (8000adc <PushEvent+0xf0>)
 8000a26:	f005 fab3 	bl	8005f90 <puts>
        g_local_bb.event_head = (g_local_bb.event_head + 1) % MAX_EVENT_QUEUE;
 8000a2a:	4b2b      	ldr	r3, [pc, #172]	@ (8000ad8 <PushEvent+0xec>)
 8000a2c:	f893 3080 	ldrb.w	r3, [r3, #128]	@ 0x80
 8000a30:	b2db      	uxtb	r3, r3
 8000a32:	3301      	adds	r3, #1
 8000a34:	425a      	negs	r2, r3
 8000a36:	f003 030f 	and.w	r3, r3, #15
 8000a3a:	f002 020f 	and.w	r2, r2, #15
 8000a3e:	bf58      	it	pl
 8000a40:	4253      	negpl	r3, r2
 8000a42:	b2da      	uxtb	r2, r3
 8000a44:	4b24      	ldr	r3, [pc, #144]	@ (8000ad8 <PushEvent+0xec>)
 8000a46:	f883 2080 	strb.w	r2, [r3, #128]	@ 0x80
        g_local_bb.event_count--;
 8000a4a:	4b23      	ldr	r3, [pc, #140]	@ (8000ad8 <PushEvent+0xec>)
 8000a4c:	f893 3082 	ldrb.w	r3, [r3, #130]	@ 0x82
 8000a50:	b2db      	uxtb	r3, r3
 8000a52:	3b01      	subs	r3, #1
 8000a54:	b2da      	uxtb	r2, r3
 8000a56:	4b20      	ldr	r3, [pc, #128]	@ (8000ad8 <PushEvent+0xec>)
 8000a58:	f883 2082 	strb.w	r2, [r3, #130]	@ 0x82
    }
    
    LocalEvent_t* event = &g_local_bb.event_queue[g_local_bb.event_tail];
 8000a5c:	4b1e      	ldr	r3, [pc, #120]	@ (8000ad8 <PushEvent+0xec>)
 8000a5e:	f893 3081 	ldrb.w	r3, [r3, #129]	@ 0x81
 8000a62:	b2db      	uxtb	r3, r3
 8000a64:	00db      	lsls	r3, r3, #3
 8000a66:	4a1c      	ldr	r2, [pc, #112]	@ (8000ad8 <PushEvent+0xec>)
 8000a68:	4413      	add	r3, r2
 8000a6a:	613b      	str	r3, [r7, #16]
    event->type = type;
 8000a6c:	693b      	ldr	r3, [r7, #16]
 8000a6e:	79fa      	ldrb	r2, [r7, #7]
 8000a70:	701a      	strb	r2, [r3, #0]
    event->data1 = data1;
 8000a72:	693b      	ldr	r3, [r7, #16]
 8000a74:	79ba      	ldrb	r2, [r7, #6]
 8000a76:	705a      	strb	r2, [r3, #1]
    event->data2 = data2;
 8000a78:	693b      	ldr	r3, [r7, #16]
 8000a7a:	797a      	ldrb	r2, [r7, #5]
 8000a7c:	709a      	strb	r2, [r3, #2]
    event->data3 = data3;
 8000a7e:	693b      	ldr	r3, [r7, #16]
 8000a80:	793a      	ldrb	r2, [r7, #4]
 8000a82:	70da      	strb	r2, [r3, #3]
    event->timestamp = HAL_GetTick();
 8000a84:	f002 fe44 	bl	8003710 <HAL_GetTick>
 8000a88:	4602      	mov	r2, r0
 8000a8a:	693b      	ldr	r3, [r7, #16]
 8000a8c:	605a      	str	r2, [r3, #4]
    
    g_local_bb.event_tail = (g_local_bb.event_tail + 1) % MAX_EVENT_QUEUE;
 8000a8e:	4b12      	ldr	r3, [pc, #72]	@ (8000ad8 <PushEvent+0xec>)
 8000a90:	f893 3081 	ldrb.w	r3, [r3, #129]	@ 0x81
 8000a94:	b2db      	uxtb	r3, r3
 8000a96:	3301      	adds	r3, #1
 8000a98:	425a      	negs	r2, r3
 8000a9a:	f003 030f 	and.w	r3, r3, #15
 8000a9e:	f002 020f 	and.w	r2, r2, #15
 8000aa2:	bf58      	it	pl
 8000aa4:	4253      	negpl	r3, r2
 8000aa6:	b2da      	uxtb	r2, r3
 8000aa8:	4b0b      	ldr	r3, [pc, #44]	@ (8000ad8 <PushEvent+0xec>)
 8000aaa:	f883 2081 	strb.w	r2, [r3, #129]	@ 0x81
    g_local_bb.event_count++;
 8000aae:	4b0a      	ldr	r3, [pc, #40]	@ (8000ad8 <PushEvent+0xec>)
 8000ab0:	f893 3082 	ldrb.w	r3, [r3, #130]	@ 0x82
 8000ab4:	b2db      	uxtb	r3, r3
 8000ab6:	3301      	adds	r3, #1
 8000ab8:	b2da      	uxtb	r2, r3
 8000aba:	4b07      	ldr	r3, [pc, #28]	@ (8000ad8 <PushEvent+0xec>)
 8000abc:	f883 2082 	strb.w	r2, [r3, #130]	@ 0x82
 8000ac0:	697b      	ldr	r3, [r7, #20]
 8000ac2:	60bb      	str	r3, [r7, #8]
  \details Assigns the given value to the Priority Mask Register.
  \param [in]    priMask  Priority Mask
 */
__STATIC_FORCEINLINE void __set_PRIMASK(uint32_t priMask)
{
  __ASM volatile ("MSR primask, %0" : : "r" (priMask) : "memory");
 8000ac4:	68bb      	ldr	r3, [r7, #8]
 8000ac6:	f383 8810 	msr	PRIMASK, r3
}
 8000aca:	bf00      	nop
    
    __set_PRIMASK(primask);
    return true;
 8000acc:	2301      	movs	r3, #1
}
 8000ace:	4618      	mov	r0, r3
 8000ad0:	371c      	adds	r7, #28
 8000ad2:	46bd      	mov	sp, r7
 8000ad4:	bd90      	pop	{r4, r7, pc}
 8000ad6:	bf00      	nop
 8000ad8:	200000a8 	.word	0x200000a8
 8000adc:	08007058 	.word	0x08007058

08000ae0 <PopEvent>:

static bool PopEvent(LocalEvent_t* event) {
 8000ae0:	b490      	push	{r4, r7}
 8000ae2:	b086      	sub	sp, #24
 8000ae4:	af00      	add	r7, sp, #0
 8000ae6:	6078      	str	r0, [r7, #4]
  __ASM volatile ("MRS %0, primask" : "=r" (result) :: "memory");
 8000ae8:	f3ef 8310 	mrs	r3, PRIMASK
 8000aec:	613b      	str	r3, [r7, #16]
  return(result);
 8000aee:	693b      	ldr	r3, [r7, #16]
    /* 临界区保护 */
    uint32_t primask = __get_PRIMASK();
 8000af0:	617b      	str	r3, [r7, #20]
  __ASM volatile ("cpsid i" : : : "memory");
 8000af2:	b672      	cpsid	i
}
 8000af4:	bf00      	nop
    __disable_irq();
    
    if (g_local_bb.event_count == 0) {
 8000af6:	4b20      	ldr	r3, [pc, #128]	@ (8000b78 <PopEvent+0x98>)
 8000af8:	f893 3082 	ldrb.w	r3, [r3, #130]	@ 0x82
 8000afc:	b2db      	uxtb	r3, r3
 8000afe:	2b00      	cmp	r3, #0
 8000b00:	d107      	bne.n	8000b12 <PopEvent+0x32>
 8000b02:	697b      	ldr	r3, [r7, #20]
 8000b04:	60fb      	str	r3, [r7, #12]
  __ASM volatile ("MSR primask, %0" : : "r" (priMask) : "memory");
 8000b06:	68fb      	ldr	r3, [r7, #12]
 8000b08:	f383 8810 	msr	PRIMASK, r3
}
 8000b0c:	bf00      	nop
        __set_PRIMASK(primask);
        return false;
 8000b0e:	2300      	movs	r3, #0
 8000b10:	e02c      	b.n	8000b6c <PopEvent+0x8c>
    }
    
    *event = g_local_bb.event_queue[g_local_bb.event_head];
 8000b12:	4b19      	ldr	r3, [pc, #100]	@ (8000b78 <PopEvent+0x98>)
 8000b14:	f893 3080 	ldrb.w	r3, [r3, #128]	@ 0x80
 8000b18:	b2db      	uxtb	r3, r3
 8000b1a:	6879      	ldr	r1, [r7, #4]
 8000b1c:	4a16      	ldr	r2, [pc, #88]	@ (8000b78 <PopEvent+0x98>)
 8000b1e:	460c      	mov	r4, r1
 8000b20:	00db      	lsls	r3, r3, #3
 8000b22:	4413      	add	r3, r2
 8000b24:	e893 0003 	ldmia.w	r3, {r0, r1}
 8000b28:	e884 0003 	stmia.w	r4, {r0, r1}
    g_local_bb.event_head = (g_local_bb.event_head + 1) % MAX_EVENT_QUEUE;
 8000b2c:	4b12      	ldr	r3, [pc, #72]	@ (8000b78 <PopEvent+0x98>)
 8000b2e:	f893 3080 	ldrb.w	r3, [r3, #128]	@ 0x80
 8000b32:	b2db      	uxtb	r3, r3
 8000b34:	3301      	adds	r3, #1
 8000b36:	425a      	negs	r2, r3
 8000b38:	f003 030f 	and.w	r3, r3, #15
 8000b3c:	f002 020f 	and.w	r2, r2, #15
 8000b40:	bf58      	it	pl
 8000b42:	4253      	negpl	r3, r2
 8000b44:	b2da      	uxtb	r2, r3
 8000b46:	4b0c      	ldr	r3, [pc, #48]	@ (8000b78 <PopEvent+0x98>)
 8000b48:	f883 2080 	strb.w	r2, [r3, #128]	@ 0x80
    g_local_bb.event_count--;
 8000b4c:	4b0a      	ldr	r3, [pc, #40]	@ (8000b78 <PopEvent+0x98>)
 8000b4e:	f893 3082 	ldrb.w	r3, [r3, #130]	@ 0x82
 8000b52:	b2db      	uxtb	r3, r3
 8000b54:	3b01      	subs	r3, #1
 8000b56:	b2da      	uxtb	r2, r3
 8000b58:	4b07      	ldr	r3, [pc, #28]	@ (8000b78 <PopEvent+0x98>)
 8000b5a:	f883 2082 	strb.w	r2, [r3, #130]	@ 0x82
 8000b5e:	697b      	ldr	r3, [r7, #20]
 8000b60:	60bb      	str	r3, [r7, #8]
  __ASM volatile ("MSR primask, %0" : : "r" (priMask) : "memory");
 8000b62:	68bb      	ldr	r3, [r7, #8]
 8000b64:	f383 8810 	msr	PRIMASK, r3
}
 8000b68:	bf00      	nop
    
    __set_PRIMASK(primask);
    return true;
 8000b6a:	2301      	movs	r3, #1
}
 8000b6c:	4618      	mov	r0, r3
 8000b6e:	3718      	adds	r7, #24
 8000b70:	46bd      	mov	sp, r7
 8000b72:	bc90      	pop	{r4, r7}
 8000b74:	4770      	bx	lr
 8000b76:	bf00      	nop
 8000b78:	200000a8 	.word	0x200000a8

08000b7c <LocalBB_AddCabinCall>:

/* ==================== 事件输入接口 ==================== */

void LocalBB_AddCabinCall(uint8_t floor) {
 8000b7c:	b580      	push	{r7, lr}
 8000b7e:	b084      	sub	sp, #16
 8000b80:	af00      	add	r7, sp, #0
 8000b82:	4603      	mov	r3, r0
 8000b84:	71fb      	strb	r3, [r7, #7]
    if (floor < 1 || floor > MAX_FLOORS) return;
 8000b86:	79fb      	ldrb	r3, [r7, #7]
 8000b88:	2b00      	cmp	r3, #0
 8000b8a:	d055      	beq.n	8000c38 <LocalBB_AddCabinCall+0xbc>
 8000b8c:	79fb      	ldrb	r3, [r7, #7]
 8000b8e:	2b03      	cmp	r3, #3
 8000b90:	d852      	bhi.n	8000c38 <LocalBB_AddCabinCall+0xbc>
    
    uint32_t current_time = HAL_GetTick();
 8000b92:	f002 fdbd 	bl	8003710 <HAL_GetTick>
 8000b96:	60f8      	str	r0, [r7, #12]
     * 2. 不同层呼叫：使用极短的防抖时间（3ms），确保快速响应
     * 3. 超过1秒后：认为是新的操作周期，重置防抖
     */
    
    /* 如果距离上次发送超过1秒，重置记录（新的操作周期） */
    if ((current_time - g_local_bb.last_cabin_call_time) > 1000) {
 8000b98:	4b29      	ldr	r3, [pc, #164]	@ (8000c40 <LocalBB_AddCabinCall+0xc4>)
 8000b9a:	f8d3 3090 	ldr.w	r3, [r3, #144]	@ 0x90
 8000b9e:	68fa      	ldr	r2, [r7, #12]
 8000ba0:	1ad3      	subs	r3, r2, r3
 8000ba2:	f5b3 7f7a 	cmp.w	r3, #1000	@ 0x3e8
 8000ba6:	d903      	bls.n	8000bb0 <LocalBB_AddCabinCall+0x34>
        g_local_bb.last_sent_cabin_call = 0;  /* 重置记录 */
 8000ba8:	4b25      	ldr	r3, [pc, #148]	@ (8000c40 <LocalBB_AddCabinCall+0xc4>)
 8000baa:	2200      	movs	r2, #0
 8000bac:	f883 208c 	strb.w	r2, [r3, #140]	@ 0x8c
    }
    
    /* 防抖检查 */
    if (floor == g_local_bb.last_sent_cabin_call) {
 8000bb0:	4b23      	ldr	r3, [pc, #140]	@ (8000c40 <LocalBB_AddCabinCall+0xc4>)
 8000bb2:	f893 308c 	ldrb.w	r3, [r3, #140]	@ 0x8c
 8000bb6:	79fa      	ldrb	r2, [r7, #7]
 8000bb8:	429a      	cmp	r2, r3
 8000bba:	d126      	bne.n	8000c0a <LocalBB_AddCabinCall+0x8e>
        /* 同楼层呼叫 */
        if (floor == g_local_bb.current_floor) {
 8000bbc:	4b20      	ldr	r3, [pc, #128]	@ (8000c40 <LocalBB_AddCabinCall+0xc4>)
 8000bbe:	f893 3083 	ldrb.w	r3, [r3, #131]	@ 0x83
 8000bc2:	b2db      	uxtb	r3, r3
 8000bc4:	79fa      	ldrb	r2, [r7, #7]
 8000bc6:	429a      	cmp	r2, r3
 8000bc8:	d112      	bne.n	8000bf0 <LocalBB_AddCabinCall+0x74>
            /* 同层呼叫：使用100ms防抖，避免门操作期间重复触发 */
            if ((current_time - g_local_bb.last_cabin_call_time) < 100) {
 8000bca:	4b1d      	ldr	r3, [pc, #116]	@ (8000c40 <LocalBB_AddCabinCall+0xc4>)
 8000bcc:	f8d3 3090 	ldr.w	r3, [r3, #144]	@ 0x90
 8000bd0:	68fa      	ldr	r2, [r7, #12]
 8000bd2:	1ad3      	subs	r3, r2, r3
 8000bd4:	2b63      	cmp	r3, #99	@ 0x63
 8000bd6:	d818      	bhi.n	8000c0a <LocalBB_AddCabinCall+0x8e>
                printf("[LocalBB] Same floor cabin call %d debounced (wait %lums)\r\n", 
 8000bd8:	79f9      	ldrb	r1, [r7, #7]
                       floor, 100 - (current_time - g_local_bb.last_cabin_call_time));
 8000bda:	4b19      	ldr	r3, [pc, #100]	@ (8000c40 <LocalBB_AddCabinCall+0xc4>)
 8000bdc:	f8d3 2090 	ldr.w	r2, [r3, #144]	@ 0x90
 8000be0:	68fb      	ldr	r3, [r7, #12]
 8000be2:	1ad3      	subs	r3, r2, r3
                printf("[LocalBB] Same floor cabin call %d debounced (wait %lums)\r\n", 
 8000be4:	3364      	adds	r3, #100	@ 0x64
 8000be6:	461a      	mov	r2, r3
 8000be8:	4816      	ldr	r0, [pc, #88]	@ (8000c44 <LocalBB_AddCabinCall+0xc8>)
 8000bea:	f005 f969 	bl	8005ec0 <iprintf>
                return;
 8000bee:	e024      	b.n	8000c3a <LocalBB_AddCabinCall+0xbe>
            }
        } else {
            /* 不同层但相同呼叫：使用3ms防抖 */
            if ((current_time - g_local_bb.last_cabin_call_time) < DEBOUNCE_TIME_MS) {
 8000bf0:	4b13      	ldr	r3, [pc, #76]	@ (8000c40 <LocalBB_AddCabinCall+0xc4>)
 8000bf2:	f8d3 3090 	ldr.w	r3, [r3, #144]	@ 0x90
 8000bf6:	68fa      	ldr	r2, [r7, #12]
 8000bf8:	1ad3      	subs	r3, r2, r3
 8000bfa:	2b02      	cmp	r3, #2
 8000bfc:	d805      	bhi.n	8000c0a <LocalBB_AddCabinCall+0x8e>
                printf("[LocalBB] Cabin call %d debounced\r\n", floor);
 8000bfe:	79fb      	ldrb	r3, [r7, #7]
 8000c00:	4619      	mov	r1, r3
 8000c02:	4811      	ldr	r0, [pc, #68]	@ (8000c48 <LocalBB_AddCabinCall+0xcc>)
 8000c04:	f005 f95c 	bl	8005ec0 <iprintf>
                return;
 8000c08:	e017      	b.n	8000c3a <LocalBB_AddCabinCall+0xbe>
            }
        }
    }
    
    /* 发送事件 */
    PushEvent(LOCAL_EVENT_CABIN_CALL, floor, 0, 0);
 8000c0a:	79f9      	ldrb	r1, [r7, #7]
 8000c0c:	2300      	movs	r3, #0
 8000c0e:	2200      	movs	r2, #0
 8000c10:	2001      	movs	r0, #1
 8000c12:	f7ff feeb 	bl	80009ec <PushEvent>
    g_local_bb.cabin_call_count++;
 8000c16:	4b0a      	ldr	r3, [pc, #40]	@ (8000c40 <LocalBB_AddCabinCall+0xc4>)
 8000c18:	f8d3 309c 	ldr.w	r3, [r3, #156]	@ 0x9c
 8000c1c:	3301      	adds	r3, #1
 8000c1e:	4a08      	ldr	r2, [pc, #32]	@ (8000c40 <LocalBB_AddCabinCall+0xc4>)
 8000c20:	f8c2 309c 	str.w	r3, [r2, #156]	@ 0x9c
    printf("[LocalBB] Cabin call queued: floor %d (current: %d)\r\n", floor, g_local_bb.current_floor);
 8000c24:	79fb      	ldrb	r3, [r7, #7]
 8000c26:	4a06      	ldr	r2, [pc, #24]	@ (8000c40 <LocalBB_AddCabinCall+0xc4>)
 8000c28:	f892 2083 	ldrb.w	r2, [r2, #131]	@ 0x83
 8000c2c:	b2d2      	uxtb	r2, r2
 8000c2e:	4619      	mov	r1, r3
 8000c30:	4806      	ldr	r0, [pc, #24]	@ (8000c4c <LocalBB_AddCabinCall+0xd0>)
 8000c32:	f005 f945 	bl	8005ec0 <iprintf>
 8000c36:	e000      	b.n	8000c3a <LocalBB_AddCabinCall+0xbe>
    if (floor < 1 || floor > MAX_FLOORS) return;
 8000c38:	bf00      	nop
}
 8000c3a:	3710      	adds	r7, #16
 8000c3c:	46bd      	mov	sp, r7
 8000c3e:	bd80      	pop	{r7, pc}
 8000c40:	200000a8 	.word	0x200000a8
 8000c44:	08007088 	.word	0x08007088
 8000c48:	080070c4 	.word	0x080070c4
 8000c4c:	080070e8 	.word	0x080070e8

08000c50 <LocalBB_AddPhotoSensor>:

void LocalBB_AddPhotoSensor(void) {
 8000c50:	b580      	push	{r7, lr}
 8000c52:	b082      	sub	sp, #8
 8000c54:	af00      	add	r7, sp, #0
    /* 使用预期楼层 */
    uint8_t floor = g_local_bb.expected_next_floor;
 8000c56:	4b24      	ldr	r3, [pc, #144]	@ (8000ce8 <LocalBB_AddPhotoSensor+0x98>)
 8000c58:	f893 3086 	ldrb.w	r3, [r3, #134]	@ 0x86
 8000c5c:	71fb      	strb	r3, [r7, #7]
    
    PushEvent(LOCAL_EVENT_PHOTO_SENSOR, floor, 0, 0);
 8000c5e:	79f9      	ldrb	r1, [r7, #7]
 8000c60:	2300      	movs	r3, #0
 8000c62:	2200      	movs	r2, #0
 8000c64:	2002      	movs	r0, #2
 8000c66:	f7ff fec1 	bl	80009ec <PushEvent>
    g_local_bb.photo_trigger_count++;
 8000c6a:	4b1f      	ldr	r3, [pc, #124]	@ (8000ce8 <LocalBB_AddPhotoSensor+0x98>)
 8000c6c:	f8d3 30a0 	ldr.w	r3, [r3, #160]	@ 0xa0
 8000c70:	3301      	adds	r3, #1
 8000c72:	4a1d      	ldr	r2, [pc, #116]	@ (8000ce8 <LocalBB_AddPhotoSensor+0x98>)
 8000c74:	f8c2 30a0 	str.w	r3, [r2, #160]	@ 0xa0
    printf("[LocalBB] Photo sensor queued: floor %d\r\n", floor);
 8000c78:	79fb      	ldrb	r3, [r7, #7]
 8000c7a:	4619      	mov	r1, r3
 8000c7c:	481b      	ldr	r0, [pc, #108]	@ (8000cec <LocalBB_AddPhotoSensor+0x9c>)
 8000c7e:	f005 f91f 	bl	8005ec0 <iprintf>
    
    /* 更新当前楼层 */
    g_local_bb.current_floor = floor;
 8000c82:	4a19      	ldr	r2, [pc, #100]	@ (8000ce8 <LocalBB_AddPhotoSensor+0x98>)
 8000c84:	79fb      	ldrb	r3, [r7, #7]
 8000c86:	f882 3083 	strb.w	r3, [r2, #131]	@ 0x83
    
    /* 根据方向更新预期楼层 */
    if (g_local_bb.direction == DIR_UP) {
 8000c8a:	4b17      	ldr	r3, [pc, #92]	@ (8000ce8 <LocalBB_AddPhotoSensor+0x98>)
 8000c8c:	f893 3085 	ldrb.w	r3, [r3, #133]	@ 0x85
 8000c90:	b2db      	uxtb	r3, r3
 8000c92:	2b01      	cmp	r3, #1
 8000c94:	d110      	bne.n	8000cb8 <LocalBB_AddPhotoSensor+0x68>
        g_local_bb.expected_next_floor = floor + 1;
 8000c96:	79fb      	ldrb	r3, [r7, #7]
 8000c98:	3301      	adds	r3, #1
 8000c9a:	b2da      	uxtb	r2, r3
 8000c9c:	4b12      	ldr	r3, [pc, #72]	@ (8000ce8 <LocalBB_AddPhotoSensor+0x98>)
 8000c9e:	f883 2086 	strb.w	r2, [r3, #134]	@ 0x86
        if (g_local_bb.expected_next_floor > MAX_FLOORS) {
 8000ca2:	4b11      	ldr	r3, [pc, #68]	@ (8000ce8 <LocalBB_AddPhotoSensor+0x98>)
 8000ca4:	f893 3086 	ldrb.w	r3, [r3, #134]	@ 0x86
 8000ca8:	b2db      	uxtb	r3, r3
 8000caa:	2b03      	cmp	r3, #3
 8000cac:	d918      	bls.n	8000ce0 <LocalBB_AddPhotoSensor+0x90>
            g_local_bb.expected_next_floor = MAX_FLOORS;
 8000cae:	4b0e      	ldr	r3, [pc, #56]	@ (8000ce8 <LocalBB_AddPhotoSensor+0x98>)
 8000cb0:	2203      	movs	r2, #3
 8000cb2:	f883 2086 	strb.w	r2, [r3, #134]	@ 0x86
            g_local_bb.expected_next_floor = floor - 1;
        } else {
            g_local_bb.expected_next_floor = 1;
        }
    }
}
 8000cb6:	e013      	b.n	8000ce0 <LocalBB_AddPhotoSensor+0x90>
    } else if (g_local_bb.direction == DIR_DOWN) {
 8000cb8:	4b0b      	ldr	r3, [pc, #44]	@ (8000ce8 <LocalBB_AddPhotoSensor+0x98>)
 8000cba:	f893 3085 	ldrb.w	r3, [r3, #133]	@ 0x85
 8000cbe:	b2db      	uxtb	r3, r3
 8000cc0:	2b02      	cmp	r3, #2
 8000cc2:	d10d      	bne.n	8000ce0 <LocalBB_AddPhotoSensor+0x90>
        if (floor > 1) {
 8000cc4:	79fb      	ldrb	r3, [r7, #7]
 8000cc6:	2b01      	cmp	r3, #1
 8000cc8:	d906      	bls.n	8000cd8 <LocalBB_AddPhotoSensor+0x88>
            g_local_bb.expected_next_floor = floor - 1;
 8000cca:	79fb      	ldrb	r3, [r7, #7]
 8000ccc:	3b01      	subs	r3, #1
 8000cce:	b2da      	uxtb	r2, r3
 8000cd0:	4b05      	ldr	r3, [pc, #20]	@ (8000ce8 <LocalBB_AddPhotoSensor+0x98>)
 8000cd2:	f883 2086 	strb.w	r2, [r3, #134]	@ 0x86
}
 8000cd6:	e003      	b.n	8000ce0 <LocalBB_AddPhotoSensor+0x90>
            g_local_bb.expected_next_floor = 1;
 8000cd8:	4b03      	ldr	r3, [pc, #12]	@ (8000ce8 <LocalBB_AddPhotoSensor+0x98>)
 8000cda:	2201      	movs	r2, #1
 8000cdc:	f883 2086 	strb.w	r2, [r3, #134]	@ 0x86
}
 8000ce0:	bf00      	nop
 8000ce2:	3708      	adds	r7, #8
 8000ce4:	46bd      	mov	sp, r7
 8000ce6:	bd80      	pop	{r7, pc}
 8000ce8:	200000a8 	.word	0x200000a8
 8000cec:	08007120 	.word	0x08007120

08000cf0 <LocalBB_SetDirection>:

void LocalBB_SetDirection(uint8_t dir, uint8_t current, uint8_t target) {
 8000cf0:	b580      	push	{r7, lr}
 8000cf2:	b084      	sub	sp, #16
 8000cf4:	af02      	add	r7, sp, #8
 8000cf6:	4603      	mov	r3, r0
 8000cf8:	71fb      	strb	r3, [r7, #7]
 8000cfa:	460b      	mov	r3, r1
 8000cfc:	71bb      	strb	r3, [r7, #6]
 8000cfe:	4613      	mov	r3, r2
 8000d00:	717b      	strb	r3, [r7, #5]
    g_local_bb.direction = dir;
 8000d02:	4a23      	ldr	r2, [pc, #140]	@ (8000d90 <LocalBB_SetDirection+0xa0>)
 8000d04:	79fb      	ldrb	r3, [r7, #7]
 8000d06:	f882 3085 	strb.w	r3, [r2, #133]	@ 0x85
    g_local_bb.current_floor = current;
 8000d0a:	4a21      	ldr	r2, [pc, #132]	@ (8000d90 <LocalBB_SetDirection+0xa0>)
 8000d0c:	79bb      	ldrb	r3, [r7, #6]
 8000d0e:	f882 3083 	strb.w	r3, [r2, #131]	@ 0x83
    g_local_bb.target_floor = target;
 8000d12:	4a1f      	ldr	r2, [pc, #124]	@ (8000d90 <LocalBB_SetDirection+0xa0>)
 8000d14:	797b      	ldrb	r3, [r7, #5]
 8000d16:	f882 3084 	strb.w	r3, [r2, #132]	@ 0x84
    
    /* 设置预期楼层 */
    if (dir == DIR_UP) {
 8000d1a:	79fb      	ldrb	r3, [r7, #7]
 8000d1c:	2b01      	cmp	r3, #1
 8000d1e:	d106      	bne.n	8000d2e <LocalBB_SetDirection+0x3e>
        g_local_bb.expected_next_floor = current + 1;
 8000d20:	79bb      	ldrb	r3, [r7, #6]
 8000d22:	3301      	adds	r3, #1
 8000d24:	b2da      	uxtb	r2, r3
 8000d26:	4b1a      	ldr	r3, [pc, #104]	@ (8000d90 <LocalBB_SetDirection+0xa0>)
 8000d28:	f883 2086 	strb.w	r2, [r3, #134]	@ 0x86
 8000d2c:	e010      	b.n	8000d50 <LocalBB_SetDirection+0x60>
    } else if (dir == DIR_DOWN && current > 1) {
 8000d2e:	79fb      	ldrb	r3, [r7, #7]
 8000d30:	2b02      	cmp	r3, #2
 8000d32:	d109      	bne.n	8000d48 <LocalBB_SetDirection+0x58>
 8000d34:	79bb      	ldrb	r3, [r7, #6]
 8000d36:	2b01      	cmp	r3, #1
 8000d38:	d906      	bls.n	8000d48 <LocalBB_SetDirection+0x58>
        g_local_bb.expected_next_floor = current - 1;
 8000d3a:	79bb      	ldrb	r3, [r7, #6]
 8000d3c:	3b01      	subs	r3, #1
 8000d3e:	b2da      	uxtb	r2, r3
 8000d40:	4b13      	ldr	r3, [pc, #76]	@ (8000d90 <LocalBB_SetDirection+0xa0>)
 8000d42:	f883 2086 	strb.w	r2, [r3, #134]	@ 0x86
 8000d46:	e003      	b.n	8000d50 <LocalBB_SetDirection+0x60>
    } else {
        g_local_bb.expected_next_floor = current;
 8000d48:	4a11      	ldr	r2, [pc, #68]	@ (8000d90 <LocalBB_SetDirection+0xa0>)
 8000d4a:	79bb      	ldrb	r3, [r7, #6]
 8000d4c:	f882 3086 	strb.w	r3, [r2, #134]	@ 0x86
    }
    
    PushEvent(LOCAL_EVENT_DIRECTION_SET, dir, current, target);
 8000d50:	797b      	ldrb	r3, [r7, #5]
 8000d52:	79ba      	ldrb	r2, [r7, #6]
 8000d54:	79f9      	ldrb	r1, [r7, #7]
 8000d56:	2003      	movs	r0, #3
 8000d58:	f7ff fe48 	bl	80009ec <PushEvent>
    printf("[LocalBB] Direction set: %s, %d->%d, expect %d\r\n", 
 8000d5c:	79fb      	ldrb	r3, [r7, #7]
 8000d5e:	2b01      	cmp	r3, #1
 8000d60:	d006      	beq.n	8000d70 <LocalBB_SetDirection+0x80>
           dir == DIR_UP ? "UP" : dir == DIR_DOWN ? "DOWN" : "STOP",
 8000d62:	79fb      	ldrb	r3, [r7, #7]
 8000d64:	2b02      	cmp	r3, #2
 8000d66:	d101      	bne.n	8000d6c <LocalBB_SetDirection+0x7c>
 8000d68:	490a      	ldr	r1, [pc, #40]	@ (8000d94 <LocalBB_SetDirection+0xa4>)
 8000d6a:	e002      	b.n	8000d72 <LocalBB_SetDirection+0x82>
 8000d6c:	490a      	ldr	r1, [pc, #40]	@ (8000d98 <LocalBB_SetDirection+0xa8>)
 8000d6e:	e000      	b.n	8000d72 <LocalBB_SetDirection+0x82>
    printf("[LocalBB] Direction set: %s, %d->%d, expect %d\r\n", 
 8000d70:	490a      	ldr	r1, [pc, #40]	@ (8000d9c <LocalBB_SetDirection+0xac>)
 8000d72:	79ba      	ldrb	r2, [r7, #6]
 8000d74:	797b      	ldrb	r3, [r7, #5]
           current, target, g_local_bb.expected_next_floor);
 8000d76:	4806      	ldr	r0, [pc, #24]	@ (8000d90 <LocalBB_SetDirection+0xa0>)
 8000d78:	f890 0086 	ldrb.w	r0, [r0, #134]	@ 0x86
 8000d7c:	b2c0      	uxtb	r0, r0
    printf("[LocalBB] Direction set: %s, %d->%d, expect %d\r\n", 
 8000d7e:	9000      	str	r0, [sp, #0]
 8000d80:	4807      	ldr	r0, [pc, #28]	@ (8000da0 <LocalBB_SetDirection+0xb0>)
 8000d82:	f005 f89d 	bl	8005ec0 <iprintf>
}
 8000d86:	bf00      	nop
 8000d88:	3708      	adds	r7, #8
 8000d8a:	46bd      	mov	sp, r7
 8000d8c:	bd80      	pop	{r7, pc}
 8000d8e:	bf00      	nop
 8000d90:	200000a8 	.word	0x200000a8
 8000d94:	0800714c 	.word	0x0800714c
 8000d98:	08007154 	.word	0x08007154
 8000d9c:	0800715c 	.word	0x0800715c
 8000da0:	08007160 	.word	0x08007160

08000da4 <LocalBB_AddDoorCommand>:

void LocalBB_AddDoorCommand(bool open) {
 8000da4:	b580      	push	{r7, lr}
 8000da6:	b082      	sub	sp, #8
 8000da8:	af00      	add	r7, sp, #0
 8000daa:	4603      	mov	r3, r0
 8000dac:	71fb      	strb	r3, [r7, #7]
    PushEvent(LOCAL_EVENT_DOOR_CMD, open ? 1 : 0, 0, 0);
 8000dae:	79fb      	ldrb	r3, [r7, #7]
 8000db0:	4619      	mov	r1, r3
 8000db2:	2300      	movs	r3, #0
 8000db4:	2200      	movs	r2, #0
 8000db6:	2004      	movs	r0, #4
 8000db8:	f7ff fe18 	bl	80009ec <PushEvent>
    g_local_bb.door_state = open ? LOCAL_DOOR_OPENING : LOCAL_DOOR_CLOSING;
 8000dbc:	79fb      	ldrb	r3, [r7, #7]
 8000dbe:	2b00      	cmp	r3, #0
 8000dc0:	d001      	beq.n	8000dc6 <LocalBB_AddDoorCommand+0x22>
 8000dc2:	2201      	movs	r2, #1
 8000dc4:	e000      	b.n	8000dc8 <LocalBB_AddDoorCommand+0x24>
 8000dc6:	2203      	movs	r2, #3
 8000dc8:	4b0b      	ldr	r3, [pc, #44]	@ (8000df8 <LocalBB_AddDoorCommand+0x54>)
 8000dca:	f883 2087 	strb.w	r2, [r3, #135]	@ 0x87
    g_local_bb.door_cmd_time = HAL_GetTick();
 8000dce:	f002 fc9f 	bl	8003710 <HAL_GetTick>
 8000dd2:	4603      	mov	r3, r0
 8000dd4:	4a08      	ldr	r2, [pc, #32]	@ (8000df8 <LocalBB_AddDoorCommand+0x54>)
 8000dd6:	f8c2 3088 	str.w	r3, [r2, #136]	@ 0x88
    printf("[LocalBB] Door command queued: %s\r\n", open ? "OPEN" : "CLOSE");
 8000dda:	79fb      	ldrb	r3, [r7, #7]
 8000ddc:	2b00      	cmp	r3, #0
 8000dde:	d001      	beq.n	8000de4 <LocalBB_AddDoorCommand+0x40>
 8000de0:	4b06      	ldr	r3, [pc, #24]	@ (8000dfc <LocalBB_AddDoorCommand+0x58>)
 8000de2:	e000      	b.n	8000de6 <LocalBB_AddDoorCommand+0x42>
 8000de4:	4b06      	ldr	r3, [pc, #24]	@ (8000e00 <LocalBB_AddDoorCommand+0x5c>)
 8000de6:	4619      	mov	r1, r3
 8000de8:	4806      	ldr	r0, [pc, #24]	@ (8000e04 <LocalBB_AddDoorCommand+0x60>)
 8000dea:	f005 f869 	bl	8005ec0 <iprintf>
}
 8000dee:	bf00      	nop
 8000df0:	3708      	adds	r7, #8
 8000df2:	46bd      	mov	sp, r7
 8000df4:	bd80      	pop	{r7, pc}
 8000df6:	bf00      	nop
 8000df8:	200000a8 	.word	0x200000a8
 8000dfc:	08007194 	.word	0x08007194
 8000e00:	0800719c 	.word	0x0800719c
 8000e04:	080071a4 	.word	0x080071a4

08000e08 <LocalBB_Process>:

/* ==================== 事件处理主函数 ==================== */

void LocalBB_Process(void) {
 8000e08:	b580      	push	{r7, lr}
 8000e0a:	b088      	sub	sp, #32
 8000e0c:	af02      	add	r7, sp, #8
    LocalEvent_t event;
    uint32_t current_time = HAL_GetTick();
 8000e0e:	f002 fc7f 	bl	8003710 <HAL_GetTick>
 8000e12:	6178      	str	r0, [r7, #20]
    
    while (PopEvent(&event)) {
 8000e14:	e08e      	b.n	8000f34 <LocalBB_Process+0x12c>
        switch (event.type) {
 8000e16:	7b3b      	ldrb	r3, [r7, #12]
 8000e18:	3b01      	subs	r3, #1
 8000e1a:	2b03      	cmp	r3, #3
 8000e1c:	f200 8087 	bhi.w	8000f2e <LocalBB_Process+0x126>
 8000e20:	a201      	add	r2, pc, #4	@ (adr r2, 8000e28 <LocalBB_Process+0x20>)
 8000e22:	f852 f023 	ldr.w	pc, [r2, r3, lsl #2]
 8000e26:	bf00      	nop
 8000e28:	08000e39 	.word	0x08000e39
 8000e2c:	08000e7f 	.word	0x08000e7f
 8000e30:	08000edd 	.word	0x08000edd
 8000e34:	08000f07 	.word	0x08000f07
                /* 内呼总是发送，让Master决定如何处理 */
                /* 同层按钮需要立即响应，不能被防重复机制阻止 */
                {
                    /* 发送内呼命令 */
                    uint8_t tx_buffer[4];
                    tx_buffer[0] = CMD_CABIN_CALL;
 8000e38:	2331      	movs	r3, #49	@ 0x31
 8000e3a:	723b      	strb	r3, [r7, #8]
                    tx_buffer[1] = event.data1;  // 楼层
 8000e3c:	7b7b      	ldrb	r3, [r7, #13]
 8000e3e:	727b      	strb	r3, [r7, #9]
                    tx_buffer[2] = 0;
 8000e40:	2300      	movs	r3, #0
 8000e42:	72bb      	strb	r3, [r7, #10]
                    tx_buffer[3] = 0;
 8000e44:	2300      	movs	r3, #0
 8000e46:	72fb      	strb	r3, [r7, #11]
                    
                    rs485_send_packet_dma(tx_buffer, 4);
 8000e48:	f107 0308 	add.w	r3, r7, #8
 8000e4c:	2104      	movs	r1, #4
 8000e4e:	4618      	mov	r0, r3
 8000e50:	f000 f956 	bl	8001100 <rs485_send_packet_dma>
                    g_local_bb.rs485_send_count++;
 8000e54:	4b3e      	ldr	r3, [pc, #248]	@ (8000f50 <LocalBB_Process+0x148>)
 8000e56:	f8d3 30a4 	ldr.w	r3, [r3, #164]	@ 0xa4
 8000e5a:	3301      	adds	r3, #1
 8000e5c:	4a3c      	ldr	r2, [pc, #240]	@ (8000f50 <LocalBB_Process+0x148>)
 8000e5e:	f8c2 30a4 	str.w	r3, [r2, #164]	@ 0xa4
                    
                    g_local_bb.last_sent_cabin_call = event.data1;
 8000e62:	7b7a      	ldrb	r2, [r7, #13]
 8000e64:	4b3a      	ldr	r3, [pc, #232]	@ (8000f50 <LocalBB_Process+0x148>)
 8000e66:	f883 208c 	strb.w	r2, [r3, #140]	@ 0x8c
                    g_local_bb.last_cabin_call_time = current_time;
 8000e6a:	4a39      	ldr	r2, [pc, #228]	@ (8000f50 <LocalBB_Process+0x148>)
 8000e6c:	697b      	ldr	r3, [r7, #20]
 8000e6e:	f8c2 3090 	str.w	r3, [r2, #144]	@ 0x90
                    
                    printf("[LocalBB] RS485 TX: Cabin call floor %d\r\n", event.data1);
 8000e72:	7b7b      	ldrb	r3, [r7, #13]
 8000e74:	4619      	mov	r1, r3
 8000e76:	4837      	ldr	r0, [pc, #220]	@ (8000f54 <LocalBB_Process+0x14c>)
 8000e78:	f005 f822 	bl	8005ec0 <iprintf>
                }
                break;
 8000e7c:	e05a      	b.n	8000f34 <LocalBB_Process+0x12c>
                
            case LOCAL_EVENT_PHOTO_SENSOR:
                /* 智能判断是否需要发送 */
                if (event.data1 != g_local_bb.last_sent_photo_floor ||
 8000e7e:	7b7a      	ldrb	r2, [r7, #13]
 8000e80:	4b33      	ldr	r3, [pc, #204]	@ (8000f50 <LocalBB_Process+0x148>)
 8000e82:	f893 3094 	ldrb.w	r3, [r3, #148]	@ 0x94
 8000e86:	429a      	cmp	r2, r3
 8000e88:	d106      	bne.n	8000e98 <LocalBB_Process+0x90>
                    (current_time - g_local_bb.last_photo_send_time) > 200) {  // 光电允许更快
 8000e8a:	4b31      	ldr	r3, [pc, #196]	@ (8000f50 <LocalBB_Process+0x148>)
 8000e8c:	f8d3 3098 	ldr.w	r3, [r3, #152]	@ 0x98
 8000e90:	697a      	ldr	r2, [r7, #20]
 8000e92:	1ad3      	subs	r3, r2, r3
                if (event.data1 != g_local_bb.last_sent_photo_floor ||
 8000e94:	2bc8      	cmp	r3, #200	@ 0xc8
 8000e96:	d94c      	bls.n	8000f32 <LocalBB_Process+0x12a>
                    
                    /* 发送光电传感器触发 */
                    uint8_t tx_buffer[4];
                    tx_buffer[0] = CMD_PHOTO_SENSOR;
 8000e98:	2310      	movs	r3, #16
 8000e9a:	713b      	strb	r3, [r7, #4]
                    tx_buffer[1] = event.data1;  // 楼层
 8000e9c:	7b7b      	ldrb	r3, [r7, #13]
 8000e9e:	717b      	strb	r3, [r7, #5]
                    tx_buffer[2] = 0;
 8000ea0:	2300      	movs	r3, #0
 8000ea2:	71bb      	strb	r3, [r7, #6]
                    tx_buffer[3] = 0;
 8000ea4:	2300      	movs	r3, #0
 8000ea6:	71fb      	strb	r3, [r7, #7]
                    
                    rs485_send_packet_dma(tx_buffer, 4);
 8000ea8:	1d3b      	adds	r3, r7, #4
 8000eaa:	2104      	movs	r1, #4
 8000eac:	4618      	mov	r0, r3
 8000eae:	f000 f927 	bl	8001100 <rs485_send_packet_dma>
                    g_local_bb.rs485_send_count++;
 8000eb2:	4b27      	ldr	r3, [pc, #156]	@ (8000f50 <LocalBB_Process+0x148>)
 8000eb4:	f8d3 30a4 	ldr.w	r3, [r3, #164]	@ 0xa4
 8000eb8:	3301      	adds	r3, #1
 8000eba:	4a25      	ldr	r2, [pc, #148]	@ (8000f50 <LocalBB_Process+0x148>)
 8000ebc:	f8c2 30a4 	str.w	r3, [r2, #164]	@ 0xa4
                    
                    g_local_bb.last_sent_photo_floor = event.data1;
 8000ec0:	7b7a      	ldrb	r2, [r7, #13]
 8000ec2:	4b23      	ldr	r3, [pc, #140]	@ (8000f50 <LocalBB_Process+0x148>)
 8000ec4:	f883 2094 	strb.w	r2, [r3, #148]	@ 0x94
                    g_local_bb.last_photo_send_time = current_time;
 8000ec8:	4a21      	ldr	r2, [pc, #132]	@ (8000f50 <LocalBB_Process+0x148>)
 8000eca:	697b      	ldr	r3, [r7, #20]
 8000ecc:	f8c2 3098 	str.w	r3, [r2, #152]	@ 0x98
                    
                    printf("[LocalBB] RS485 TX: Photo sensor floor %d\r\n", event.data1);
 8000ed0:	7b7b      	ldrb	r3, [r7, #13]
 8000ed2:	4619      	mov	r1, r3
 8000ed4:	4820      	ldr	r0, [pc, #128]	@ (8000f58 <LocalBB_Process+0x150>)
 8000ed6:	f004 fff3 	bl	8005ec0 <iprintf>
                }
                break;
 8000eda:	e02a      	b.n	8000f32 <LocalBB_Process+0x12a>
                
            case LOCAL_EVENT_DIRECTION_SET:
                /* 方向设置只更新内部状态，不需要回传 */
                sprintf(g_local_bb.debug_msg, "Dir:%s F%d->%d", 
                        event.data1 == DIR_UP ? "UP" : 
 8000edc:	7b7b      	ldrb	r3, [r7, #13]
                sprintf(g_local_bb.debug_msg, "Dir:%s F%d->%d", 
 8000ede:	2b01      	cmp	r3, #1
 8000ee0:	d006      	beq.n	8000ef0 <LocalBB_Process+0xe8>
                        event.data1 == DIR_DOWN ? "DN" : "ST",
 8000ee2:	7b7b      	ldrb	r3, [r7, #13]
 8000ee4:	2b02      	cmp	r3, #2
 8000ee6:	d101      	bne.n	8000eec <LocalBB_Process+0xe4>
 8000ee8:	4a1c      	ldr	r2, [pc, #112]	@ (8000f5c <LocalBB_Process+0x154>)
 8000eea:	e002      	b.n	8000ef2 <LocalBB_Process+0xea>
 8000eec:	4a1c      	ldr	r2, [pc, #112]	@ (8000f60 <LocalBB_Process+0x158>)
 8000eee:	e000      	b.n	8000ef2 <LocalBB_Process+0xea>
                sprintf(g_local_bb.debug_msg, "Dir:%s F%d->%d", 
 8000ef0:	4a1c      	ldr	r2, [pc, #112]	@ (8000f64 <LocalBB_Process+0x15c>)
                        event.data2, event.data3);
 8000ef2:	7bbb      	ldrb	r3, [r7, #14]
                sprintf(g_local_bb.debug_msg, "Dir:%s F%d->%d", 
 8000ef4:	4619      	mov	r1, r3
                        event.data2, event.data3);
 8000ef6:	7bfb      	ldrb	r3, [r7, #15]
                sprintf(g_local_bb.debug_msg, "Dir:%s F%d->%d", 
 8000ef8:	9300      	str	r3, [sp, #0]
 8000efa:	460b      	mov	r3, r1
 8000efc:	491a      	ldr	r1, [pc, #104]	@ (8000f68 <LocalBB_Process+0x160>)
 8000efe:	481b      	ldr	r0, [pc, #108]	@ (8000f6c <LocalBB_Process+0x164>)
 8000f00:	f005 f84e 	bl	8005fa0 <siprintf>
                break;
 8000f04:	e016      	b.n	8000f34 <LocalBB_Process+0x12c>
                
            case LOCAL_EVENT_DOOR_CMD:
                /* 设置门控命令 */
                pending_door_cmd = event.data1 ? DOOR_CMD_OPEN : DOOR_CMD_CLOSE;
 8000f06:	7b7b      	ldrb	r3, [r7, #13]
 8000f08:	2b00      	cmp	r3, #0
 8000f0a:	d001      	beq.n	8000f10 <LocalBB_Process+0x108>
 8000f0c:	2201      	movs	r2, #1
 8000f0e:	e000      	b.n	8000f12 <LocalBB_Process+0x10a>
 8000f10:	2202      	movs	r2, #2
 8000f12:	4b17      	ldr	r3, [pc, #92]	@ (8000f70 <LocalBB_Process+0x168>)
 8000f14:	701a      	strb	r2, [r3, #0]
                printf("[LocalBB] Door command ready: %s\r\n", 
                       pending_door_cmd == DOOR_CMD_OPEN ? "OPEN" : "CLOSE");
 8000f16:	4b16      	ldr	r3, [pc, #88]	@ (8000f70 <LocalBB_Process+0x168>)
 8000f18:	781b      	ldrb	r3, [r3, #0]
                printf("[LocalBB] Door command ready: %s\r\n", 
 8000f1a:	2b01      	cmp	r3, #1
 8000f1c:	d101      	bne.n	8000f22 <LocalBB_Process+0x11a>
 8000f1e:	4b15      	ldr	r3, [pc, #84]	@ (8000f74 <LocalBB_Process+0x16c>)
 8000f20:	e000      	b.n	8000f24 <LocalBB_Process+0x11c>
 8000f22:	4b15      	ldr	r3, [pc, #84]	@ (8000f78 <LocalBB_Process+0x170>)
 8000f24:	4619      	mov	r1, r3
 8000f26:	4815      	ldr	r0, [pc, #84]	@ (8000f7c <LocalBB_Process+0x174>)
 8000f28:	f004 ffca 	bl	8005ec0 <iprintf>
                break;
 8000f2c:	e002      	b.n	8000f34 <LocalBB_Process+0x12c>
                
            default:
                break;
 8000f2e:	bf00      	nop
 8000f30:	e000      	b.n	8000f34 <LocalBB_Process+0x12c>
                break;
 8000f32:	bf00      	nop
    while (PopEvent(&event)) {
 8000f34:	f107 030c 	add.w	r3, r7, #12
 8000f38:	4618      	mov	r0, r3
 8000f3a:	f7ff fdd1 	bl	8000ae0 <PopEvent>
 8000f3e:	4603      	mov	r3, r0
 8000f40:	2b00      	cmp	r3, #0
 8000f42:	f47f af68 	bne.w	8000e16 <LocalBB_Process+0xe>
        }
    }
}
 8000f46:	bf00      	nop
 8000f48:	bf00      	nop
 8000f4a:	3718      	adds	r7, #24
 8000f4c:	46bd      	mov	sp, r7
 8000f4e:	bd80      	pop	{r7, pc}
 8000f50:	200000a8 	.word	0x200000a8
 8000f54:	080071c8 	.word	0x080071c8
 8000f58:	080071f4 	.word	0x080071f4
 8000f5c:	08007220 	.word	0x08007220
 8000f60:	08007224 	.word	0x08007224
 8000f64:	0800715c 	.word	0x0800715c
 8000f68:	08007228 	.word	0x08007228
 8000f6c:	20000150 	.word	0x20000150
 8000f70:	20000170 	.word	0x20000170
 8000f74:	08007194 	.word	0x08007194
 8000f78:	0800719c 	.word	0x0800719c
 8000f7c:	08007238 	.word	0x08007238

08000f80 <LocalBB_PrintStatus>:
    return g_local_bb.direction;
}

/* ==================== 调试输出 ==================== */

void LocalBB_PrintStatus(void) {
 8000f80:	b580      	push	{r7, lr}
 8000f82:	af00      	add	r7, sp, #0
    printf("\r\n=== LocalBB Status ===\r\n");
 8000f84:	4822      	ldr	r0, [pc, #136]	@ (8001010 <LocalBB_PrintStatus+0x90>)
 8000f86:	f005 f803 	bl	8005f90 <puts>
    printf("Floor: %d (expect: %d)\r\n", 
           g_local_bb.current_floor, g_local_bb.expected_next_floor);
 8000f8a:	4b22      	ldr	r3, [pc, #136]	@ (8001014 <LocalBB_PrintStatus+0x94>)
 8000f8c:	f893 3083 	ldrb.w	r3, [r3, #131]	@ 0x83
 8000f90:	b2db      	uxtb	r3, r3
    printf("Floor: %d (expect: %d)\r\n", 
 8000f92:	4619      	mov	r1, r3
           g_local_bb.current_floor, g_local_bb.expected_next_floor);
 8000f94:	4b1f      	ldr	r3, [pc, #124]	@ (8001014 <LocalBB_PrintStatus+0x94>)
 8000f96:	f893 3086 	ldrb.w	r3, [r3, #134]	@ 0x86
 8000f9a:	b2db      	uxtb	r3, r3
    printf("Floor: %d (expect: %d)\r\n", 
 8000f9c:	461a      	mov	r2, r3
 8000f9e:	481e      	ldr	r0, [pc, #120]	@ (8001018 <LocalBB_PrintStatus+0x98>)
 8000fa0:	f004 ff8e 	bl	8005ec0 <iprintf>
    printf("Direction: %s, Target: %d\r\n",
           g_local_bb.direction == DIR_UP ? "UP" : 
 8000fa4:	4b1b      	ldr	r3, [pc, #108]	@ (8001014 <LocalBB_PrintStatus+0x94>)
 8000fa6:	f893 3085 	ldrb.w	r3, [r3, #133]	@ 0x85
 8000faa:	b2db      	uxtb	r3, r3
    printf("Direction: %s, Target: %d\r\n",
 8000fac:	2b01      	cmp	r3, #1
 8000fae:	d009      	beq.n	8000fc4 <LocalBB_PrintStatus+0x44>
           g_local_bb.direction == DIR_DOWN ? "DOWN" : "STOP",
 8000fb0:	4b18      	ldr	r3, [pc, #96]	@ (8001014 <LocalBB_PrintStatus+0x94>)
 8000fb2:	f893 3085 	ldrb.w	r3, [r3, #133]	@ 0x85
 8000fb6:	b2db      	uxtb	r3, r3
 8000fb8:	2b02      	cmp	r3, #2
 8000fba:	d101      	bne.n	8000fc0 <LocalBB_PrintStatus+0x40>
 8000fbc:	4b17      	ldr	r3, [pc, #92]	@ (800101c <LocalBB_PrintStatus+0x9c>)
 8000fbe:	e002      	b.n	8000fc6 <LocalBB_PrintStatus+0x46>
 8000fc0:	4b17      	ldr	r3, [pc, #92]	@ (8001020 <LocalBB_PrintStatus+0xa0>)
 8000fc2:	e000      	b.n	8000fc6 <LocalBB_PrintStatus+0x46>
    printf("Direction: %s, Target: %d\r\n",
 8000fc4:	4b17      	ldr	r3, [pc, #92]	@ (8001024 <LocalBB_PrintStatus+0xa4>)
           g_local_bb.target_floor);
 8000fc6:	4a13      	ldr	r2, [pc, #76]	@ (8001014 <LocalBB_PrintStatus+0x94>)
 8000fc8:	f892 2084 	ldrb.w	r2, [r2, #132]	@ 0x84
 8000fcc:	b2d2      	uxtb	r2, r2
    printf("Direction: %s, Target: %d\r\n",
 8000fce:	4619      	mov	r1, r3
 8000fd0:	4815      	ldr	r0, [pc, #84]	@ (8001028 <LocalBB_PrintStatus+0xa8>)
 8000fd2:	f004 ff75 	bl	8005ec0 <iprintf>
    printf("Events: %d in queue\r\n", g_local_bb.event_count);
 8000fd6:	4b0f      	ldr	r3, [pc, #60]	@ (8001014 <LocalBB_PrintStatus+0x94>)
 8000fd8:	f893 3082 	ldrb.w	r3, [r3, #130]	@ 0x82
 8000fdc:	b2db      	uxtb	r3, r3
 8000fde:	4619      	mov	r1, r3
 8000fe0:	4812      	ldr	r0, [pc, #72]	@ (800102c <LocalBB_PrintStatus+0xac>)
 8000fe2:	f004 ff6d 	bl	8005ec0 <iprintf>
    printf("Stats: Cabin=%lu, Photo=%lu, RS485=%lu\r\n",
 8000fe6:	4b0b      	ldr	r3, [pc, #44]	@ (8001014 <LocalBB_PrintStatus+0x94>)
 8000fe8:	f8d3 109c 	ldr.w	r1, [r3, #156]	@ 0x9c
 8000fec:	4b09      	ldr	r3, [pc, #36]	@ (8001014 <LocalBB_PrintStatus+0x94>)
 8000fee:	f8d3 20a0 	ldr.w	r2, [r3, #160]	@ 0xa0
 8000ff2:	4b08      	ldr	r3, [pc, #32]	@ (8001014 <LocalBB_PrintStatus+0x94>)
 8000ff4:	f8d3 30a4 	ldr.w	r3, [r3, #164]	@ 0xa4
 8000ff8:	480d      	ldr	r0, [pc, #52]	@ (8001030 <LocalBB_PrintStatus+0xb0>)
 8000ffa:	f004 ff61 	bl	8005ec0 <iprintf>
           g_local_bb.cabin_call_count,
           g_local_bb.photo_trigger_count,
           g_local_bb.rs485_send_count);
    printf("Debug: %s\r\n", g_local_bb.debug_msg);
 8000ffe:	490d      	ldr	r1, [pc, #52]	@ (8001034 <LocalBB_PrintStatus+0xb4>)
 8001000:	480d      	ldr	r0, [pc, #52]	@ (8001038 <LocalBB_PrintStatus+0xb8>)
 8001002:	f004 ff5d 	bl	8005ec0 <iprintf>
    printf("======================\r\n");
 8001006:	480d      	ldr	r0, [pc, #52]	@ (800103c <LocalBB_PrintStatus+0xbc>)
 8001008:	f004 ffc2 	bl	8005f90 <puts>
}
 800100c:	bf00      	nop
 800100e:	bd80      	pop	{r7, pc}
 8001010:	0800725c 	.word	0x0800725c
 8001014:	200000a8 	.word	0x200000a8
 8001018:	08007278 	.word	0x08007278
 800101c:	0800714c 	.word	0x0800714c
 8001020:	08007154 	.word	0x08007154
 8001024:	0800715c 	.word	0x0800715c
 8001028:	08007294 	.word	0x08007294
 800102c:	080072b0 	.word	0x080072b0
 8001030:	080072c8 	.word	0x080072c8
 8001034:	20000150 	.word	0x20000150
 8001038:	080072f4 	.word	0x080072f4
 800103c:	08007300 	.word	0x08007300

08001040 <LocalBB_GetDoorCommand>:

/* ==================== 门控命令接口 ==================== */

LocalBB_DoorCommand_t LocalBB_GetDoorCommand(void) {
 8001040:	b480      	push	{r7}
 8001042:	af00      	add	r7, sp, #0
    return pending_door_cmd;
 8001044:	4b02      	ldr	r3, [pc, #8]	@ (8001050 <LocalBB_GetDoorCommand+0x10>)
 8001046:	781b      	ldrb	r3, [r3, #0]
}
 8001048:	4618      	mov	r0, r3
 800104a:	46bd      	mov	sp, r7
 800104c:	bc80      	pop	{r7}
 800104e:	4770      	bx	lr
 8001050:	20000170 	.word	0x20000170

08001054 <LocalBB_ClearDoorCommand>:

void LocalBB_ClearDoorCommand(void) {
 8001054:	b480      	push	{r7}
 8001056:	af00      	add	r7, sp, #0
    pending_door_cmd = DOOR_CMD_NONE;
 8001058:	4b03      	ldr	r3, [pc, #12]	@ (8001068 <LocalBB_ClearDoorCommand+0x14>)
 800105a:	2200      	movs	r2, #0
 800105c:	701a      	strb	r2, [r3, #0]
}
 800105e:	bf00      	nop
 8001060:	46bd      	mov	sp, r7
 8001062:	bc80      	pop	{r7}
 8001064:	4770      	bx	lr
 8001066:	bf00      	nop
 8001068:	20000170 	.word	0x20000170

0800106c <rs485_init>:

/**
 * @brief Initialize RS485 driver
 */
rs485_status_t rs485_init(void)
{
 800106c:	b580      	push	{r7, lr}
 800106e:	af00      	add	r7, sp, #0
    /* Clear driver structure */
    memset(&rs485_driver, 0, sizeof(rs485_driver));
 8001070:	2248      	movs	r2, #72	@ 0x48
 8001072:	2100      	movs	r1, #0
 8001074:	481b      	ldr	r0, [pc, #108]	@ (80010e4 <rs485_init+0x78>)
 8001076:	f005 f88d 	bl	8006194 <memset>
    
    /* Set buffer pointers */
    rs485_driver.dma_rx_buffer = rs485_dma_rx_buffer;
 800107a:	4b1a      	ldr	r3, [pc, #104]	@ (80010e4 <rs485_init+0x78>)
 800107c:	4a1a      	ldr	r2, [pc, #104]	@ (80010e8 <rs485_init+0x7c>)
 800107e:	605a      	str	r2, [r3, #4]
    rs485_driver.rx_buffer = rs485_rx_ring_buffer;
 8001080:	4b18      	ldr	r3, [pc, #96]	@ (80010e4 <rs485_init+0x78>)
 8001082:	4a1a      	ldr	r2, [pc, #104]	@ (80010ec <rs485_init+0x80>)
 8001084:	609a      	str	r2, [r3, #8]
    rs485_driver.tx_buffer = rs485_tx_ring_buffer;
 8001086:	4b17      	ldr	r3, [pc, #92]	@ (80010e4 <rs485_init+0x78>)
 8001088:	4a19      	ldr	r2, [pc, #100]	@ (80010f0 <rs485_init+0x84>)
 800108a:	60da      	str	r2, [r3, #12]
    
    /* Initialize ring buffers */
    ring_buffer_init(&rs485_driver.rx_ring, rs485_rx_ring_buffer, RS485_RX_BUFFER_SIZE);
 800108c:	f44f 7200 	mov.w	r2, #512	@ 0x200
 8001090:	4916      	ldr	r1, [pc, #88]	@ (80010ec <rs485_init+0x80>)
 8001092:	4818      	ldr	r0, [pc, #96]	@ (80010f4 <rs485_init+0x88>)
 8001094:	f000 f90a 	bl	80012ac <ring_buffer_init>
    ring_buffer_init(&rs485_driver.tx_ring, rs485_tx_ring_buffer, RS485_TX_BUFFER_SIZE);
 8001098:	f44f 7200 	mov.w	r2, #512	@ 0x200
 800109c:	4914      	ldr	r1, [pc, #80]	@ (80010f0 <rs485_init+0x84>)
 800109e:	4816      	ldr	r0, [pc, #88]	@ (80010f8 <rs485_init+0x8c>)
 80010a0:	f000 f904 	bl	80012ac <ring_buffer_init>
    
    /* Set UART handle */
    rs485_driver.huart = &huart2;  /* slavemcu uses USART2 */
 80010a4:	4b0f      	ldr	r3, [pc, #60]	@ (80010e4 <rs485_init+0x78>)
 80010a6:	4a15      	ldr	r2, [pc, #84]	@ (80010fc <rs485_init+0x90>)
 80010a8:	601a      	str	r2, [r3, #0]
    
    /* Clear DMA buffer */
    memset(rs485_dma_rx_buffer, 0, RS485_DMA_RX_BUFFER_SIZE);
 80010aa:	f44f 7280 	mov.w	r2, #256	@ 0x100
 80010ae:	2100      	movs	r1, #0
 80010b0:	480d      	ldr	r0, [pc, #52]	@ (80010e8 <rs485_init+0x7c>)
 80010b2:	f005 f86f 	bl	8006194 <memset>
    
    /* Start DMA reception (already configured as circular in HAL_MspInit) */
    HAL_UART_Receive_DMA(rs485_driver.huart, rs485_dma_rx_buffer, RS485_DMA_RX_BUFFER_SIZE);
 80010b6:	4b0b      	ldr	r3, [pc, #44]	@ (80010e4 <rs485_init+0x78>)
 80010b8:	681b      	ldr	r3, [r3, #0]
 80010ba:	f44f 7280 	mov.w	r2, #256	@ 0x100
 80010be:	490a      	ldr	r1, [pc, #40]	@ (80010e8 <rs485_init+0x7c>)
 80010c0:	4618      	mov	r0, r3
 80010c2:	f003 fec1 	bl	8004e48 <HAL_UART_Receive_DMA>
    
    /* Enable IDLE interrupt */
     __HAL_UART_ENABLE_IT(rs485_driver.huart, UART_IT_IDLE);
 80010c6:	4b07      	ldr	r3, [pc, #28]	@ (80010e4 <rs485_init+0x78>)
 80010c8:	681b      	ldr	r3, [r3, #0]
 80010ca:	681b      	ldr	r3, [r3, #0]
 80010cc:	68da      	ldr	r2, [r3, #12]
 80010ce:	4b05      	ldr	r3, [pc, #20]	@ (80010e4 <rs485_init+0x78>)
 80010d0:	681b      	ldr	r3, [r3, #0]
 80010d2:	681b      	ldr	r3, [r3, #0]
 80010d4:	f042 0210 	orr.w	r2, r2, #16
 80010d8:	60da      	str	r2, [r3, #12]
    
    /* Reset statistics */
    rs485_reset_stats();
 80010da:	f000 f8db 	bl	8001294 <rs485_reset_stats>
    
    return RS485_OK;
 80010de:	2300      	movs	r3, #0
}
 80010e0:	4618      	mov	r0, r3
 80010e2:	bd80      	pop	{r7, pc}
 80010e4:	20000174 	.word	0x20000174
 80010e8:	200001bc 	.word	0x200001bc
 80010ec:	200002bc 	.word	0x200002bc
 80010f0:	200004bc 	.word	0x200004bc
 80010f4:	20000184 	.word	0x20000184
 80010f8:	20000190 	.word	0x20000190
 80010fc:	2000075c 	.word	0x2000075c

08001100 <rs485_send_packet_dma>:

/**
 * @brief Send packet via RS485 using DMA (non-blocking)
 */
rs485_status_t rs485_send_packet_dma(const uint8_t *data, uint16_t length)
{
 8001100:	b580      	push	{r7, lr}
 8001102:	b084      	sub	sp, #16
 8001104:	af00      	add	r7, sp, #0
 8001106:	6078      	str	r0, [r7, #4]
 8001108:	460b      	mov	r3, r1
 800110a:	807b      	strh	r3, [r7, #2]
    HAL_StatusTypeDef status;
    
    if (data == NULL || length == 0 || length > RS485_TX_BUFFER_SIZE) {
 800110c:	687b      	ldr	r3, [r7, #4]
 800110e:	2b00      	cmp	r3, #0
 8001110:	d006      	beq.n	8001120 <rs485_send_packet_dma+0x20>
 8001112:	887b      	ldrh	r3, [r7, #2]
 8001114:	2b00      	cmp	r3, #0
 8001116:	d003      	beq.n	8001120 <rs485_send_packet_dma+0x20>
 8001118:	887b      	ldrh	r3, [r7, #2]
 800111a:	f5b3 7f00 	cmp.w	r3, #512	@ 0x200
 800111e:	d901      	bls.n	8001124 <rs485_send_packet_dma+0x24>
        return RS485_ERROR;
 8001120:	2301      	movs	r3, #1
 8001122:	e036      	b.n	8001192 <rs485_send_packet_dma+0x92>
    }
    
    if (rs485_driver.tx_pending) {
 8001124:	4b1d      	ldr	r3, [pc, #116]	@ (800119c <rs485_send_packet_dma+0x9c>)
 8001126:	f893 3028 	ldrb.w	r3, [r3, #40]	@ 0x28
 800112a:	b2db      	uxtb	r3, r3
 800112c:	2b00      	cmp	r3, #0
 800112e:	d001      	beq.n	8001134 <rs485_send_packet_dma+0x34>
        return RS485_BUSY;
 8001130:	2302      	movs	r3, #2
 8001132:	e02e      	b.n	8001192 <rs485_send_packet_dma+0x92>
    }
    
    /* Set pending flag */
    rs485_driver.tx_pending = 1;
 8001134:	4b19      	ldr	r3, [pc, #100]	@ (800119c <rs485_send_packet_dma+0x9c>)
 8001136:	2201      	movs	r2, #1
 8001138:	f883 2028 	strb.w	r2, [r3, #40]	@ 0x28
    
    /* Copy data to TX buffer */
    memcpy(rs485_driver.tx_buffer, data, length);
 800113c:	4b17      	ldr	r3, [pc, #92]	@ (800119c <rs485_send_packet_dma+0x9c>)
 800113e:	68db      	ldr	r3, [r3, #12]
 8001140:	887a      	ldrh	r2, [r7, #2]
 8001142:	6879      	ldr	r1, [r7, #4]
 8001144:	4618      	mov	r0, r3
 8001146:	f005 f8a0 	bl	800628a <memcpy>
    
    /* Send data via DMA */
    status = HAL_UART_Transmit_DMA(rs485_driver.huart, rs485_driver.tx_buffer, length);
 800114a:	4b14      	ldr	r3, [pc, #80]	@ (800119c <rs485_send_packet_dma+0x9c>)
 800114c:	681b      	ldr	r3, [r3, #0]
 800114e:	4a13      	ldr	r2, [pc, #76]	@ (800119c <rs485_send_packet_dma+0x9c>)
 8001150:	68d1      	ldr	r1, [r2, #12]
 8001152:	887a      	ldrh	r2, [r7, #2]
 8001154:	4618      	mov	r0, r3
 8001156:	f003 fe07 	bl	8004d68 <HAL_UART_Transmit_DMA>
 800115a:	4603      	mov	r3, r0
 800115c:	73fb      	strb	r3, [r7, #15]
    
    if (status == HAL_OK) {
 800115e:	7bfb      	ldrb	r3, [r7, #15]
 8001160:	2b00      	cmp	r3, #0
 8001162:	d10c      	bne.n	800117e <rs485_send_packet_dma+0x7e>
        rs485_driver.stats.tx_packets++;
 8001164:	4b0d      	ldr	r3, [pc, #52]	@ (800119c <rs485_send_packet_dma+0x9c>)
 8001166:	6adb      	ldr	r3, [r3, #44]	@ 0x2c
 8001168:	3301      	adds	r3, #1
 800116a:	4a0c      	ldr	r2, [pc, #48]	@ (800119c <rs485_send_packet_dma+0x9c>)
 800116c:	62d3      	str	r3, [r2, #44]	@ 0x2c
        rs485_driver.stats.tx_bytes += length;
 800116e:	4b0b      	ldr	r3, [pc, #44]	@ (800119c <rs485_send_packet_dma+0x9c>)
 8001170:	6b5a      	ldr	r2, [r3, #52]	@ 0x34
 8001172:	887b      	ldrh	r3, [r7, #2]
 8001174:	4413      	add	r3, r2
 8001176:	4a09      	ldr	r2, [pc, #36]	@ (800119c <rs485_send_packet_dma+0x9c>)
 8001178:	6353      	str	r3, [r2, #52]	@ 0x34
        return RS485_OK;
 800117a:	2300      	movs	r3, #0
 800117c:	e009      	b.n	8001192 <rs485_send_packet_dma+0x92>
    } else {
        rs485_driver.stats.tx_errors++;
 800117e:	4b07      	ldr	r3, [pc, #28]	@ (800119c <rs485_send_packet_dma+0x9c>)
 8001180:	6c1b      	ldr	r3, [r3, #64]	@ 0x40
 8001182:	3301      	adds	r3, #1
 8001184:	4a05      	ldr	r2, [pc, #20]	@ (800119c <rs485_send_packet_dma+0x9c>)
 8001186:	6413      	str	r3, [r2, #64]	@ 0x40
        rs485_driver.tx_pending = 0;
 8001188:	4b04      	ldr	r3, [pc, #16]	@ (800119c <rs485_send_packet_dma+0x9c>)
 800118a:	2200      	movs	r2, #0
 800118c:	f883 2028 	strb.w	r2, [r3, #40]	@ 0x28
        return RS485_ERROR;
 8001190:	2301      	movs	r3, #1
    }
}
 8001192:	4618      	mov	r0, r3
 8001194:	3710      	adds	r7, #16
 8001196:	46bd      	mov	sp, r7
 8001198:	bd80      	pop	{r7, pc}
 800119a:	bf00      	nop
 800119c:	20000174 	.word	0x20000174

080011a0 <rs485_receive_packet>:

/**
 * @brief Receive packet from RS485
 */
uint16_t rs485_receive_packet(uint8_t *buffer, uint16_t max_length)
{
 80011a0:	b580      	push	{r7, lr}
 80011a2:	b084      	sub	sp, #16
 80011a4:	af00      	add	r7, sp, #0
 80011a6:	6078      	str	r0, [r7, #4]
 80011a8:	460b      	mov	r3, r1
 80011aa:	807b      	strh	r3, [r7, #2]
    if (buffer == NULL || max_length == 0) {
 80011ac:	687b      	ldr	r3, [r7, #4]
 80011ae:	2b00      	cmp	r3, #0
 80011b0:	d002      	beq.n	80011b8 <rs485_receive_packet+0x18>
 80011b2:	887b      	ldrh	r3, [r7, #2]
 80011b4:	2b00      	cmp	r3, #0
 80011b6:	d101      	bne.n	80011bc <rs485_receive_packet+0x1c>
        return 0;
 80011b8:	2300      	movs	r3, #0
 80011ba:	e013      	b.n	80011e4 <rs485_receive_packet+0x44>
    }
    
    /* Process any pending DMA data */
    rs485_process_dma_rx();
 80011bc:	f000 f926 	bl	800140c <rs485_process_dma_rx>
    
    /* Read from ring buffer */
    uint16_t received = ring_buffer_read(&rs485_driver.rx_ring, buffer, max_length);
 80011c0:	887b      	ldrh	r3, [r7, #2]
 80011c2:	461a      	mov	r2, r3
 80011c4:	6879      	ldr	r1, [r7, #4]
 80011c6:	4809      	ldr	r0, [pc, #36]	@ (80011ec <rs485_receive_packet+0x4c>)
 80011c8:	f000 f8c1 	bl	800134e <ring_buffer_read>
 80011cc:	4603      	mov	r3, r0
 80011ce:	81fb      	strh	r3, [r7, #14]
    
    if (received > 0) {
 80011d0:	89fb      	ldrh	r3, [r7, #14]
 80011d2:	2b00      	cmp	r3, #0
 80011d4:	d005      	beq.n	80011e2 <rs485_receive_packet+0x42>
        rs485_driver.stats.rx_bytes += received;
 80011d6:	4b06      	ldr	r3, [pc, #24]	@ (80011f0 <rs485_receive_packet+0x50>)
 80011d8:	6b9a      	ldr	r2, [r3, #56]	@ 0x38
 80011da:	89fb      	ldrh	r3, [r7, #14]
 80011dc:	4413      	add	r3, r2
 80011de:	4a04      	ldr	r2, [pc, #16]	@ (80011f0 <rs485_receive_packet+0x50>)
 80011e0:	6393      	str	r3, [r2, #56]	@ 0x38
    }
    
    return received;
 80011e2:	89fb      	ldrh	r3, [r7, #14]
}
 80011e4:	4618      	mov	r0, r3
 80011e6:	3710      	adds	r7, #16
 80011e8:	46bd      	mov	sp, r7
 80011ea:	bd80      	pop	{r7, pc}
 80011ec:	20000184 	.word	0x20000184
 80011f0:	20000174 	.word	0x20000174

080011f4 <rs485_idle_interrupt_handler>:

/**
 * @brief Handle IDLE interrupt for RS485
 */
void rs485_idle_interrupt_handler(void)
{
 80011f4:	b580      	push	{r7, lr}
 80011f6:	f5ad 7d02 	sub.w	sp, sp, #520	@ 0x208
 80011fa:	af00      	add	r7, sp, #0
    /* Clear IDLE flag */
    __HAL_UART_CLEAR_IDLEFLAG(rs485_driver.huart);
 80011fc:	2300      	movs	r3, #0
 80011fe:	f8c7 3200 	str.w	r3, [r7, #512]	@ 0x200
 8001202:	4b1c      	ldr	r3, [pc, #112]	@ (8001274 <rs485_idle_interrupt_handler+0x80>)
 8001204:	681b      	ldr	r3, [r3, #0]
 8001206:	681b      	ldr	r3, [r3, #0]
 8001208:	681b      	ldr	r3, [r3, #0]
 800120a:	f8c7 3200 	str.w	r3, [r7, #512]	@ 0x200
 800120e:	4b19      	ldr	r3, [pc, #100]	@ (8001274 <rs485_idle_interrupt_handler+0x80>)
 8001210:	681b      	ldr	r3, [r3, #0]
 8001212:	681b      	ldr	r3, [r3, #0]
 8001214:	685b      	ldr	r3, [r3, #4]
 8001216:	f8c7 3200 	str.w	r3, [r7, #512]	@ 0x200
 800121a:	f8d7 3200 	ldr.w	r3, [r7, #512]	@ 0x200
    
    /* Process received data */
    rs485_process_dma_rx();
 800121e:	f000 f8f5 	bl	800140c <rs485_process_dma_rx>
    
    rs485_driver.stats.rx_packets++;
 8001222:	4b14      	ldr	r3, [pc, #80]	@ (8001274 <rs485_idle_interrupt_handler+0x80>)
 8001224:	6b1b      	ldr	r3, [r3, #48]	@ 0x30
 8001226:	3301      	adds	r3, #1
 8001228:	4a12      	ldr	r2, [pc, #72]	@ (8001274 <rs485_idle_interrupt_handler+0x80>)
 800122a:	6313      	str	r3, [r2, #48]	@ 0x30
    
    /* Call packet callback if set */
    if (rs485_driver.packet_received_callback != NULL) {
 800122c:	4b11      	ldr	r3, [pc, #68]	@ (8001274 <rs485_idle_interrupt_handler+0x80>)
 800122e:	6c5b      	ldr	r3, [r3, #68]	@ 0x44
 8001230:	2b00      	cmp	r3, #0
 8001232:	d01a      	beq.n	800126a <rs485_idle_interrupt_handler+0x76>
        uint16_t available = ring_buffer_available(&rs485_driver.rx_ring);
 8001234:	4810      	ldr	r0, [pc, #64]	@ (8001278 <rs485_idle_interrupt_handler+0x84>)
 8001236:	f000 f8c2 	bl	80013be <ring_buffer_available>
 800123a:	4603      	mov	r3, r0
 800123c:	f8a7 3206 	strh.w	r3, [r7, #518]	@ 0x206
        if (available > 0) {
 8001240:	f8b7 3206 	ldrh.w	r3, [r7, #518]	@ 0x206
 8001244:	2b00      	cmp	r3, #0
 8001246:	d010      	beq.n	800126a <rs485_idle_interrupt_handler+0x76>
            uint8_t temp_buffer[RS485_RX_BUFFER_SIZE];
            uint16_t length = ring_buffer_read(&rs485_driver.rx_ring, temp_buffer, available);
 8001248:	f8b7 2206 	ldrh.w	r2, [r7, #518]	@ 0x206
 800124c:	463b      	mov	r3, r7
 800124e:	4619      	mov	r1, r3
 8001250:	4809      	ldr	r0, [pc, #36]	@ (8001278 <rs485_idle_interrupt_handler+0x84>)
 8001252:	f000 f87c 	bl	800134e <ring_buffer_read>
 8001256:	4603      	mov	r3, r0
 8001258:	f8a7 3204 	strh.w	r3, [r7, #516]	@ 0x204
            rs485_driver.packet_received_callback(temp_buffer, length);
 800125c:	4b05      	ldr	r3, [pc, #20]	@ (8001274 <rs485_idle_interrupt_handler+0x80>)
 800125e:	6c5b      	ldr	r3, [r3, #68]	@ 0x44
 8001260:	f8b7 1204 	ldrh.w	r1, [r7, #516]	@ 0x204
 8001264:	463a      	mov	r2, r7
 8001266:	4610      	mov	r0, r2
 8001268:	4798      	blx	r3
        }
    }
}
 800126a:	bf00      	nop
 800126c:	f507 7702 	add.w	r7, r7, #520	@ 0x208
 8001270:	46bd      	mov	sp, r7
 8001272:	bd80      	pop	{r7, pc}
 8001274:	20000174 	.word	0x20000174
 8001278:	20000184 	.word	0x20000184

0800127c <rs485_tx_complete_callback>:

/**
 * @brief TX complete callback
 */
void rs485_tx_complete_callback(void)
{
 800127c:	b480      	push	{r7}
 800127e:	af00      	add	r7, sp, #0
    /* Clear pending flag */
    rs485_driver.tx_pending = 0;
 8001280:	4b03      	ldr	r3, [pc, #12]	@ (8001290 <rs485_tx_complete_callback+0x14>)
 8001282:	2200      	movs	r2, #0
 8001284:	f883 2028 	strb.w	r2, [r3, #40]	@ 0x28
}
 8001288:	bf00      	nop
 800128a:	46bd      	mov	sp, r7
 800128c:	bc80      	pop	{r7}
 800128e:	4770      	bx	lr
 8001290:	20000174 	.word	0x20000174

08001294 <rs485_reset_stats>:

/**
 * @brief Reset RS485 statistics
 */
void rs485_reset_stats(void)
{
 8001294:	b580      	push	{r7, lr}
 8001296:	af00      	add	r7, sp, #0
    memset(&rs485_driver.stats, 0, sizeof(rs485_stats_t));
 8001298:	2218      	movs	r2, #24
 800129a:	2100      	movs	r1, #0
 800129c:	4802      	ldr	r0, [pc, #8]	@ (80012a8 <rs485_reset_stats+0x14>)
 800129e:	f004 ff79 	bl	8006194 <memset>
}
 80012a2:	bf00      	nop
 80012a4:	bd80      	pop	{r7, pc}
 80012a6:	bf00      	nop
 80012a8:	200001a0 	.word	0x200001a0

080012ac <ring_buffer_init>:

/**
 * @brief Initialize ring buffer
 */
static void ring_buffer_init(ring_buffer_t *rb, uint8_t *buffer, uint16_t size)
{
 80012ac:	b480      	push	{r7}
 80012ae:	b085      	sub	sp, #20
 80012b0:	af00      	add	r7, sp, #0
 80012b2:	60f8      	str	r0, [r7, #12]
 80012b4:	60b9      	str	r1, [r7, #8]
 80012b6:	4613      	mov	r3, r2
 80012b8:	80fb      	strh	r3, [r7, #6]
    rb->buffer = buffer;
 80012ba:	68fb      	ldr	r3, [r7, #12]
 80012bc:	68ba      	ldr	r2, [r7, #8]
 80012be:	601a      	str	r2, [r3, #0]
    rb->size = size;
 80012c0:	68fb      	ldr	r3, [r7, #12]
 80012c2:	88fa      	ldrh	r2, [r7, #6]
 80012c4:	809a      	strh	r2, [r3, #4]
    rb->head = 0;
 80012c6:	68fb      	ldr	r3, [r7, #12]
 80012c8:	2200      	movs	r2, #0
 80012ca:	80da      	strh	r2, [r3, #6]
    rb->tail = 0;
 80012cc:	68fb      	ldr	r3, [r7, #12]
 80012ce:	2200      	movs	r2, #0
 80012d0:	811a      	strh	r2, [r3, #8]
}
 80012d2:	bf00      	nop
 80012d4:	3714      	adds	r7, #20
 80012d6:	46bd      	mov	sp, r7
 80012d8:	bc80      	pop	{r7}
 80012da:	4770      	bx	lr

080012dc <ring_buffer_write>:

/**
 * @brief Write data to ring buffer
 */
static uint16_t ring_buffer_write(ring_buffer_t *rb, const uint8_t *data, uint16_t length)
{
 80012dc:	b480      	push	{r7}
 80012de:	b087      	sub	sp, #28
 80012e0:	af00      	add	r7, sp, #0
 80012e2:	60f8      	str	r0, [r7, #12]
 80012e4:	60b9      	str	r1, [r7, #8]
 80012e6:	4613      	mov	r3, r2
 80012e8:	80fb      	strh	r3, [r7, #6]
    uint16_t written = 0;
 80012ea:	2300      	movs	r3, #0
 80012ec:	82fb      	strh	r3, [r7, #22]
    
    while (written < length) {
 80012ee:	e022      	b.n	8001336 <ring_buffer_write+0x5a>
        uint16_t next_head = (rb->head + 1) % rb->size;
 80012f0:	68fb      	ldr	r3, [r7, #12]
 80012f2:	88db      	ldrh	r3, [r3, #6]
 80012f4:	b29b      	uxth	r3, r3
 80012f6:	3301      	adds	r3, #1
 80012f8:	68fa      	ldr	r2, [r7, #12]
 80012fa:	8892      	ldrh	r2, [r2, #4]
 80012fc:	fb93 f1f2 	sdiv	r1, r3, r2
 8001300:	fb01 f202 	mul.w	r2, r1, r2
 8001304:	1a9b      	subs	r3, r3, r2
 8001306:	82bb      	strh	r3, [r7, #20]
        
        /* Check if buffer is full */
        if (next_head == rb->tail) {
 8001308:	68fb      	ldr	r3, [r7, #12]
 800130a:	891b      	ldrh	r3, [r3, #8]
 800130c:	b29b      	uxth	r3, r3
 800130e:	8aba      	ldrh	r2, [r7, #20]
 8001310:	429a      	cmp	r2, r3
 8001312:	d015      	beq.n	8001340 <ring_buffer_write+0x64>
            break;  /* Buffer full */
        }
        
        rb->buffer[rb->head] = data[written];
 8001314:	8afb      	ldrh	r3, [r7, #22]
 8001316:	68ba      	ldr	r2, [r7, #8]
 8001318:	441a      	add	r2, r3
 800131a:	68fb      	ldr	r3, [r7, #12]
 800131c:	681b      	ldr	r3, [r3, #0]
 800131e:	68f9      	ldr	r1, [r7, #12]
 8001320:	88c9      	ldrh	r1, [r1, #6]
 8001322:	b289      	uxth	r1, r1
 8001324:	440b      	add	r3, r1
 8001326:	7812      	ldrb	r2, [r2, #0]
 8001328:	701a      	strb	r2, [r3, #0]
        rb->head = next_head;
 800132a:	68fb      	ldr	r3, [r7, #12]
 800132c:	8aba      	ldrh	r2, [r7, #20]
 800132e:	80da      	strh	r2, [r3, #6]
        written++;
 8001330:	8afb      	ldrh	r3, [r7, #22]
 8001332:	3301      	adds	r3, #1
 8001334:	82fb      	strh	r3, [r7, #22]
    while (written < length) {
 8001336:	8afa      	ldrh	r2, [r7, #22]
 8001338:	88fb      	ldrh	r3, [r7, #6]
 800133a:	429a      	cmp	r2, r3
 800133c:	d3d8      	bcc.n	80012f0 <ring_buffer_write+0x14>
 800133e:	e000      	b.n	8001342 <ring_buffer_write+0x66>
            break;  /* Buffer full */
 8001340:	bf00      	nop
    }
    
    return written;
 8001342:	8afb      	ldrh	r3, [r7, #22]
}
 8001344:	4618      	mov	r0, r3
 8001346:	371c      	adds	r7, #28
 8001348:	46bd      	mov	sp, r7
 800134a:	bc80      	pop	{r7}
 800134c:	4770      	bx	lr

0800134e <ring_buffer_read>:

/**
 * @brief Read data from ring buffer
 */
static uint16_t ring_buffer_read(ring_buffer_t *rb, uint8_t *data, uint16_t length)
{
 800134e:	b480      	push	{r7}
 8001350:	b087      	sub	sp, #28
 8001352:	af00      	add	r7, sp, #0
 8001354:	60f8      	str	r0, [r7, #12]
 8001356:	60b9      	str	r1, [r7, #8]
 8001358:	4613      	mov	r3, r2
 800135a:	80fb      	strh	r3, [r7, #6]
    uint16_t read = 0;
 800135c:	2300      	movs	r3, #0
 800135e:	82fb      	strh	r3, [r7, #22]
    
    while (read < length && rb->tail != rb->head) {
 8001360:	e01b      	b.n	800139a <ring_buffer_read+0x4c>
        data[read] = rb->buffer[rb->tail];
 8001362:	68fb      	ldr	r3, [r7, #12]
 8001364:	681b      	ldr	r3, [r3, #0]
 8001366:	68fa      	ldr	r2, [r7, #12]
 8001368:	8912      	ldrh	r2, [r2, #8]
 800136a:	b292      	uxth	r2, r2
 800136c:	441a      	add	r2, r3
 800136e:	8afb      	ldrh	r3, [r7, #22]
 8001370:	68b9      	ldr	r1, [r7, #8]
 8001372:	440b      	add	r3, r1
 8001374:	7812      	ldrb	r2, [r2, #0]
 8001376:	701a      	strb	r2, [r3, #0]
        rb->tail = (rb->tail + 1) % rb->size;
 8001378:	68fb      	ldr	r3, [r7, #12]
 800137a:	891b      	ldrh	r3, [r3, #8]
 800137c:	b29b      	uxth	r3, r3
 800137e:	3301      	adds	r3, #1
 8001380:	68fa      	ldr	r2, [r7, #12]
 8001382:	8892      	ldrh	r2, [r2, #4]
 8001384:	fb93 f1f2 	sdiv	r1, r3, r2
 8001388:	fb01 f202 	mul.w	r2, r1, r2
 800138c:	1a9b      	subs	r3, r3, r2
 800138e:	b29a      	uxth	r2, r3
 8001390:	68fb      	ldr	r3, [r7, #12]
 8001392:	811a      	strh	r2, [r3, #8]
        read++;
 8001394:	8afb      	ldrh	r3, [r7, #22]
 8001396:	3301      	adds	r3, #1
 8001398:	82fb      	strh	r3, [r7, #22]
    while (read < length && rb->tail != rb->head) {
 800139a:	8afa      	ldrh	r2, [r7, #22]
 800139c:	88fb      	ldrh	r3, [r7, #6]
 800139e:	429a      	cmp	r2, r3
 80013a0:	d207      	bcs.n	80013b2 <ring_buffer_read+0x64>
 80013a2:	68fb      	ldr	r3, [r7, #12]
 80013a4:	891b      	ldrh	r3, [r3, #8]
 80013a6:	b29a      	uxth	r2, r3
 80013a8:	68fb      	ldr	r3, [r7, #12]
 80013aa:	88db      	ldrh	r3, [r3, #6]
 80013ac:	b29b      	uxth	r3, r3
 80013ae:	429a      	cmp	r2, r3
 80013b0:	d1d7      	bne.n	8001362 <ring_buffer_read+0x14>
    }
    
    return read;
 80013b2:	8afb      	ldrh	r3, [r7, #22]
}
 80013b4:	4618      	mov	r0, r3
 80013b6:	371c      	adds	r7, #28
 80013b8:	46bd      	mov	sp, r7
 80013ba:	bc80      	pop	{r7}
 80013bc:	4770      	bx	lr

080013be <ring_buffer_available>:

/**
 * @brief Get available data in ring buffer
 */
static uint16_t ring_buffer_available(ring_buffer_t *rb)
{
 80013be:	b480      	push	{r7}
 80013c0:	b083      	sub	sp, #12
 80013c2:	af00      	add	r7, sp, #0
 80013c4:	6078      	str	r0, [r7, #4]
    if (rb->head >= rb->tail) {
 80013c6:	687b      	ldr	r3, [r7, #4]
 80013c8:	88db      	ldrh	r3, [r3, #6]
 80013ca:	b29a      	uxth	r2, r3
 80013cc:	687b      	ldr	r3, [r7, #4]
 80013ce:	891b      	ldrh	r3, [r3, #8]
 80013d0:	b29b      	uxth	r3, r3
 80013d2:	429a      	cmp	r2, r3
 80013d4:	d308      	bcc.n	80013e8 <ring_buffer_available+0x2a>
        return rb->head - rb->tail;
 80013d6:	687b      	ldr	r3, [r7, #4]
 80013d8:	88db      	ldrh	r3, [r3, #6]
 80013da:	b29a      	uxth	r2, r3
 80013dc:	687b      	ldr	r3, [r7, #4]
 80013de:	891b      	ldrh	r3, [r3, #8]
 80013e0:	b29b      	uxth	r3, r3
 80013e2:	1ad3      	subs	r3, r2, r3
 80013e4:	b29b      	uxth	r3, r3
 80013e6:	e00b      	b.n	8001400 <ring_buffer_available+0x42>
    } else {
        return rb->size - rb->tail + rb->head;
 80013e8:	687b      	ldr	r3, [r7, #4]
 80013ea:	889a      	ldrh	r2, [r3, #4]
 80013ec:	687b      	ldr	r3, [r7, #4]
 80013ee:	891b      	ldrh	r3, [r3, #8]
 80013f0:	b29b      	uxth	r3, r3
 80013f2:	1ad3      	subs	r3, r2, r3
 80013f4:	b29a      	uxth	r2, r3
 80013f6:	687b      	ldr	r3, [r7, #4]
 80013f8:	88db      	ldrh	r3, [r3, #6]
 80013fa:	b29b      	uxth	r3, r3
 80013fc:	4413      	add	r3, r2
 80013fe:	b29b      	uxth	r3, r3
    }
}
 8001400:	4618      	mov	r0, r3
 8001402:	370c      	adds	r7, #12
 8001404:	46bd      	mov	sp, r7
 8001406:	bc80      	pop	{r7}
 8001408:	4770      	bx	lr
	...

0800140c <rs485_process_dma_rx>:

/**
 * @brief Process DMA received data
 */
static void rs485_process_dma_rx(void)
{
 800140c:	b580      	push	{r7, lr}
 800140e:	b082      	sub	sp, #8
 8001410:	af00      	add	r7, sp, #0
    /* Get current DMA position */
    uint16_t dma_pos = RS485_DMA_RX_BUFFER_SIZE - __HAL_DMA_GET_COUNTER(rs485_driver.huart->hdmarx);
 8001412:	4b2c      	ldr	r3, [pc, #176]	@ (80014c4 <rs485_process_dma_rx+0xb8>)
 8001414:	681b      	ldr	r3, [r3, #0]
 8001416:	6bdb      	ldr	r3, [r3, #60]	@ 0x3c
 8001418:	681b      	ldr	r3, [r3, #0]
 800141a:	685b      	ldr	r3, [r3, #4]
 800141c:	b29b      	uxth	r3, r3
 800141e:	f5c3 7380 	rsb	r3, r3, #256	@ 0x100
 8001422:	80bb      	strh	r3, [r7, #4]
    
    /* Calculate received bytes */
    uint16_t length;
    if (dma_pos >= rs485_driver.last_dma_pos) {
 8001424:	4b27      	ldr	r3, [pc, #156]	@ (80014c4 <rs485_process_dma_rx+0xb8>)
 8001426:	8d5b      	ldrh	r3, [r3, #42]	@ 0x2a
 8001428:	b29b      	uxth	r3, r3
 800142a:	88ba      	ldrh	r2, [r7, #4]
 800142c:	429a      	cmp	r2, r3
 800142e:	d306      	bcc.n	800143e <rs485_process_dma_rx+0x32>
        length = dma_pos - rs485_driver.last_dma_pos;
 8001430:	4b24      	ldr	r3, [pc, #144]	@ (80014c4 <rs485_process_dma_rx+0xb8>)
 8001432:	8d5b      	ldrh	r3, [r3, #42]	@ 0x2a
 8001434:	b29b      	uxth	r3, r3
 8001436:	88ba      	ldrh	r2, [r7, #4]
 8001438:	1ad3      	subs	r3, r2, r3
 800143a:	80fb      	strh	r3, [r7, #6]
 800143c:	e008      	b.n	8001450 <rs485_process_dma_rx+0x44>
    } else {
        /* DMA wrapped around */
        length = RS485_DMA_RX_BUFFER_SIZE - rs485_driver.last_dma_pos + dma_pos;
 800143e:	4b21      	ldr	r3, [pc, #132]	@ (80014c4 <rs485_process_dma_rx+0xb8>)
 8001440:	8d5b      	ldrh	r3, [r3, #42]	@ 0x2a
 8001442:	b29b      	uxth	r3, r3
 8001444:	88ba      	ldrh	r2, [r7, #4]
 8001446:	1ad3      	subs	r3, r2, r3
 8001448:	b29b      	uxth	r3, r3
 800144a:	f503 7380 	add.w	r3, r3, #256	@ 0x100
 800144e:	80fb      	strh	r3, [r7, #6]
    }
    
    if (length > 0) {
 8001450:	88fb      	ldrh	r3, [r7, #6]
 8001452:	2b00      	cmp	r3, #0
 8001454:	d031      	beq.n	80014ba <rs485_process_dma_rx+0xae>
        /* Copy data to ring buffer */
        if (rs485_driver.last_dma_pos + length <= RS485_DMA_RX_BUFFER_SIZE) {
 8001456:	4b1b      	ldr	r3, [pc, #108]	@ (80014c4 <rs485_process_dma_rx+0xb8>)
 8001458:	8d5b      	ldrh	r3, [r3, #42]	@ 0x2a
 800145a:	b29b      	uxth	r3, r3
 800145c:	461a      	mov	r2, r3
 800145e:	88fb      	ldrh	r3, [r7, #6]
 8001460:	4413      	add	r3, r2
 8001462:	f5b3 7f80 	cmp.w	r3, #256	@ 0x100
 8001466:	dc0b      	bgt.n	8001480 <rs485_process_dma_rx+0x74>
            /* Simple copy */
            ring_buffer_write(&rs485_driver.rx_ring, 
                            &rs485_dma_rx_buffer[rs485_driver.last_dma_pos], 
 8001468:	4b16      	ldr	r3, [pc, #88]	@ (80014c4 <rs485_process_dma_rx+0xb8>)
 800146a:	8d5b      	ldrh	r3, [r3, #42]	@ 0x2a
 800146c:	b29b      	uxth	r3, r3
 800146e:	461a      	mov	r2, r3
 8001470:	4b15      	ldr	r3, [pc, #84]	@ (80014c8 <rs485_process_dma_rx+0xbc>)
 8001472:	4413      	add	r3, r2
            ring_buffer_write(&rs485_driver.rx_ring, 
 8001474:	88fa      	ldrh	r2, [r7, #6]
 8001476:	4619      	mov	r1, r3
 8001478:	4814      	ldr	r0, [pc, #80]	@ (80014cc <rs485_process_dma_rx+0xc0>)
 800147a:	f7ff ff2f 	bl	80012dc <ring_buffer_write>
 800147e:	e019      	b.n	80014b4 <rs485_process_dma_rx+0xa8>
                            length);
        } else {
            /* Wrapped copy */
            uint16_t first_part = RS485_DMA_RX_BUFFER_SIZE - rs485_driver.last_dma_pos;
 8001480:	4b10      	ldr	r3, [pc, #64]	@ (80014c4 <rs485_process_dma_rx+0xb8>)
 8001482:	8d5b      	ldrh	r3, [r3, #42]	@ 0x2a
 8001484:	b29b      	uxth	r3, r3
 8001486:	f5c3 7380 	rsb	r3, r3, #256	@ 0x100
 800148a:	807b      	strh	r3, [r7, #2]
            ring_buffer_write(&rs485_driver.rx_ring, 
                            &rs485_dma_rx_buffer[rs485_driver.last_dma_pos], 
 800148c:	4b0d      	ldr	r3, [pc, #52]	@ (80014c4 <rs485_process_dma_rx+0xb8>)
 800148e:	8d5b      	ldrh	r3, [r3, #42]	@ 0x2a
 8001490:	b29b      	uxth	r3, r3
 8001492:	461a      	mov	r2, r3
 8001494:	4b0c      	ldr	r3, [pc, #48]	@ (80014c8 <rs485_process_dma_rx+0xbc>)
 8001496:	4413      	add	r3, r2
            ring_buffer_write(&rs485_driver.rx_ring, 
 8001498:	887a      	ldrh	r2, [r7, #2]
 800149a:	4619      	mov	r1, r3
 800149c:	480b      	ldr	r0, [pc, #44]	@ (80014cc <rs485_process_dma_rx+0xc0>)
 800149e:	f7ff ff1d 	bl	80012dc <ring_buffer_write>
                            first_part);
            ring_buffer_write(&rs485_driver.rx_ring, 
 80014a2:	88fa      	ldrh	r2, [r7, #6]
 80014a4:	887b      	ldrh	r3, [r7, #2]
 80014a6:	1ad3      	subs	r3, r2, r3
 80014a8:	b29b      	uxth	r3, r3
 80014aa:	461a      	mov	r2, r3
 80014ac:	4906      	ldr	r1, [pc, #24]	@ (80014c8 <rs485_process_dma_rx+0xbc>)
 80014ae:	4807      	ldr	r0, [pc, #28]	@ (80014cc <rs485_process_dma_rx+0xc0>)
 80014b0:	f7ff ff14 	bl	80012dc <ring_buffer_write>
                            &rs485_dma_rx_buffer[0], 
                            length - first_part);
        }
        
        /* Update last position */
        rs485_driver.last_dma_pos = dma_pos;
 80014b4:	4a03      	ldr	r2, [pc, #12]	@ (80014c4 <rs485_process_dma_rx+0xb8>)
 80014b6:	88bb      	ldrh	r3, [r7, #4]
 80014b8:	8553      	strh	r3, [r2, #42]	@ 0x2a
    }
}
 80014ba:	bf00      	nop
 80014bc:	3708      	adds	r7, #8
 80014be:	46bd      	mov	sp, r7
 80014c0:	bd80      	pop	{r7, pc}
 80014c2:	bf00      	nop
 80014c4:	20000174 	.word	0x20000174
 80014c8:	200001bc 	.word	0x200001bc
 80014cc:	20000184 	.word	0x20000184

080014d0 <Keyboard_Init>:

// 全局键盘实例
Keyboard_t g_keyboard;

// 初始化键盘模块
void Keyboard_Init(void) {
 80014d0:	b580      	push	{r7, lr}
 80014d2:	af00      	add	r7, sp, #0
    // 清零结构体
    memset(&g_keyboard, 0, sizeof(Keyboard_t));
 80014d4:	2228      	movs	r2, #40	@ 0x28
 80014d6:	2100      	movs	r1, #0
 80014d8:	4811      	ldr	r0, [pc, #68]	@ (8001520 <Keyboard_Init+0x50>)
 80014da:	f004 fe5b 	bl	8006194 <memset>
    
    // 初始化变量
    g_keyboard.current_key = KEY_NONE;
 80014de:	4b10      	ldr	r3, [pc, #64]	@ (8001520 <Keyboard_Init+0x50>)
 80014e0:	2200      	movs	r2, #0
 80014e2:	701a      	strb	r2, [r3, #0]
    g_keyboard.last_key = KEY_NONE;
 80014e4:	4b0e      	ldr	r3, [pc, #56]	@ (8001520 <Keyboard_Init+0x50>)
 80014e6:	2200      	movs	r2, #0
 80014e8:	705a      	strb	r2, [r3, #1]
    g_keyboard.last_scan_time = HAL_GetTick();
 80014ea:	f002 f911 	bl	8003710 <HAL_GetTick>
 80014ee:	4603      	mov	r3, r0
 80014f0:	4a0b      	ldr	r2, [pc, #44]	@ (8001520 <Keyboard_Init+0x50>)
 80014f2:	6053      	str	r3, [r2, #4]
    g_keyboard.key_stable = false;
 80014f4:	4b0a      	ldr	r3, [pc, #40]	@ (8001520 <Keyboard_Init+0x50>)
 80014f6:	2200      	movs	r2, #0
 80014f8:	735a      	strb	r2, [r3, #13]
    g_keyboard.buffer_head = 0;
 80014fa:	4b09      	ldr	r3, [pc, #36]	@ (8001520 <Keyboard_Init+0x50>)
 80014fc:	2200      	movs	r2, #0
 80014fe:	759a      	strb	r2, [r3, #22]
    g_keyboard.buffer_tail = 0;
 8001500:	4b07      	ldr	r3, [pc, #28]	@ (8001520 <Keyboard_Init+0x50>)
 8001502:	2200      	movs	r2, #0
 8001504:	75da      	strb	r2, [r3, #23]
    g_keyboard.buffer_count = 0;
 8001506:	4b06      	ldr	r3, [pc, #24]	@ (8001520 <Keyboard_Init+0x50>)
 8001508:	2200      	movs	r2, #0
 800150a:	761a      	strb	r2, [r3, #24]
    g_keyboard.interrupt_flag = false;
 800150c:	4b04      	ldr	r3, [pc, #16]	@ (8001520 <Keyboard_Init+0x50>)
 800150e:	2200      	movs	r2, #0
 8001510:	765a      	strb	r2, [r3, #25]
    g_keyboard.interrupt_time = 0;
 8001512:	4b03      	ldr	r3, [pc, #12]	@ (8001520 <Keyboard_Init+0x50>)
 8001514:	2200      	movs	r2, #0
 8001516:	61da      	str	r2, [r3, #28]
    
    // 初始化GPIO
    Keyboard_GPIO_Init();
 8001518:	f000 fa44 	bl	80019a4 <Keyboard_GPIO_Init>
}
 800151c:	bf00      	nop
 800151e:	bd80      	pop	{r7, pc}
 8001520:	200006bc 	.word	0x200006bc

08001524 <Keyboard_Handler>:

// 主处理函数 - 中断模式
void Keyboard_Handler(void) {
 8001524:	b580      	push	{r7, lr}
 8001526:	b084      	sub	sp, #16
 8001528:	af00      	add	r7, sp, #0
    // 检查中断标志
    if (g_keyboard.interrupt_flag) {
 800152a:	4b27      	ldr	r3, [pc, #156]	@ (80015c8 <Keyboard_Handler+0xa4>)
 800152c:	7e5b      	ldrb	r3, [r3, #25]
 800152e:	b2db      	uxtb	r3, r3
 8001530:	2b00      	cmp	r3, #0
 8001532:	d034      	beq.n	800159e <Keyboard_Handler+0x7a>
        g_keyboard.interrupt_flag = false;
 8001534:	4b24      	ldr	r3, [pc, #144]	@ (80015c8 <Keyboard_Handler+0xa4>)
 8001536:	2200      	movs	r2, #0
 8001538:	765a      	strb	r2, [r3, #25]
        
        uint32_t current_time = HAL_GetTick();
 800153a:	f002 f8e9 	bl	8003710 <HAL_GetTick>
 800153e:	60f8      	str	r0, [r7, #12]
        
        // 去抖处理 - 两次按键间隔至少 KEYBOARD_DEBOUNCE_TIME
        if (current_time - g_keyboard.last_scan_time >= KEYBOARD_DEBOUNCE_TIME) {
 8001540:	4b21      	ldr	r3, [pc, #132]	@ (80015c8 <Keyboard_Handler+0xa4>)
 8001542:	685b      	ldr	r3, [r3, #4]
 8001544:	68fa      	ldr	r2, [r7, #12]
 8001546:	1ad3      	subs	r3, r2, r3
 8001548:	2b04      	cmp	r3, #4
 800154a:	d928      	bls.n	800159e <Keyboard_Handler+0x7a>
            g_keyboard.last_scan_time = current_time;
 800154c:	4a1e      	ldr	r2, [pc, #120]	@ (80015c8 <Keyboard_Handler+0xa4>)
 800154e:	68fb      	ldr	r3, [r7, #12]
 8001550:	6053      	str	r3, [r2, #4]
            
            // 不使用HAL_Delay，用极短的延时
            for(volatile int d = 0; d < 500; d++);
 8001552:	2300      	movs	r3, #0
 8001554:	603b      	str	r3, [r7, #0]
 8001556:	e002      	b.n	800155e <Keyboard_Handler+0x3a>
 8001558:	683b      	ldr	r3, [r7, #0]
 800155a:	3301      	adds	r3, #1
 800155c:	603b      	str	r3, [r7, #0]
 800155e:	683b      	ldr	r3, [r7, #0]
 8001560:	f5b3 7ffa 	cmp.w	r3, #500	@ 0x1f4
 8001564:	dbf8      	blt.n	8001558 <Keyboard_Handler+0x34>
            
            // 扫描键盘确定哪个按键被按下
            uint8_t key = Keyboard_ScanInterrupt();
 8001566:	f000 f831 	bl	80015cc <Keyboard_ScanInterrupt>
 800156a:	4603      	mov	r3, r0
 800156c:	72fb      	strb	r3, [r7, #11]
            
            // 处理按键 - 允许重复按键
            if (key != KEY_NONE) {
 800156e:	7afb      	ldrb	r3, [r7, #11]
 8001570:	2b00      	cmp	r3, #0
 8001572:	d014      	beq.n	800159e <Keyboard_Handler+0x7a>
                // 只在按键不同或超过释放时间后才处理
                if (key != g_keyboard.last_key || 
 8001574:	4b14      	ldr	r3, [pc, #80]	@ (80015c8 <Keyboard_Handler+0xa4>)
 8001576:	785b      	ldrb	r3, [r3, #1]
 8001578:	7afa      	ldrb	r2, [r7, #11]
 800157a:	429a      	cmp	r2, r3
 800157c:	d105      	bne.n	800158a <Keyboard_Handler+0x66>
                    (current_time - g_keyboard.key_press_time) > KEYBOARD_RELEASE_TIME) {
 800157e:	4b12      	ldr	r3, [pc, #72]	@ (80015c8 <Keyboard_Handler+0xa4>)
 8001580:	689b      	ldr	r3, [r3, #8]
 8001582:	68fa      	ldr	r2, [r7, #12]
 8001584:	1ad3      	subs	r3, r2, r3
                if (key != g_keyboard.last_key || 
 8001586:	2b0a      	cmp	r3, #10
 8001588:	d909      	bls.n	800159e <Keyboard_Handler+0x7a>
                    Keyboard_ProcessKey(key);
 800158a:	7afb      	ldrb	r3, [r7, #11]
 800158c:	4618      	mov	r0, r3
 800158e:	f000 f9e1 	bl	8001954 <Keyboard_ProcessKey>
                    g_keyboard.last_key = key;
 8001592:	4a0d      	ldr	r2, [pc, #52]	@ (80015c8 <Keyboard_Handler+0xa4>)
 8001594:	7afb      	ldrb	r3, [r7, #11]
 8001596:	7053      	strb	r3, [r2, #1]
                    // 只在按键被处理时更新时间
                    g_keyboard.key_press_time = current_time;
 8001598:	4a0b      	ldr	r2, [pc, #44]	@ (80015c8 <Keyboard_Handler+0xa4>)
 800159a:	68fb      	ldr	r3, [r7, #12]
 800159c:	6093      	str	r3, [r2, #8]
            }
        }
    }
    
    // 检查按键释放
    uint32_t current_time = HAL_GetTick();
 800159e:	f002 f8b7 	bl	8003710 <HAL_GetTick>
 80015a2:	6078      	str	r0, [r7, #4]
    if (g_keyboard.last_key != KEY_NONE) {
 80015a4:	4b08      	ldr	r3, [pc, #32]	@ (80015c8 <Keyboard_Handler+0xa4>)
 80015a6:	785b      	ldrb	r3, [r3, #1]
 80015a8:	2b00      	cmp	r3, #0
 80015aa:	d008      	beq.n	80015be <Keyboard_Handler+0x9a>
        if (current_time - g_keyboard.key_press_time > KEYBOARD_RELEASE_TIME) {
 80015ac:	4b06      	ldr	r3, [pc, #24]	@ (80015c8 <Keyboard_Handler+0xa4>)
 80015ae:	689b      	ldr	r3, [r3, #8]
 80015b0:	687a      	ldr	r2, [r7, #4]
 80015b2:	1ad3      	subs	r3, r2, r3
 80015b4:	2b0a      	cmp	r3, #10
 80015b6:	d902      	bls.n	80015be <Keyboard_Handler+0x9a>
            g_keyboard.last_key = KEY_NONE;
 80015b8:	4b03      	ldr	r3, [pc, #12]	@ (80015c8 <Keyboard_Handler+0xa4>)
 80015ba:	2200      	movs	r2, #0
 80015bc:	705a      	strb	r2, [r3, #1]
        }
    }
}
 80015be:	bf00      	nop
 80015c0:	3710      	adds	r7, #16
 80015c2:	46bd      	mov	sp, r7
 80015c4:	bd80      	pop	{r7, pc}
 80015c6:	bf00      	nop
 80015c8:	200006bc 	.word	0x200006bc

080015cc <Keyboard_ScanInterrupt>:
    
    return KEY_NONE;
}

// Scan keyboard when interrupt triggered
uint8_t Keyboard_ScanInterrupt(void) {
 80015cc:	b580      	push	{r7, lr}
 80015ce:	b090      	sub	sp, #64	@ 0x40
 80015d0:	af00      	add	r7, sp, #0
    uint8_t key = KEY_NONE;
 80015d2:	2300      	movs	r3, #0
 80015d4:	f887 303f 	strb.w	r3, [r7, #63]	@ 0x3f
    uint8_t confirm_count = 0;
 80015d8:	2300      	movs	r3, #0
 80015da:	f887 303e 	strb.w	r3, [r7, #62]	@ 0x3e
    
    // First set all columns HIGH to prepare for scanning
    HAL_GPIO_WritePin(KEYBOARD_COL_PORT, 
 80015de:	2201      	movs	r2, #1
 80015e0:	f241 1130 	movw	r1, #4400	@ 0x1130
 80015e4:	48a3      	ldr	r0, [pc, #652]	@ (8001874 <Keyboard_ScanInterrupt+0x2a8>)
 80015e6:	f002 fe0c 	bl	8004202 <HAL_GPIO_WritePin>
                      KEYBOARD_COL1_PIN | KEYBOARD_COL2_PIN | 
                      KEYBOARD_COL3_PIN | KEYBOARD_COL4_PIN, 
                      GPIO_PIN_SET);
    
    // 等待电平稳定 - 使用循环代替HAL_Delay（中断中不能用HAL_Delay）
    for(volatile int delay = 0; delay < 1000; delay++);
 80015ea:	2300      	movs	r3, #0
 80015ec:	627b      	str	r3, [r7, #36]	@ 0x24
 80015ee:	e002      	b.n	80015f6 <Keyboard_ScanInterrupt+0x2a>
 80015f0:	6a7b      	ldr	r3, [r7, #36]	@ 0x24
 80015f2:	3301      	adds	r3, #1
 80015f4:	627b      	str	r3, [r7, #36]	@ 0x24
 80015f6:	6a7b      	ldr	r3, [r7, #36]	@ 0x24
 80015f8:	f5b3 7f7a 	cmp.w	r3, #1000	@ 0x3e8
 80015fc:	dbf8      	blt.n	80015f0 <Keyboard_ScanInterrupt+0x24>
    // S13 -> PA12 -> Not used
    
    // Test each column one by one with confirmation
    
    // Test PA4 (COL4_PIN) for S16 -> Floor 1
    HAL_GPIO_WritePin(KEYBOARD_COL_PORT, KEYBOARD_COL4_PIN, GPIO_PIN_RESET);  // PA4
 80015fe:	2200      	movs	r2, #0
 8001600:	2110      	movs	r1, #16
 8001602:	489c      	ldr	r0, [pc, #624]	@ (8001874 <Keyboard_ScanInterrupt+0x2a8>)
 8001604:	f002 fdfd 	bl	8004202 <HAL_GPIO_WritePin>
    for(volatile int delay = 0; delay < 1000; delay++);  // 等待电平稳定
 8001608:	2300      	movs	r3, #0
 800160a:	623b      	str	r3, [r7, #32]
 800160c:	e002      	b.n	8001614 <Keyboard_ScanInterrupt+0x48>
 800160e:	6a3b      	ldr	r3, [r7, #32]
 8001610:	3301      	adds	r3, #1
 8001612:	623b      	str	r3, [r7, #32]
 8001614:	6a3b      	ldr	r3, [r7, #32]
 8001616:	f5b3 7f7a 	cmp.w	r3, #1000	@ 0x3e8
 800161a:	dbf8      	blt.n	800160e <Keyboard_ScanInterrupt+0x42>
    // 连续读取3次确认
    confirm_count = 0;
 800161c:	2300      	movs	r3, #0
 800161e:	f887 303e 	strb.w	r3, [r7, #62]	@ 0x3e
    for (int i = 0; i < 3; i++) {
 8001622:	2300      	movs	r3, #0
 8001624:	63bb      	str	r3, [r7, #56]	@ 0x38
 8001626:	e018      	b.n	800165a <Keyboard_ScanInterrupt+0x8e>
        if (HAL_GPIO_ReadPin(KEYBOARD_ROW_PORT, KEYBOARD_ROW_PIN) == GPIO_PIN_RESET) {
 8001628:	f44f 6100 	mov.w	r1, #2048	@ 0x800
 800162c:	4891      	ldr	r0, [pc, #580]	@ (8001874 <Keyboard_ScanInterrupt+0x2a8>)
 800162e:	f002 fdd1 	bl	80041d4 <HAL_GPIO_ReadPin>
 8001632:	4603      	mov	r3, r0
 8001634:	2b00      	cmp	r3, #0
 8001636:	d104      	bne.n	8001642 <Keyboard_ScanInterrupt+0x76>
            confirm_count++;
 8001638:	f897 303e 	ldrb.w	r3, [r7, #62]	@ 0x3e
 800163c:	3301      	adds	r3, #1
 800163e:	f887 303e 	strb.w	r3, [r7, #62]	@ 0x3e
        }
        for(volatile int j = 0; j < 100; j++);
 8001642:	2300      	movs	r3, #0
 8001644:	61fb      	str	r3, [r7, #28]
 8001646:	e002      	b.n	800164e <Keyboard_ScanInterrupt+0x82>
 8001648:	69fb      	ldr	r3, [r7, #28]
 800164a:	3301      	adds	r3, #1
 800164c:	61fb      	str	r3, [r7, #28]
 800164e:	69fb      	ldr	r3, [r7, #28]
 8001650:	2b63      	cmp	r3, #99	@ 0x63
 8001652:	ddf9      	ble.n	8001648 <Keyboard_ScanInterrupt+0x7c>
    for (int i = 0; i < 3; i++) {
 8001654:	6bbb      	ldr	r3, [r7, #56]	@ 0x38
 8001656:	3301      	adds	r3, #1
 8001658:	63bb      	str	r3, [r7, #56]	@ 0x38
 800165a:	6bbb      	ldr	r3, [r7, #56]	@ 0x38
 800165c:	2b02      	cmp	r3, #2
 800165e:	dde3      	ble.n	8001628 <Keyboard_ScanInterrupt+0x5c>
    }
    if (confirm_count >= 1) {  // 放宽条件：1次即可触发
 8001660:	f897 303e 	ldrb.w	r3, [r7, #62]	@ 0x3e
 8001664:	2b00      	cmp	r3, #0
 8001666:	d002      	beq.n	800166e <Keyboard_ScanInterrupt+0xa2>
        key = KEY_S16;  // Floor 1
 8001668:	2310      	movs	r3, #16
 800166a:	f887 303f 	strb.w	r3, [r7, #63]	@ 0x3f
    }
    HAL_GPIO_WritePin(KEYBOARD_COL_PORT, KEYBOARD_COL4_PIN, GPIO_PIN_SET);
 800166e:	2201      	movs	r2, #1
 8001670:	2110      	movs	r1, #16
 8001672:	4880      	ldr	r0, [pc, #512]	@ (8001874 <Keyboard_ScanInterrupt+0x2a8>)
 8001674:	f002 fdc5 	bl	8004202 <HAL_GPIO_WritePin>
    
    if (key == KEY_NONE) {
 8001678:	f897 303f 	ldrb.w	r3, [r7, #63]	@ 0x3f
 800167c:	2b00      	cmp	r3, #0
 800167e:	d13e      	bne.n	80016fe <Keyboard_ScanInterrupt+0x132>
        // Test PA8 (COL1_PIN) for S15 -> Floor 2
        HAL_GPIO_WritePin(KEYBOARD_COL_PORT, KEYBOARD_COL1_PIN, GPIO_PIN_RESET);  // PA8
 8001680:	2200      	movs	r2, #0
 8001682:	f44f 7180 	mov.w	r1, #256	@ 0x100
 8001686:	487b      	ldr	r0, [pc, #492]	@ (8001874 <Keyboard_ScanInterrupt+0x2a8>)
 8001688:	f002 fdbb 	bl	8004202 <HAL_GPIO_WritePin>
        for(volatile int delay = 0; delay < 1000; delay++);
 800168c:	2300      	movs	r3, #0
 800168e:	61bb      	str	r3, [r7, #24]
 8001690:	e002      	b.n	8001698 <Keyboard_ScanInterrupt+0xcc>
 8001692:	69bb      	ldr	r3, [r7, #24]
 8001694:	3301      	adds	r3, #1
 8001696:	61bb      	str	r3, [r7, #24]
 8001698:	69bb      	ldr	r3, [r7, #24]
 800169a:	f5b3 7f7a 	cmp.w	r3, #1000	@ 0x3e8
 800169e:	dbf8      	blt.n	8001692 <Keyboard_ScanInterrupt+0xc6>
        confirm_count = 0;
 80016a0:	2300      	movs	r3, #0
 80016a2:	f887 303e 	strb.w	r3, [r7, #62]	@ 0x3e
        for (int i = 0; i < 3; i++) {
 80016a6:	2300      	movs	r3, #0
 80016a8:	637b      	str	r3, [r7, #52]	@ 0x34
 80016aa:	e018      	b.n	80016de <Keyboard_ScanInterrupt+0x112>
            if (HAL_GPIO_ReadPin(KEYBOARD_ROW_PORT, KEYBOARD_ROW_PIN) == GPIO_PIN_RESET) {
 80016ac:	f44f 6100 	mov.w	r1, #2048	@ 0x800
 80016b0:	4870      	ldr	r0, [pc, #448]	@ (8001874 <Keyboard_ScanInterrupt+0x2a8>)
 80016b2:	f002 fd8f 	bl	80041d4 <HAL_GPIO_ReadPin>
 80016b6:	4603      	mov	r3, r0
 80016b8:	2b00      	cmp	r3, #0
 80016ba:	d104      	bne.n	80016c6 <Keyboard_ScanInterrupt+0xfa>
                confirm_count++;
 80016bc:	f897 303e 	ldrb.w	r3, [r7, #62]	@ 0x3e
 80016c0:	3301      	adds	r3, #1
 80016c2:	f887 303e 	strb.w	r3, [r7, #62]	@ 0x3e
            }
            for(volatile int j = 0; j < 100; j++);
 80016c6:	2300      	movs	r3, #0
 80016c8:	617b      	str	r3, [r7, #20]
 80016ca:	e002      	b.n	80016d2 <Keyboard_ScanInterrupt+0x106>
 80016cc:	697b      	ldr	r3, [r7, #20]
 80016ce:	3301      	adds	r3, #1
 80016d0:	617b      	str	r3, [r7, #20]
 80016d2:	697b      	ldr	r3, [r7, #20]
 80016d4:	2b63      	cmp	r3, #99	@ 0x63
 80016d6:	ddf9      	ble.n	80016cc <Keyboard_ScanInterrupt+0x100>
        for (int i = 0; i < 3; i++) {
 80016d8:	6b7b      	ldr	r3, [r7, #52]	@ 0x34
 80016da:	3301      	adds	r3, #1
 80016dc:	637b      	str	r3, [r7, #52]	@ 0x34
 80016de:	6b7b      	ldr	r3, [r7, #52]	@ 0x34
 80016e0:	2b02      	cmp	r3, #2
 80016e2:	dde3      	ble.n	80016ac <Keyboard_ScanInterrupt+0xe0>
        }
        if (confirm_count >= 1) {  // 放宽条件：1次即可触发
 80016e4:	f897 303e 	ldrb.w	r3, [r7, #62]	@ 0x3e
 80016e8:	2b00      	cmp	r3, #0
 80016ea:	d002      	beq.n	80016f2 <Keyboard_ScanInterrupt+0x126>
            key = KEY_S15;  // Floor 2
 80016ec:	230f      	movs	r3, #15
 80016ee:	f887 303f 	strb.w	r3, [r7, #63]	@ 0x3f
        }
        HAL_GPIO_WritePin(KEYBOARD_COL_PORT, KEYBOARD_COL1_PIN, GPIO_PIN_SET);
 80016f2:	2201      	movs	r2, #1
 80016f4:	f44f 7180 	mov.w	r1, #256	@ 0x100
 80016f8:	485e      	ldr	r0, [pc, #376]	@ (8001874 <Keyboard_ScanInterrupt+0x2a8>)
 80016fa:	f002 fd82 	bl	8004202 <HAL_GPIO_WritePin>
    }
    
    if (key == KEY_NONE) {
 80016fe:	f897 303f 	ldrb.w	r3, [r7, #63]	@ 0x3f
 8001702:	2b00      	cmp	r3, #0
 8001704:	d13c      	bne.n	8001780 <Keyboard_ScanInterrupt+0x1b4>
        // Test PA5 (COL3_PIN) for S14 -> Floor 3
        HAL_GPIO_WritePin(KEYBOARD_COL_PORT, KEYBOARD_COL3_PIN, GPIO_PIN_RESET);  // PA5
 8001706:	2200      	movs	r2, #0
 8001708:	2120      	movs	r1, #32
 800170a:	485a      	ldr	r0, [pc, #360]	@ (8001874 <Keyboard_ScanInterrupt+0x2a8>)
 800170c:	f002 fd79 	bl	8004202 <HAL_GPIO_WritePin>
        for(volatile int delay = 0; delay < 1000; delay++);
 8001710:	2300      	movs	r3, #0
 8001712:	613b      	str	r3, [r7, #16]
 8001714:	e002      	b.n	800171c <Keyboard_ScanInterrupt+0x150>
 8001716:	693b      	ldr	r3, [r7, #16]
 8001718:	3301      	adds	r3, #1
 800171a:	613b      	str	r3, [r7, #16]
 800171c:	693b      	ldr	r3, [r7, #16]
 800171e:	f5b3 7f7a 	cmp.w	r3, #1000	@ 0x3e8
 8001722:	dbf8      	blt.n	8001716 <Keyboard_ScanInterrupt+0x14a>
        confirm_count = 0;
 8001724:	2300      	movs	r3, #0
 8001726:	f887 303e 	strb.w	r3, [r7, #62]	@ 0x3e
        for (int i = 0; i < 3; i++) {
 800172a:	2300      	movs	r3, #0
 800172c:	633b      	str	r3, [r7, #48]	@ 0x30
 800172e:	e018      	b.n	8001762 <Keyboard_ScanInterrupt+0x196>
            if (HAL_GPIO_ReadPin(KEYBOARD_ROW_PORT, KEYBOARD_ROW_PIN) == GPIO_PIN_RESET) {
 8001730:	f44f 6100 	mov.w	r1, #2048	@ 0x800
 8001734:	484f      	ldr	r0, [pc, #316]	@ (8001874 <Keyboard_ScanInterrupt+0x2a8>)
 8001736:	f002 fd4d 	bl	80041d4 <HAL_GPIO_ReadPin>
 800173a:	4603      	mov	r3, r0
 800173c:	2b00      	cmp	r3, #0
 800173e:	d104      	bne.n	800174a <Keyboard_ScanInterrupt+0x17e>
                confirm_count++;
 8001740:	f897 303e 	ldrb.w	r3, [r7, #62]	@ 0x3e
 8001744:	3301      	adds	r3, #1
 8001746:	f887 303e 	strb.w	r3, [r7, #62]	@ 0x3e
            }
            for(volatile int j = 0; j < 100; j++);
 800174a:	2300      	movs	r3, #0
 800174c:	60fb      	str	r3, [r7, #12]
 800174e:	e002      	b.n	8001756 <Keyboard_ScanInterrupt+0x18a>
 8001750:	68fb      	ldr	r3, [r7, #12]
 8001752:	3301      	adds	r3, #1
 8001754:	60fb      	str	r3, [r7, #12]
 8001756:	68fb      	ldr	r3, [r7, #12]
 8001758:	2b63      	cmp	r3, #99	@ 0x63
 800175a:	ddf9      	ble.n	8001750 <Keyboard_ScanInterrupt+0x184>
        for (int i = 0; i < 3; i++) {
 800175c:	6b3b      	ldr	r3, [r7, #48]	@ 0x30
 800175e:	3301      	adds	r3, #1
 8001760:	633b      	str	r3, [r7, #48]	@ 0x30
 8001762:	6b3b      	ldr	r3, [r7, #48]	@ 0x30
 8001764:	2b02      	cmp	r3, #2
 8001766:	dde3      	ble.n	8001730 <Keyboard_ScanInterrupt+0x164>
        }
        if (confirm_count >= 1) {  // 放宽条件：1次即可触发
 8001768:	f897 303e 	ldrb.w	r3, [r7, #62]	@ 0x3e
 800176c:	2b00      	cmp	r3, #0
 800176e:	d002      	beq.n	8001776 <Keyboard_ScanInterrupt+0x1aa>
            key = KEY_S14;  // Floor 3
 8001770:	230e      	movs	r3, #14
 8001772:	f887 303f 	strb.w	r3, [r7, #63]	@ 0x3f
        }
        HAL_GPIO_WritePin(KEYBOARD_COL_PORT, KEYBOARD_COL3_PIN, GPIO_PIN_SET);
 8001776:	2201      	movs	r2, #1
 8001778:	2120      	movs	r1, #32
 800177a:	483e      	ldr	r0, [pc, #248]	@ (8001874 <Keyboard_ScanInterrupt+0x2a8>)
 800177c:	f002 fd41 	bl	8004202 <HAL_GPIO_WritePin>
    }
    
    if (key == KEY_NONE) {
 8001780:	f897 303f 	ldrb.w	r3, [r7, #63]	@ 0x3f
 8001784:	2b00      	cmp	r3, #0
 8001786:	d13e      	bne.n	8001806 <Keyboard_ScanInterrupt+0x23a>
        // Test PA12 (COL2_PIN) for S13 -> Not used
        HAL_GPIO_WritePin(KEYBOARD_COL_PORT, KEYBOARD_COL2_PIN, GPIO_PIN_RESET);  // PA12
 8001788:	2200      	movs	r2, #0
 800178a:	f44f 5180 	mov.w	r1, #4096	@ 0x1000
 800178e:	4839      	ldr	r0, [pc, #228]	@ (8001874 <Keyboard_ScanInterrupt+0x2a8>)
 8001790:	f002 fd37 	bl	8004202 <HAL_GPIO_WritePin>
        for(volatile int delay = 0; delay < 1000; delay++);
 8001794:	2300      	movs	r3, #0
 8001796:	60bb      	str	r3, [r7, #8]
 8001798:	e002      	b.n	80017a0 <Keyboard_ScanInterrupt+0x1d4>
 800179a:	68bb      	ldr	r3, [r7, #8]
 800179c:	3301      	adds	r3, #1
 800179e:	60bb      	str	r3, [r7, #8]
 80017a0:	68bb      	ldr	r3, [r7, #8]
 80017a2:	f5b3 7f7a 	cmp.w	r3, #1000	@ 0x3e8
 80017a6:	dbf8      	blt.n	800179a <Keyboard_ScanInterrupt+0x1ce>
        confirm_count = 0;
 80017a8:	2300      	movs	r3, #0
 80017aa:	f887 303e 	strb.w	r3, [r7, #62]	@ 0x3e
        for (int i = 0; i < 3; i++) {
 80017ae:	2300      	movs	r3, #0
 80017b0:	62fb      	str	r3, [r7, #44]	@ 0x2c
 80017b2:	e018      	b.n	80017e6 <Keyboard_ScanInterrupt+0x21a>
            if (HAL_GPIO_ReadPin(KEYBOARD_ROW_PORT, KEYBOARD_ROW_PIN) == GPIO_PIN_RESET) {
 80017b4:	f44f 6100 	mov.w	r1, #2048	@ 0x800
 80017b8:	482e      	ldr	r0, [pc, #184]	@ (8001874 <Keyboard_ScanInterrupt+0x2a8>)
 80017ba:	f002 fd0b 	bl	80041d4 <HAL_GPIO_ReadPin>
 80017be:	4603      	mov	r3, r0
 80017c0:	2b00      	cmp	r3, #0
 80017c2:	d104      	bne.n	80017ce <Keyboard_ScanInterrupt+0x202>
                confirm_count++;
 80017c4:	f897 303e 	ldrb.w	r3, [r7, #62]	@ 0x3e
 80017c8:	3301      	adds	r3, #1
 80017ca:	f887 303e 	strb.w	r3, [r7, #62]	@ 0x3e
            }
            for(volatile int j = 0; j < 100; j++);
 80017ce:	2300      	movs	r3, #0
 80017d0:	607b      	str	r3, [r7, #4]
 80017d2:	e002      	b.n	80017da <Keyboard_ScanInterrupt+0x20e>
 80017d4:	687b      	ldr	r3, [r7, #4]
 80017d6:	3301      	adds	r3, #1
 80017d8:	607b      	str	r3, [r7, #4]
 80017da:	687b      	ldr	r3, [r7, #4]
 80017dc:	2b63      	cmp	r3, #99	@ 0x63
 80017de:	ddf9      	ble.n	80017d4 <Keyboard_ScanInterrupt+0x208>
        for (int i = 0; i < 3; i++) {
 80017e0:	6afb      	ldr	r3, [r7, #44]	@ 0x2c
 80017e2:	3301      	adds	r3, #1
 80017e4:	62fb      	str	r3, [r7, #44]	@ 0x2c
 80017e6:	6afb      	ldr	r3, [r7, #44]	@ 0x2c
 80017e8:	2b02      	cmp	r3, #2
 80017ea:	dde3      	ble.n	80017b4 <Keyboard_ScanInterrupt+0x1e8>
        }
        if (confirm_count >= 1) {  // 放宽条件：1次即可触发
 80017ec:	f897 303e 	ldrb.w	r3, [r7, #62]	@ 0x3e
 80017f0:	2b00      	cmp	r3, #0
 80017f2:	d002      	beq.n	80017fa <Keyboard_ScanInterrupt+0x22e>
            key = KEY_S13;  // S13 detected but not used in elevator logic
 80017f4:	230d      	movs	r3, #13
 80017f6:	f887 303f 	strb.w	r3, [r7, #63]	@ 0x3f
        }
        HAL_GPIO_WritePin(KEYBOARD_COL_PORT, KEYBOARD_COL2_PIN, GPIO_PIN_SET);
 80017fa:	2201      	movs	r2, #1
 80017fc:	f44f 5180 	mov.w	r1, #4096	@ 0x1000
 8001800:	481c      	ldr	r0, [pc, #112]	@ (8001874 <Keyboard_ScanInterrupt+0x2a8>)
 8001802:	f002 fcfe 	bl	8004202 <HAL_GPIO_WritePin>
    }
    
    // 等待按键释放
    if (key != KEY_NONE) {
 8001806:	f897 303f 	ldrb.w	r3, [r7, #63]	@ 0x3f
 800180a:	2b00      	cmp	r3, #0
 800180c:	d025      	beq.n	800185a <Keyboard_ScanInterrupt+0x28e>
        // 等待按键释放（最多等20ms）- 大幅缩短
        uint32_t wait_start = HAL_GetTick();
 800180e:	f001 ff7f 	bl	8003710 <HAL_GetTick>
 8001812:	62b8      	str	r0, [r7, #40]	@ 0x28
        while ((HAL_GetTick() - wait_start) < 20) {
 8001814:	e01a      	b.n	800184c <Keyboard_ScanInterrupt+0x280>
            // 设置所有列为HIGH
            HAL_GPIO_WritePin(KEYBOARD_COL_PORT, 
 8001816:	2201      	movs	r2, #1
 8001818:	f241 1130 	movw	r1, #4400	@ 0x1130
 800181c:	4815      	ldr	r0, [pc, #84]	@ (8001874 <Keyboard_ScanInterrupt+0x2a8>)
 800181e:	f002 fcf0 	bl	8004202 <HAL_GPIO_WritePin>
                              KEYBOARD_COL1_PIN | KEYBOARD_COL2_PIN | 
                              KEYBOARD_COL3_PIN | KEYBOARD_COL4_PIN, 
                              GPIO_PIN_SET);
            // 不延时或使用极小延时
            for(volatile int d = 0; d < 100; d++);
 8001822:	2300      	movs	r3, #0
 8001824:	603b      	str	r3, [r7, #0]
 8001826:	e002      	b.n	800182e <Keyboard_ScanInterrupt+0x262>
 8001828:	683b      	ldr	r3, [r7, #0]
 800182a:	3301      	adds	r3, #1
 800182c:	603b      	str	r3, [r7, #0]
 800182e:	683b      	ldr	r3, [r7, #0]
 8001830:	2b63      	cmp	r3, #99	@ 0x63
 8001832:	ddf9      	ble.n	8001828 <Keyboard_ScanInterrupt+0x25c>
            
            // 检查是否释放
            if (HAL_GPIO_ReadPin(KEYBOARD_ROW_PORT, KEYBOARD_ROW_PIN) == GPIO_PIN_SET) {
 8001834:	f44f 6100 	mov.w	r1, #2048	@ 0x800
 8001838:	480e      	ldr	r0, [pc, #56]	@ (8001874 <Keyboard_ScanInterrupt+0x2a8>)
 800183a:	f002 fccb 	bl	80041d4 <HAL_GPIO_ReadPin>
 800183e:	4603      	mov	r3, r0
 8001840:	2b01      	cmp	r3, #1
 8001842:	d103      	bne.n	800184c <Keyboard_ScanInterrupt+0x280>
                // 按键已释放
                HAL_Delay(1);  // 极小额外延时
 8001844:	2001      	movs	r0, #1
 8001846:	f001 ff6d 	bl	8003724 <HAL_Delay>
                break;
 800184a:	e006      	b.n	800185a <Keyboard_ScanInterrupt+0x28e>
        while ((HAL_GetTick() - wait_start) < 20) {
 800184c:	f001 ff60 	bl	8003710 <HAL_GetTick>
 8001850:	4602      	mov	r2, r0
 8001852:	6abb      	ldr	r3, [r7, #40]	@ 0x28
 8001854:	1ad3      	subs	r3, r2, r3
 8001856:	2b13      	cmp	r3, #19
 8001858:	d9dd      	bls.n	8001816 <Keyboard_ScanInterrupt+0x24a>
            }
        }
    }
    
    // After scanning, set all columns LOW again for next interrupt
    HAL_GPIO_WritePin(KEYBOARD_COL_PORT, 
 800185a:	2200      	movs	r2, #0
 800185c:	f241 1130 	movw	r1, #4400	@ 0x1130
 8001860:	4804      	ldr	r0, [pc, #16]	@ (8001874 <Keyboard_ScanInterrupt+0x2a8>)
 8001862:	f002 fcce 	bl	8004202 <HAL_GPIO_WritePin>
                      KEYBOARD_COL1_PIN | KEYBOARD_COL2_PIN | 
                      KEYBOARD_COL3_PIN | KEYBOARD_COL4_PIN, 
                      GPIO_PIN_RESET);
    
    return key;
 8001866:	f897 303f 	ldrb.w	r3, [r7, #63]	@ 0x3f
}
 800186a:	4618      	mov	r0, r3
 800186c:	3740      	adds	r7, #64	@ 0x40
 800186e:	46bd      	mov	sp, r7
 8001870:	bd80      	pop	{r7, pc}
 8001872:	bf00      	nop
 8001874:	40010800 	.word	0x40010800

08001878 <Keyboard_PushKey>:
bool Keyboard_IsKeyPressed(uint8_t key) {
    return (g_keyboard.current_key == key && g_keyboard.key_stable);
}

// 将按键推入缓冲区
bool Keyboard_PushKey(uint8_t key) {
 8001878:	b480      	push	{r7}
 800187a:	b083      	sub	sp, #12
 800187c:	af00      	add	r7, sp, #0
 800187e:	4603      	mov	r3, r0
 8001880:	71fb      	strb	r3, [r7, #7]
    if (g_keyboard.buffer_count >= KEYBOARD_BUFFER_SIZE) {
 8001882:	4b13      	ldr	r3, [pc, #76]	@ (80018d0 <Keyboard_PushKey+0x58>)
 8001884:	7e1b      	ldrb	r3, [r3, #24]
 8001886:	2b07      	cmp	r3, #7
 8001888:	d901      	bls.n	800188e <Keyboard_PushKey+0x16>
        return false;  // 缓冲区满
 800188a:	2300      	movs	r3, #0
 800188c:	e01a      	b.n	80018c4 <Keyboard_PushKey+0x4c>
    }
    
    g_keyboard.key_buffer[g_keyboard.buffer_tail] = key;
 800188e:	4b10      	ldr	r3, [pc, #64]	@ (80018d0 <Keyboard_PushKey+0x58>)
 8001890:	7ddb      	ldrb	r3, [r3, #23]
 8001892:	461a      	mov	r2, r3
 8001894:	4b0e      	ldr	r3, [pc, #56]	@ (80018d0 <Keyboard_PushKey+0x58>)
 8001896:	4413      	add	r3, r2
 8001898:	79fa      	ldrb	r2, [r7, #7]
 800189a:	739a      	strb	r2, [r3, #14]
    g_keyboard.buffer_tail = (g_keyboard.buffer_tail + 1) % KEYBOARD_BUFFER_SIZE;
 800189c:	4b0c      	ldr	r3, [pc, #48]	@ (80018d0 <Keyboard_PushKey+0x58>)
 800189e:	7ddb      	ldrb	r3, [r3, #23]
 80018a0:	3301      	adds	r3, #1
 80018a2:	425a      	negs	r2, r3
 80018a4:	f003 0307 	and.w	r3, r3, #7
 80018a8:	f002 0207 	and.w	r2, r2, #7
 80018ac:	bf58      	it	pl
 80018ae:	4253      	negpl	r3, r2
 80018b0:	b2da      	uxtb	r2, r3
 80018b2:	4b07      	ldr	r3, [pc, #28]	@ (80018d0 <Keyboard_PushKey+0x58>)
 80018b4:	75da      	strb	r2, [r3, #23]
    g_keyboard.buffer_count++;
 80018b6:	4b06      	ldr	r3, [pc, #24]	@ (80018d0 <Keyboard_PushKey+0x58>)
 80018b8:	7e1b      	ldrb	r3, [r3, #24]
 80018ba:	3301      	adds	r3, #1
 80018bc:	b2da      	uxtb	r2, r3
 80018be:	4b04      	ldr	r3, [pc, #16]	@ (80018d0 <Keyboard_PushKey+0x58>)
 80018c0:	761a      	strb	r2, [r3, #24]
    
    return true;
 80018c2:	2301      	movs	r3, #1
}
 80018c4:	4618      	mov	r0, r3
 80018c6:	370c      	adds	r7, #12
 80018c8:	46bd      	mov	sp, r7
 80018ca:	bc80      	pop	{r7}
 80018cc:	4770      	bx	lr
 80018ce:	bf00      	nop
 80018d0:	200006bc 	.word	0x200006bc

080018d4 <Keyboard_PopKey>:

// 从缓冲区弹出按键
bool Keyboard_PopKey(uint8_t* key) {
 80018d4:	b480      	push	{r7}
 80018d6:	b083      	sub	sp, #12
 80018d8:	af00      	add	r7, sp, #0
 80018da:	6078      	str	r0, [r7, #4]
    if (g_keyboard.buffer_count == 0) {
 80018dc:	4b13      	ldr	r3, [pc, #76]	@ (800192c <Keyboard_PopKey+0x58>)
 80018de:	7e1b      	ldrb	r3, [r3, #24]
 80018e0:	2b00      	cmp	r3, #0
 80018e2:	d101      	bne.n	80018e8 <Keyboard_PopKey+0x14>
        return false;  // 缓冲区空
 80018e4:	2300      	movs	r3, #0
 80018e6:	e01b      	b.n	8001920 <Keyboard_PopKey+0x4c>
    }
    
    *key = g_keyboard.key_buffer[g_keyboard.buffer_head];
 80018e8:	4b10      	ldr	r3, [pc, #64]	@ (800192c <Keyboard_PopKey+0x58>)
 80018ea:	7d9b      	ldrb	r3, [r3, #22]
 80018ec:	461a      	mov	r2, r3
 80018ee:	4b0f      	ldr	r3, [pc, #60]	@ (800192c <Keyboard_PopKey+0x58>)
 80018f0:	4413      	add	r3, r2
 80018f2:	7b9a      	ldrb	r2, [r3, #14]
 80018f4:	687b      	ldr	r3, [r7, #4]
 80018f6:	701a      	strb	r2, [r3, #0]
    g_keyboard.buffer_head = (g_keyboard.buffer_head + 1) % KEYBOARD_BUFFER_SIZE;
 80018f8:	4b0c      	ldr	r3, [pc, #48]	@ (800192c <Keyboard_PopKey+0x58>)
 80018fa:	7d9b      	ldrb	r3, [r3, #22]
 80018fc:	3301      	adds	r3, #1
 80018fe:	425a      	negs	r2, r3
 8001900:	f003 0307 	and.w	r3, r3, #7
 8001904:	f002 0207 	and.w	r2, r2, #7
 8001908:	bf58      	it	pl
 800190a:	4253      	negpl	r3, r2
 800190c:	b2da      	uxtb	r2, r3
 800190e:	4b07      	ldr	r3, [pc, #28]	@ (800192c <Keyboard_PopKey+0x58>)
 8001910:	759a      	strb	r2, [r3, #22]
    g_keyboard.buffer_count--;
 8001912:	4b06      	ldr	r3, [pc, #24]	@ (800192c <Keyboard_PopKey+0x58>)
 8001914:	7e1b      	ldrb	r3, [r3, #24]
 8001916:	3b01      	subs	r3, #1
 8001918:	b2da      	uxtb	r2, r3
 800191a:	4b04      	ldr	r3, [pc, #16]	@ (800192c <Keyboard_PopKey+0x58>)
 800191c:	761a      	strb	r2, [r3, #24]
    
    return true;
 800191e:	2301      	movs	r3, #1
}
 8001920:	4618      	mov	r0, r3
 8001922:	370c      	adds	r7, #12
 8001924:	46bd      	mov	sp, r7
 8001926:	bc80      	pop	{r7}
 8001928:	4770      	bx	lr
 800192a:	bf00      	nop
 800192c:	200006bc 	.word	0x200006bc

08001930 <Keyboard_ClearBuffer>:
bool Keyboard_HasKey(void) {
    return g_keyboard.buffer_count > 0;
}

// 清空缓冲区
void Keyboard_ClearBuffer(void) {
 8001930:	b480      	push	{r7}
 8001932:	af00      	add	r7, sp, #0
    g_keyboard.buffer_head = 0;
 8001934:	4b06      	ldr	r3, [pc, #24]	@ (8001950 <Keyboard_ClearBuffer+0x20>)
 8001936:	2200      	movs	r2, #0
 8001938:	759a      	strb	r2, [r3, #22]
    g_keyboard.buffer_tail = 0;
 800193a:	4b05      	ldr	r3, [pc, #20]	@ (8001950 <Keyboard_ClearBuffer+0x20>)
 800193c:	2200      	movs	r2, #0
 800193e:	75da      	strb	r2, [r3, #23]
    g_keyboard.buffer_count = 0;
 8001940:	4b03      	ldr	r3, [pc, #12]	@ (8001950 <Keyboard_ClearBuffer+0x20>)
 8001942:	2200      	movs	r2, #0
 8001944:	761a      	strb	r2, [r3, #24]
}
 8001946:	bf00      	nop
 8001948:	46bd      	mov	sp, r7
 800194a:	bc80      	pop	{r7}
 800194c:	4770      	bx	lr
 800194e:	bf00      	nop
 8001950:	200006bc 	.word	0x200006bc

08001954 <Keyboard_ProcessKey>:

// 处理按键
void Keyboard_ProcessKey(uint8_t key) {
 8001954:	b580      	push	{r7, lr}
 8001956:	b082      	sub	sp, #8
 8001958:	af00      	add	r7, sp, #0
 800195a:	4603      	mov	r3, r0
 800195c:	71fb      	strb	r3, [r7, #7]
    if (key != KEY_NONE) {
 800195e:	79fb      	ldrb	r3, [r7, #7]
 8001960:	2b00      	cmp	r3, #0
 8001962:	d019      	beq.n	8001998 <Keyboard_ProcessKey+0x44>
        g_keyboard.total_key_presses++;
 8001964:	4b0e      	ldr	r3, [pc, #56]	@ (80019a0 <Keyboard_ProcessKey+0x4c>)
 8001966:	6a1b      	ldr	r3, [r3, #32]
 8001968:	3301      	adds	r3, #1
 800196a:	4a0d      	ldr	r2, [pc, #52]	@ (80019a0 <Keyboard_ProcessKey+0x4c>)
 800196c:	6213      	str	r3, [r2, #32]
        g_keyboard.key_press_time = HAL_GetTick();
 800196e:	f001 fecf 	bl	8003710 <HAL_GetTick>
 8001972:	4603      	mov	r3, r0
 8001974:	4a0a      	ldr	r2, [pc, #40]	@ (80019a0 <Keyboard_ProcessKey+0x4c>)
 8001976:	6093      	str	r3, [r2, #8]
        
        // 推入缓冲区
        if (!Keyboard_PushKey(key)) {
 8001978:	79fb      	ldrb	r3, [r7, #7]
 800197a:	4618      	mov	r0, r3
 800197c:	f7ff ff7c 	bl	8001878 <Keyboard_PushKey>
 8001980:	4603      	mov	r3, r0
 8001982:	f083 0301 	eor.w	r3, r3, #1
 8001986:	b2db      	uxtb	r3, r3
 8001988:	2b00      	cmp	r3, #0
 800198a:	d005      	beq.n	8001998 <Keyboard_ProcessKey+0x44>
            // 缓冲区满，清空后再推入
            Keyboard_ClearBuffer();
 800198c:	f7ff ffd0 	bl	8001930 <Keyboard_ClearBuffer>
            Keyboard_PushKey(key);
 8001990:	79fb      	ldrb	r3, [r7, #7]
 8001992:	4618      	mov	r0, r3
 8001994:	f7ff ff70 	bl	8001878 <Keyboard_PushKey>
        }
        
    }
}
 8001998:	bf00      	nop
 800199a:	3708      	adds	r7, #8
 800199c:	46bd      	mov	sp, r7
 800199e:	bd80      	pop	{r7, pc}
 80019a0:	200006bc 	.word	0x200006bc

080019a4 <Keyboard_GPIO_Init>:


// GPIO Init
void Keyboard_GPIO_Init(void) {
 80019a4:	b580      	push	{r7, lr}
 80019a6:	af00      	add	r7, sp, #0
    // GPIO is already initialized in gpio.c
    // Set all columns LOW initially for interrupt mode
    // When any button is pressed, it will pull PA11 LOW and trigger interrupt
    HAL_GPIO_WritePin(KEYBOARD_COL_PORT, 
 80019a8:	2200      	movs	r2, #0
 80019aa:	f241 1130 	movw	r1, #4400	@ 0x1130
 80019ae:	4802      	ldr	r0, [pc, #8]	@ (80019b8 <Keyboard_GPIO_Init+0x14>)
 80019b0:	f002 fc27 	bl	8004202 <HAL_GPIO_WritePin>
                      KEYBOARD_COL1_PIN | KEYBOARD_COL2_PIN | 
                      KEYBOARD_COL3_PIN | KEYBOARD_COL4_PIN, 
                      GPIO_PIN_RESET);
}
 80019b4:	bf00      	nop
 80019b6:	bd80      	pop	{r7, pc}
 80019b8:	40010800 	.word	0x40010800

080019bc <Keyboard_IRQHandler>:


// 中断处理函数
void Keyboard_IRQHandler(void) {
 80019bc:	b580      	push	{r7, lr}
 80019be:	af00      	add	r7, sp, #0
    // 设置中断标志
    g_keyboard.interrupt_flag = true;
 80019c0:	4b04      	ldr	r3, [pc, #16]	@ (80019d4 <Keyboard_IRQHandler+0x18>)
 80019c2:	2201      	movs	r2, #1
 80019c4:	765a      	strb	r2, [r3, #25]
    g_keyboard.interrupt_time = HAL_GetTick();
 80019c6:	f001 fea3 	bl	8003710 <HAL_GetTick>
 80019ca:	4603      	mov	r3, r0
 80019cc:	4a01      	ldr	r2, [pc, #4]	@ (80019d4 <Keyboard_IRQHandler+0x18>)
 80019ce:	61d3      	str	r3, [r2, #28]
}
 80019d0:	bf00      	nop
 80019d2:	bd80      	pop	{r7, pc}
 80019d4:	200006bc 	.word	0x200006bc

080019d8 <PhotoSensor_Init>:

/**
 * @brief Initialize photo sensor on PB5 with interrupt
 */
void PhotoSensor_Init(void)
{
 80019d8:	b580      	push	{r7, lr}
 80019da:	b086      	sub	sp, #24
 80019dc:	af00      	add	r7, sp, #0
    GPIO_InitTypeDef GPIO_InitStruct = {0};
 80019de:	f107 0308 	add.w	r3, r7, #8
 80019e2:	2200      	movs	r2, #0
 80019e4:	601a      	str	r2, [r3, #0]
 80019e6:	605a      	str	r2, [r3, #4]
 80019e8:	609a      	str	r2, [r3, #8]
 80019ea:	60da      	str	r2, [r3, #12]
    
    /* Enable GPIOB clock */
    __HAL_RCC_GPIOB_CLK_ENABLE();
 80019ec:	4b14      	ldr	r3, [pc, #80]	@ (8001a40 <PhotoSensor_Init+0x68>)
 80019ee:	699b      	ldr	r3, [r3, #24]
 80019f0:	4a13      	ldr	r2, [pc, #76]	@ (8001a40 <PhotoSensor_Init+0x68>)
 80019f2:	f043 0308 	orr.w	r3, r3, #8
 80019f6:	6193      	str	r3, [r2, #24]
 80019f8:	4b11      	ldr	r3, [pc, #68]	@ (8001a40 <PhotoSensor_Init+0x68>)
 80019fa:	699b      	ldr	r3, [r3, #24]
 80019fc:	f003 0308 	and.w	r3, r3, #8
 8001a00:	607b      	str	r3, [r7, #4]
 8001a02:	687b      	ldr	r3, [r7, #4]
    
    /* Configure PB5 as input with pull-up */
    GPIO_InitStruct.Pin = PHOTO_SENSOR_GPIO_PIN;  // GPIO_PIN_5
 8001a04:	2320      	movs	r3, #32
 8001a06:	60bb      	str	r3, [r7, #8]
    GPIO_InitStruct.Mode = GPIO_MODE_IT_RISING;   /* Interrupt on rising edge only */
 8001a08:	4b0e      	ldr	r3, [pc, #56]	@ (8001a44 <PhotoSensor_Init+0x6c>)
 8001a0a:	60fb      	str	r3, [r7, #12]
    GPIO_InitStruct.Pull = GPIO_PULLUP;           /* Internal pull-up resistor */
 8001a0c:	2301      	movs	r3, #1
 8001a0e:	613b      	str	r3, [r7, #16]
    HAL_GPIO_Init(PHOTO_SENSOR_GPIO_PORT, &GPIO_InitStruct);
 8001a10:	f107 0308 	add.w	r3, r7, #8
 8001a14:	4619      	mov	r1, r3
 8001a16:	480c      	ldr	r0, [pc, #48]	@ (8001a48 <PhotoSensor_Init+0x70>)
 8001a18:	f002 fa58 	bl	8003ecc <HAL_GPIO_Init>
    
    /* Enable and set EXTI9_5 interrupt priority (PB5 uses this) */
    HAL_NVIC_SetPriority(PHOTO_SENSOR_IRQn, 2, 0);  // EXTI9_5_IRQn
 8001a1c:	2200      	movs	r2, #0
 8001a1e:	2102      	movs	r1, #2
 8001a20:	2017      	movs	r0, #23
 8001a22:	f001 ff7a 	bl	800391a <HAL_NVIC_SetPriority>
    HAL_NVIC_EnableIRQ(PHOTO_SENSOR_IRQn);
 8001a26:	2017      	movs	r0, #23
 8001a28:	f001 ff93 	bl	8003952 <HAL_NVIC_EnableIRQ>
    
    /* Reset counter */
    trigger_count = 0;
 8001a2c:	4b07      	ldr	r3, [pc, #28]	@ (8001a4c <PhotoSensor_Init+0x74>)
 8001a2e:	2200      	movs	r2, #0
 8001a30:	601a      	str	r2, [r3, #0]
    last_trigger_time = 0;
 8001a32:	4b07      	ldr	r3, [pc, #28]	@ (8001a50 <PhotoSensor_Init+0x78>)
 8001a34:	2200      	movs	r2, #0
 8001a36:	601a      	str	r2, [r3, #0]
}
 8001a38:	bf00      	nop
 8001a3a:	3718      	adds	r7, #24
 8001a3c:	46bd      	mov	sp, r7
 8001a3e:	bd80      	pop	{r7, pc}
 8001a40:	40021000 	.word	0x40021000
 8001a44:	10110000 	.word	0x10110000
 8001a48:	40010c00 	.word	0x40010c00
 8001a4c:	200006e4 	.word	0x200006e4
 8001a50:	200006e8 	.word	0x200006e8

08001a54 <PhotoSensor_GetState>:
/**
 * @brief Get current state of photo sensor
 * @return PHOTO_SENSOR_BLOCKED if object detected, PHOTO_SENSOR_CLEAR if no object
 */
photo_sensor_state_t PhotoSensor_GetState(void)
{
 8001a54:	b580      	push	{r7, lr}
 8001a56:	b082      	sub	sp, #8
 8001a58:	af00      	add	r7, sp, #0
    /* Read GPIO pin state */
    GPIO_PinState pin_state = HAL_GPIO_ReadPin(PHOTO_SENSOR_GPIO_PORT, PHOTO_SENSOR_GPIO_PIN);
 8001a5a:	2120      	movs	r1, #32
 8001a5c:	4807      	ldr	r0, [pc, #28]	@ (8001a7c <PhotoSensor_GetState+0x28>)
 8001a5e:	f002 fbb9 	bl	80041d4 <HAL_GPIO_ReadPin>
 8001a62:	4603      	mov	r3, r0
 8001a64:	71fb      	strb	r3, [r7, #7]
    
    /* White line (Dark-ON): LOW = object detected, HIGH = no object */
    if (pin_state == GPIO_PIN_RESET) {
 8001a66:	79fb      	ldrb	r3, [r7, #7]
 8001a68:	2b00      	cmp	r3, #0
 8001a6a:	d101      	bne.n	8001a70 <PhotoSensor_GetState+0x1c>
        return PHOTO_SENSOR_BLOCKED;
 8001a6c:	2300      	movs	r3, #0
 8001a6e:	e000      	b.n	8001a72 <PhotoSensor_GetState+0x1e>
    } else {
        return PHOTO_SENSOR_CLEAR;
 8001a70:	2301      	movs	r3, #1
    }
}
 8001a72:	4618      	mov	r0, r3
 8001a74:	3708      	adds	r7, #8
 8001a76:	46bd      	mov	sp, r7
 8001a78:	bd80      	pop	{r7, pc}
 8001a7a:	bf00      	nop
 8001a7c:	40010c00 	.word	0x40010c00

08001a80 <PhotoSensor_IRQHandler>:
/**
 * @brief Photo sensor interrupt handler
 * @note Called from HAL_GPIO_EXTI_Callback
 */
void PhotoSensor_IRQHandler(void)
{
 8001a80:	b580      	push	{r7, lr}
 8001a82:	b082      	sub	sp, #8
 8001a84:	af00      	add	r7, sp, #0
    /* Simple debounce: ignore triggers within 50ms */
    uint32_t current_time = HAL_GetTick();
 8001a86:	f001 fe43 	bl	8003710 <HAL_GetTick>
 8001a8a:	6078      	str	r0, [r7, #4]
    if (current_time - last_trigger_time > 50) {
 8001a8c:	4b09      	ldr	r3, [pc, #36]	@ (8001ab4 <PhotoSensor_IRQHandler+0x34>)
 8001a8e:	681b      	ldr	r3, [r3, #0]
 8001a90:	687a      	ldr	r2, [r7, #4]
 8001a92:	1ad3      	subs	r3, r2, r3
 8001a94:	2b32      	cmp	r3, #50	@ 0x32
 8001a96:	d909      	bls.n	8001aac <PhotoSensor_IRQHandler+0x2c>
        trigger_count++;
 8001a98:	4b07      	ldr	r3, [pc, #28]	@ (8001ab8 <PhotoSensor_IRQHandler+0x38>)
 8001a9a:	681b      	ldr	r3, [r3, #0]
 8001a9c:	3301      	adds	r3, #1
 8001a9e:	4a06      	ldr	r2, [pc, #24]	@ (8001ab8 <PhotoSensor_IRQHandler+0x38>)
 8001aa0:	6013      	str	r3, [r2, #0]
        last_trigger_time = current_time;
 8001aa2:	4a04      	ldr	r2, [pc, #16]	@ (8001ab4 <PhotoSensor_IRQHandler+0x34>)
 8001aa4:	687b      	ldr	r3, [r7, #4]
 8001aa6:	6013      	str	r3, [r2, #0]
        
        /* Call user callback */
        PhotoSensor_TriggerCallback();
 8001aa8:	f001 faa4 	bl	8002ff4 <PhotoSensor_TriggerCallback>
    }
}
 8001aac:	bf00      	nop
 8001aae:	3708      	adds	r7, #8
 8001ab0:	46bd      	mov	sp, r7
 8001ab2:	bd80      	pop	{r7, pc}
 8001ab4:	200006e8 	.word	0x200006e8
 8001ab8:	200006e4 	.word	0x200006e4

08001abc <DoorControl_Init>:
static uint32_t update_count = 0;

/**
 * @brief 初始化门控系统 - 4状态机版本
 */
void DoorControl_Init(DoorControl_t *door, uint8_t servo_id) {
 8001abc:	b580      	push	{r7, lr}
 8001abe:	b084      	sub	sp, #16
 8001ac0:	af00      	add	r7, sp, #0
 8001ac2:	6078      	str	r0, [r7, #4]
 8001ac4:	460b      	mov	r3, r1
 8001ac6:	70fb      	strb	r3, [r7, #3]
    printf("[DOOR] Initializing door control system (4-State FSM)...\r\n");
 8001ac8:	4845      	ldr	r0, [pc, #276]	@ (8001be0 <DoorControl_Init+0x124>)
 8001aca:	f004 fa61 	bl	8005f90 <puts>
    
    door->servo_id = servo_id;
 8001ace:	687b      	ldr	r3, [r7, #4]
 8001ad0:	78fa      	ldrb	r2, [r7, #3]
 8001ad2:	701a      	strb	r2, [r3, #0]
    
    /* 初始化舵机 */
    servo_set_speed(servo_id, 500);
 8001ad4:	78fb      	ldrb	r3, [r7, #3]
 8001ad6:	f44f 71fa 	mov.w	r1, #500	@ 0x1f4
 8001ada:	4618      	mov	r0, r3
 8001adc:	f000 fd57 	bl	800258e <servo_set_speed>
    servo_set_torque_enable(servo_id, 1);
 8001ae0:	78fb      	ldrb	r3, [r7, #3]
 8001ae2:	2101      	movs	r1, #1
 8001ae4:	4618      	mov	r0, r3
 8001ae6:	f000 fd3d 	bl	8002564 <servo_set_torque_enable>
    // 初始化时使用HAL_Delay可以接受（不在中断中）
    HAL_Delay(100);
 8001aea:	2064      	movs	r0, #100	@ 0x64
 8001aec:	f001 fe1a 	bl	8003724 <HAL_Delay>
    
    /* 读取当前位置 */
    uint8_t rx_data[2];
    servo_read_reg(servo_id, 0x38, 2, rx_data);
 8001af0:	f107 030c 	add.w	r3, r7, #12
 8001af4:	78f8      	ldrb	r0, [r7, #3]
 8001af6:	2202      	movs	r2, #2
 8001af8:	2138      	movs	r1, #56	@ 0x38
 8001afa:	f000 fc86 	bl	800240a <servo_read_reg>
    door->current_pos = rx_data[0] | (rx_data[1] << 8);
 8001afe:	7b3b      	ldrb	r3, [r7, #12]
 8001b00:	b21a      	sxth	r2, r3
 8001b02:	7b7b      	ldrb	r3, [r7, #13]
 8001b04:	b21b      	sxth	r3, r3
 8001b06:	021b      	lsls	r3, r3, #8
 8001b08:	b21b      	sxth	r3, r3
 8001b0a:	4313      	orrs	r3, r2
 8001b0c:	b21b      	sxth	r3, r3
 8001b0e:	b29a      	uxth	r2, r3
 8001b10:	687b      	ldr	r3, [r7, #4]
 8001b12:	805a      	strh	r2, [r3, #2]
    
    /* 读取移动标志 */
    uint8_t moving_flag;
    servo_read_reg(servo_id, 0x42, 1, &moving_flag);
 8001b14:	f107 030b 	add.w	r3, r7, #11
 8001b18:	78f8      	ldrb	r0, [r7, #3]
 8001b1a:	2201      	movs	r2, #1
 8001b1c:	2142      	movs	r1, #66	@ 0x42
 8001b1e:	f000 fc74 	bl	800240a <servo_read_reg>
    
    printf("[DOOR] Initial position: %u (target OPEN=%u, CLOSED=%u)\r\n", 
           door->current_pos, DOOR_POS_OPEN, DOOR_POS_CLOSED);
 8001b22:	687b      	ldr	r3, [r7, #4]
 8001b24:	885b      	ldrh	r3, [r3, #2]
    printf("[DOOR] Initial position: %u (target OPEN=%u, CLOSED=%u)\r\n", 
 8001b26:	4619      	mov	r1, r3
 8001b28:	f640 13de 	movw	r3, #2526	@ 0x9de
 8001b2c:	2200      	movs	r2, #0
 8001b2e:	482d      	ldr	r0, [pc, #180]	@ (8001be4 <DoorControl_Init+0x128>)
 8001b30:	f004 f9c6 	bl	8005ec0 <iprintf>
    printf("[DOOR] Moving flag: %u\r\n", moving_flag);
 8001b34:	7afb      	ldrb	r3, [r7, #11]
 8001b36:	4619      	mov	r1, r3
 8001b38:	482b      	ldr	r0, [pc, #172]	@ (8001be8 <DoorControl_Init+0x12c>)
 8001b3a:	f004 f9c1 	bl	8005ec0 <iprintf>
    printf("[DOOR] Distance to OPEN: %d, Distance to CLOSED: %d\r\n",
           abs((int)door->current_pos - DOOR_POS_OPEN),
 8001b3e:	687b      	ldr	r3, [r7, #4]
 8001b40:	885b      	ldrh	r3, [r3, #2]
    printf("[DOOR] Distance to OPEN: %d, Distance to CLOSED: %d\r\n",
 8001b42:	4619      	mov	r1, r3
           abs((int)door->current_pos - DOOR_POS_CLOSED));
 8001b44:	687b      	ldr	r3, [r7, #4]
 8001b46:	885b      	ldrh	r3, [r3, #2]
 8001b48:	f6a3 13de 	subw	r3, r3, #2526	@ 0x9de
    printf("[DOOR] Distance to OPEN: %d, Distance to CLOSED: %d\r\n",
 8001b4c:	2b00      	cmp	r3, #0
 8001b4e:	bfb8      	it	lt
 8001b50:	425b      	neglt	r3, r3
 8001b52:	461a      	mov	r2, r3
 8001b54:	4825      	ldr	r0, [pc, #148]	@ (8001bec <DoorControl_Init+0x130>)
 8001b56:	f004 f9b3 	bl	8005ec0 <iprintf>
    
    /* 处理位置环绕：4093-4095接近0 */
    if (door->current_pos > 4090) {
 8001b5a:	687b      	ldr	r3, [r7, #4]
 8001b5c:	885b      	ldrh	r3, [r3, #2]
 8001b5e:	f640 72fa 	movw	r2, #4090	@ 0xffa
 8001b62:	4293      	cmp	r3, r2
 8001b64:	d908      	bls.n	8001b78 <DoorControl_Init+0xbc>
        printf("[DOOR] Position wrap-around detected (%u -> 0)\r\n", door->current_pos);
 8001b66:	687b      	ldr	r3, [r7, #4]
 8001b68:	885b      	ldrh	r3, [r3, #2]
 8001b6a:	4619      	mov	r1, r3
 8001b6c:	4820      	ldr	r0, [pc, #128]	@ (8001bf0 <DoorControl_Init+0x134>)
 8001b6e:	f004 f9a7 	bl	8005ec0 <iprintf>
        door->current_pos = 0;  // 修正为0
 8001b72:	687b      	ldr	r3, [r7, #4]
 8001b74:	2200      	movs	r2, #0
 8001b76:	805a      	strh	r2, [r3, #2]
    }
    
    /* 判断初始状态 */
    if (moving_flag) {
 8001b78:	7afb      	ldrb	r3, [r7, #11]
 8001b7a:	2b00      	cmp	r3, #0
 8001b7c:	d00a      	beq.n	8001b94 <DoorControl_Init+0xd8>
        /* 正在移动，无法确定方向，默认认为在关门 */
        printf("[DOOR] Motor is moving at startup, assuming closing...\r\n");
 8001b7e:	481d      	ldr	r0, [pc, #116]	@ (8001bf4 <DoorControl_Init+0x138>)
 8001b80:	f004 fa06 	bl	8005f90 <puts>
        door->state = DOOR_STATE_CLOSING;
 8001b84:	687b      	ldr	r3, [r7, #4]
 8001b86:	2203      	movs	r2, #3
 8001b88:	705a      	strb	r2, [r3, #1]
        door->target_pos = DOOR_POS_CLOSED;
 8001b8a:	687b      	ldr	r3, [r7, #4]
 8001b8c:	f640 12de 	movw	r2, #2526	@ 0x9de
 8001b90:	809a      	strh	r2, [r3, #4]
 8001b92:	e00f      	b.n	8001bb4 <DoorControl_Init+0xf8>
    } else {
        /* 静止状态，默认认为是关闭的 */
        door->state = DOOR_STATE_CLOSED;
 8001b94:	687b      	ldr	r3, [r7, #4]
 8001b96:	2200      	movs	r2, #0
 8001b98:	705a      	strb	r2, [r3, #1]
        door->target_pos = DOOR_POS_CLOSED;
 8001b9a:	687b      	ldr	r3, [r7, #4]
 8001b9c:	f640 12de 	movw	r2, #2526	@ 0x9de
 8001ba0:	809a      	strh	r2, [r3, #4]
        printf("[DOOR] Motor is stopped, assuming door is closed\r\n");
 8001ba2:	4815      	ldr	r0, [pc, #84]	@ (8001bf8 <DoorControl_Init+0x13c>)
 8001ba4:	f004 f9f4 	bl	8005f90 <puts>
        
        /* 为了安全，发送一次关门命令确保门关闭 */
        servo_set_position(servo_id, DOOR_POS_CLOSED);
 8001ba8:	78fb      	ldrb	r3, [r7, #3]
 8001baa:	f640 11de 	movw	r1, #2526	@ 0x9de
 8001bae:	4618      	mov	r0, r3
 8001bb0:	f000 fd09 	bl	80025c6 <servo_set_position>
    }
    
    door->last_update_time = HAL_GetTick();
 8001bb4:	f001 fdac 	bl	8003710 <HAL_GetTick>
 8001bb8:	4602      	mov	r2, r0
 8001bba:	687b      	ldr	r3, [r7, #4]
 8001bbc:	609a      	str	r2, [r3, #8]
    printf("[DOOR] Initial state: %s\r\n", DoorControl_GetStateName(door->state));
 8001bbe:	687b      	ldr	r3, [r7, #4]
 8001bc0:	785b      	ldrb	r3, [r3, #1]
 8001bc2:	4618      	mov	r0, r3
 8001bc4:	f000 fa94 	bl	80020f0 <DoorControl_GetStateName>
 8001bc8:	4603      	mov	r3, r0
 8001bca:	4619      	mov	r1, r3
 8001bcc:	480b      	ldr	r0, [pc, #44]	@ (8001bfc <DoorControl_Init+0x140>)
 8001bce:	f004 f977 	bl	8005ec0 <iprintf>
    printf("[DOOR] Initialization complete\r\n");
 8001bd2:	480b      	ldr	r0, [pc, #44]	@ (8001c00 <DoorControl_Init+0x144>)
 8001bd4:	f004 f9dc 	bl	8005f90 <puts>
}
 8001bd8:	bf00      	nop
 8001bda:	3710      	adds	r7, #16
 8001bdc:	46bd      	mov	sp, r7
 8001bde:	bd80      	pop	{r7, pc}
 8001be0:	08007318 	.word	0x08007318
 8001be4:	08007354 	.word	0x08007354
 8001be8:	08007390 	.word	0x08007390
 8001bec:	080073ac 	.word	0x080073ac
 8001bf0:	080073e4 	.word	0x080073e4
 8001bf4:	08007418 	.word	0x08007418
 8001bf8:	08007450 	.word	0x08007450
 8001bfc:	08007484 	.word	0x08007484
 8001c00:	080074a0 	.word	0x080074a0

08001c04 <DoorControl_Open>:

/**
 * @brief 开门命令
 */
void DoorControl_Open(DoorControl_t *door) {
 8001c04:	b580      	push	{r7, lr}
 8001c06:	b084      	sub	sp, #16
 8001c08:	af00      	add	r7, sp, #0
 8001c0a:	6078      	str	r0, [r7, #4]
    printf("\r\n[DOOR_DEBUG] ===== OPEN COMMAND =====\r\n");
 8001c0c:	482e      	ldr	r0, [pc, #184]	@ (8001cc8 <DoorControl_Open+0xc4>)
 8001c0e:	f004 f9bf 	bl	8005f90 <puts>
    printf("[DOOR_DEBUG] Current state: %s, Current pos: %u\r\n", 
 8001c12:	687b      	ldr	r3, [r7, #4]
 8001c14:	785b      	ldrb	r3, [r3, #1]
 8001c16:	4618      	mov	r0, r3
 8001c18:	f000 fa6a 	bl	80020f0 <DoorControl_GetStateName>
 8001c1c:	4601      	mov	r1, r0
           DoorControl_GetStateName(door->state), door->current_pos);
 8001c1e:	687b      	ldr	r3, [r7, #4]
 8001c20:	885b      	ldrh	r3, [r3, #2]
    printf("[DOOR_DEBUG] Current state: %s, Current pos: %u\r\n", 
 8001c22:	461a      	mov	r2, r3
 8001c24:	4829      	ldr	r0, [pc, #164]	@ (8001ccc <DoorControl_Open+0xc8>)
 8001c26:	f004 f94b 	bl	8005ec0 <iprintf>
    
    if (door->state == DOOR_STATE_CLOSED || door->state == DOOR_STATE_CLOSING) {
 8001c2a:	687b      	ldr	r3, [r7, #4]
 8001c2c:	785b      	ldrb	r3, [r3, #1]
 8001c2e:	2b00      	cmp	r3, #0
 8001c30:	d003      	beq.n	8001c3a <DoorControl_Open+0x36>
 8001c32:	687b      	ldr	r3, [r7, #4]
 8001c34:	785b      	ldrb	r3, [r3, #1]
 8001c36:	2b03      	cmp	r3, #3
 8001c38:	d137      	bne.n	8001caa <DoorControl_Open+0xa6>
        printf("[CMD] Sending OPEN command (target: %u)\r\n", DOOR_POS_OPEN);
 8001c3a:	2100      	movs	r1, #0
 8001c3c:	4824      	ldr	r0, [pc, #144]	@ (8001cd0 <DoorControl_Open+0xcc>)
 8001c3e:	f004 f93f 	bl	8005ec0 <iprintf>
        printf("[DOOR_DEBUG] Position change: %u -> %u (delta: %d)\r\n", 
               door->current_pos, DOOR_POS_OPEN, 
 8001c42:	687b      	ldr	r3, [r7, #4]
 8001c44:	885b      	ldrh	r3, [r3, #2]
        printf("[DOOR_DEBUG] Position change: %u -> %u (delta: %d)\r\n", 
 8001c46:	4619      	mov	r1, r3
               (int)DOOR_POS_OPEN - (int)door->current_pos);
 8001c48:	687b      	ldr	r3, [r7, #4]
 8001c4a:	885b      	ldrh	r3, [r3, #2]
        printf("[DOOR_DEBUG] Position change: %u -> %u (delta: %d)\r\n", 
 8001c4c:	425b      	negs	r3, r3
 8001c4e:	2200      	movs	r2, #0
 8001c50:	4820      	ldr	r0, [pc, #128]	@ (8001cd4 <DoorControl_Open+0xd0>)
 8001c52:	f004 f935 	bl	8005ec0 <iprintf>
        
        /* 使用循环延时避免阻塞 */
        for(volatile int i = 0; i < 50000; i++);  // 短延时
 8001c56:	2300      	movs	r3, #0
 8001c58:	60fb      	str	r3, [r7, #12]
 8001c5a:	e002      	b.n	8001c62 <DoorControl_Open+0x5e>
 8001c5c:	68fb      	ldr	r3, [r7, #12]
 8001c5e:	3301      	adds	r3, #1
 8001c60:	60fb      	str	r3, [r7, #12]
 8001c62:	68fb      	ldr	r3, [r7, #12]
 8001c64:	f24c 324f 	movw	r2, #49999	@ 0xc34f
 8001c68:	4293      	cmp	r3, r2
 8001c6a:	ddf7      	ble.n	8001c5c <DoorControl_Open+0x58>
        servo_set_position(door->servo_id, DOOR_POS_OPEN);
 8001c6c:	687b      	ldr	r3, [r7, #4]
 8001c6e:	781b      	ldrb	r3, [r3, #0]
 8001c70:	2100      	movs	r1, #0
 8001c72:	4618      	mov	r0, r3
 8001c74:	f000 fca7 	bl	80025c6 <servo_set_position>
        for(volatile int i = 0; i < 50000; i++);  // 给舵机时间处理命令
 8001c78:	2300      	movs	r3, #0
 8001c7a:	60bb      	str	r3, [r7, #8]
 8001c7c:	e002      	b.n	8001c84 <DoorControl_Open+0x80>
 8001c7e:	68bb      	ldr	r3, [r7, #8]
 8001c80:	3301      	adds	r3, #1
 8001c82:	60bb      	str	r3, [r7, #8]
 8001c84:	68bb      	ldr	r3, [r7, #8]
 8001c86:	f24c 324f 	movw	r2, #49999	@ 0xc34f
 8001c8a:	4293      	cmp	r3, r2
 8001c8c:	ddf7      	ble.n	8001c7e <DoorControl_Open+0x7a>
        
        door->target_pos = DOOR_POS_OPEN;
 8001c8e:	687b      	ldr	r3, [r7, #4]
 8001c90:	2200      	movs	r2, #0
 8001c92:	809a      	strh	r2, [r3, #4]
        door->state = DOOR_STATE_OPENING;
 8001c94:	687b      	ldr	r3, [r7, #4]
 8001c96:	2201      	movs	r2, #1
 8001c98:	705a      	strb	r2, [r3, #1]
        
        printf("[DOOR_DEBUG] State changed to OPENING at tick %lu\r\n", HAL_GetTick());
 8001c9a:	f001 fd39 	bl	8003710 <HAL_GetTick>
 8001c9e:	4603      	mov	r3, r0
 8001ca0:	4619      	mov	r1, r3
 8001ca2:	480d      	ldr	r0, [pc, #52]	@ (8001cd8 <DoorControl_Open+0xd4>)
 8001ca4:	f004 f90c 	bl	8005ec0 <iprintf>
 8001ca8:	e00a      	b.n	8001cc0 <DoorControl_Open+0xbc>
    } else {
        printf("[CMD] Cannot open - current state: %s\r\n", 
 8001caa:	687b      	ldr	r3, [r7, #4]
 8001cac:	785b      	ldrb	r3, [r3, #1]
 8001cae:	4618      	mov	r0, r3
 8001cb0:	f000 fa1e 	bl	80020f0 <DoorControl_GetStateName>
 8001cb4:	4603      	mov	r3, r0
 8001cb6:	4619      	mov	r1, r3
 8001cb8:	4808      	ldr	r0, [pc, #32]	@ (8001cdc <DoorControl_Open+0xd8>)
 8001cba:	f004 f901 	bl	8005ec0 <iprintf>
               DoorControl_GetStateName(door->state));
    }
}
 8001cbe:	bf00      	nop
 8001cc0:	bf00      	nop
 8001cc2:	3710      	adds	r7, #16
 8001cc4:	46bd      	mov	sp, r7
 8001cc6:	bd80      	pop	{r7, pc}
 8001cc8:	080074c0 	.word	0x080074c0
 8001ccc:	080074ec 	.word	0x080074ec
 8001cd0:	08007520 	.word	0x08007520
 8001cd4:	0800754c 	.word	0x0800754c
 8001cd8:	08007584 	.word	0x08007584
 8001cdc:	080075b8 	.word	0x080075b8

08001ce0 <DoorControl_Close>:

/**
 * @brief 关门命令
 */
void DoorControl_Close(DoorControl_t *door) {
 8001ce0:	b580      	push	{r7, lr}
 8001ce2:	b084      	sub	sp, #16
 8001ce4:	af00      	add	r7, sp, #0
 8001ce6:	6078      	str	r0, [r7, #4]
    printf("\r\n[DOOR_DEBUG] ===== CLOSE COMMAND =====\r\n");
 8001ce8:	4831      	ldr	r0, [pc, #196]	@ (8001db0 <DoorControl_Close+0xd0>)
 8001cea:	f004 f951 	bl	8005f90 <puts>
    printf("[DOOR_DEBUG] Current state: %s, Current pos: %u\r\n", 
 8001cee:	687b      	ldr	r3, [r7, #4]
 8001cf0:	785b      	ldrb	r3, [r3, #1]
 8001cf2:	4618      	mov	r0, r3
 8001cf4:	f000 f9fc 	bl	80020f0 <DoorControl_GetStateName>
 8001cf8:	4601      	mov	r1, r0
           DoorControl_GetStateName(door->state), door->current_pos);
 8001cfa:	687b      	ldr	r3, [r7, #4]
 8001cfc:	885b      	ldrh	r3, [r3, #2]
    printf("[DOOR_DEBUG] Current state: %s, Current pos: %u\r\n", 
 8001cfe:	461a      	mov	r2, r3
 8001d00:	482c      	ldr	r0, [pc, #176]	@ (8001db4 <DoorControl_Close+0xd4>)
 8001d02:	f004 f8dd 	bl	8005ec0 <iprintf>
    
    if (door->state == DOOR_STATE_OPEN || door->state == DOOR_STATE_OPENING) {
 8001d06:	687b      	ldr	r3, [r7, #4]
 8001d08:	785b      	ldrb	r3, [r3, #1]
 8001d0a:	2b02      	cmp	r3, #2
 8001d0c:	d003      	beq.n	8001d16 <DoorControl_Close+0x36>
 8001d0e:	687b      	ldr	r3, [r7, #4]
 8001d10:	785b      	ldrb	r3, [r3, #1]
 8001d12:	2b01      	cmp	r3, #1
 8001d14:	d13d      	bne.n	8001d92 <DoorControl_Close+0xb2>
        printf("[CMD] Sending CLOSE command (target: %u)\r\n", DOOR_POS_CLOSED);
 8001d16:	f640 11de 	movw	r1, #2526	@ 0x9de
 8001d1a:	4827      	ldr	r0, [pc, #156]	@ (8001db8 <DoorControl_Close+0xd8>)
 8001d1c:	f004 f8d0 	bl	8005ec0 <iprintf>
        printf("[DOOR_DEBUG] Position change: %u -> %u (delta: %d)\r\n", 
               door->current_pos, DOOR_POS_CLOSED, 
 8001d20:	687b      	ldr	r3, [r7, #4]
 8001d22:	885b      	ldrh	r3, [r3, #2]
        printf("[DOOR_DEBUG] Position change: %u -> %u (delta: %d)\r\n", 
 8001d24:	4619      	mov	r1, r3
               (int)DOOR_POS_CLOSED - (int)door->current_pos);
 8001d26:	687b      	ldr	r3, [r7, #4]
 8001d28:	885b      	ldrh	r3, [r3, #2]
        printf("[DOOR_DEBUG] Position change: %u -> %u (delta: %d)\r\n", 
 8001d2a:	f5c3 631d 	rsb	r3, r3, #2512	@ 0x9d0
 8001d2e:	330e      	adds	r3, #14
 8001d30:	f640 12de 	movw	r2, #2526	@ 0x9de
 8001d34:	4821      	ldr	r0, [pc, #132]	@ (8001dbc <DoorControl_Close+0xdc>)
 8001d36:	f004 f8c3 	bl	8005ec0 <iprintf>
        
        /* 使用循环延时避免阻塞 */
        for(volatile int i = 0; i < 50000; i++);  // 短延时
 8001d3a:	2300      	movs	r3, #0
 8001d3c:	60fb      	str	r3, [r7, #12]
 8001d3e:	e002      	b.n	8001d46 <DoorControl_Close+0x66>
 8001d40:	68fb      	ldr	r3, [r7, #12]
 8001d42:	3301      	adds	r3, #1
 8001d44:	60fb      	str	r3, [r7, #12]
 8001d46:	68fb      	ldr	r3, [r7, #12]
 8001d48:	f24c 324f 	movw	r2, #49999	@ 0xc34f
 8001d4c:	4293      	cmp	r3, r2
 8001d4e:	ddf7      	ble.n	8001d40 <DoorControl_Close+0x60>
        servo_set_position(door->servo_id, DOOR_POS_CLOSED);
 8001d50:	687b      	ldr	r3, [r7, #4]
 8001d52:	781b      	ldrb	r3, [r3, #0]
 8001d54:	f640 11de 	movw	r1, #2526	@ 0x9de
 8001d58:	4618      	mov	r0, r3
 8001d5a:	f000 fc34 	bl	80025c6 <servo_set_position>
        for(volatile int i = 0; i < 50000; i++);  // 给舵机时间处理命令
 8001d5e:	2300      	movs	r3, #0
 8001d60:	60bb      	str	r3, [r7, #8]
 8001d62:	e002      	b.n	8001d6a <DoorControl_Close+0x8a>
 8001d64:	68bb      	ldr	r3, [r7, #8]
 8001d66:	3301      	adds	r3, #1
 8001d68:	60bb      	str	r3, [r7, #8]
 8001d6a:	68bb      	ldr	r3, [r7, #8]
 8001d6c:	f24c 324f 	movw	r2, #49999	@ 0xc34f
 8001d70:	4293      	cmp	r3, r2
 8001d72:	ddf7      	ble.n	8001d64 <DoorControl_Close+0x84>
        
        door->target_pos = DOOR_POS_CLOSED;
 8001d74:	687b      	ldr	r3, [r7, #4]
 8001d76:	f640 12de 	movw	r2, #2526	@ 0x9de
 8001d7a:	809a      	strh	r2, [r3, #4]
        door->state = DOOR_STATE_CLOSING;
 8001d7c:	687b      	ldr	r3, [r7, #4]
 8001d7e:	2203      	movs	r2, #3
 8001d80:	705a      	strb	r2, [r3, #1]
        
        printf("[DOOR_DEBUG] State changed to CLOSING at tick %lu\r\n", HAL_GetTick());
 8001d82:	f001 fcc5 	bl	8003710 <HAL_GetTick>
 8001d86:	4603      	mov	r3, r0
 8001d88:	4619      	mov	r1, r3
 8001d8a:	480d      	ldr	r0, [pc, #52]	@ (8001dc0 <DoorControl_Close+0xe0>)
 8001d8c:	f004 f898 	bl	8005ec0 <iprintf>
 8001d90:	e00a      	b.n	8001da8 <DoorControl_Close+0xc8>
    } else {
        printf("[CMD] Cannot close - current state: %s\r\n", 
 8001d92:	687b      	ldr	r3, [r7, #4]
 8001d94:	785b      	ldrb	r3, [r3, #1]
 8001d96:	4618      	mov	r0, r3
 8001d98:	f000 f9aa 	bl	80020f0 <DoorControl_GetStateName>
 8001d9c:	4603      	mov	r3, r0
 8001d9e:	4619      	mov	r1, r3
 8001da0:	4808      	ldr	r0, [pc, #32]	@ (8001dc4 <DoorControl_Close+0xe4>)
 8001da2:	f004 f88d 	bl	8005ec0 <iprintf>
               DoorControl_GetStateName(door->state));
    }
}
 8001da6:	bf00      	nop
 8001da8:	bf00      	nop
 8001daa:	3710      	adds	r7, #16
 8001dac:	46bd      	mov	sp, r7
 8001dae:	bd80      	pop	{r7, pc}
 8001db0:	080075e0 	.word	0x080075e0
 8001db4:	080074ec 	.word	0x080074ec
 8001db8:	0800760c 	.word	0x0800760c
 8001dbc:	0800754c 	.word	0x0800754c
 8001dc0:	08007638 	.word	0x08007638
 8001dc4:	0800766c 	.word	0x0800766c

08001dc8 <DoorControl_Update>:

/**
 * @brief 更新门控状态（核心状态机 - 使用移动标志）
 */
void DoorControl_Update(DoorControl_t *door) {
 8001dc8:	b5f0      	push	{r4, r5, r6, r7, lr}
 8001dca:	b091      	sub	sp, #68	@ 0x44
 8001dcc:	af04      	add	r7, sp, #16
 8001dce:	6078      	str	r0, [r7, #4]
    update_count++;
 8001dd0:	4ba3      	ldr	r3, [pc, #652]	@ (8002060 <DoorControl_Update+0x298>)
 8001dd2:	681b      	ldr	r3, [r3, #0]
 8001dd4:	3301      	adds	r3, #1
 8001dd6:	4aa2      	ldr	r2, [pc, #648]	@ (8002060 <DoorControl_Update+0x298>)
 8001dd8:	6013      	str	r3, [r2, #0]
    
    /* 读取当前位置 - 带重试和验证 */
    uint8_t rx_data[2];
    uint16_t new_pos = 0;
 8001dda:	2300      	movs	r3, #0
 8001ddc:	85fb      	strh	r3, [r7, #46]	@ 0x2e
    bool pos_valid = false;
 8001dde:	2300      	movs	r3, #0
 8001de0:	f887 302d 	strb.w	r3, [r7, #45]	@ 0x2d
    
    for (int retry = 0; retry < 3; retry++) {
 8001de4:	2300      	movs	r3, #0
 8001de6:	62bb      	str	r3, [r7, #40]	@ 0x28
 8001de8:	e029      	b.n	8001e3e <DoorControl_Update+0x76>
        if (servo_read_reg(door->servo_id, 0x38, 2, rx_data) == 1) {  /* 返回1表示成功 */
 8001dea:	687b      	ldr	r3, [r7, #4]
 8001dec:	7818      	ldrb	r0, [r3, #0]
 8001dee:	f107 0314 	add.w	r3, r7, #20
 8001df2:	2202      	movs	r2, #2
 8001df4:	2138      	movs	r1, #56	@ 0x38
 8001df6:	f000 fb08 	bl	800240a <servo_read_reg>
 8001dfa:	4603      	mov	r3, r0
 8001dfc:	2b01      	cmp	r3, #1
 8001dfe:	d110      	bne.n	8001e22 <DoorControl_Update+0x5a>
            new_pos = rx_data[0] | (rx_data[1] << 8);
 8001e00:	7d3b      	ldrb	r3, [r7, #20]
 8001e02:	b21a      	sxth	r2, r3
 8001e04:	7d7b      	ldrb	r3, [r7, #21]
 8001e06:	b21b      	sxth	r3, r3
 8001e08:	021b      	lsls	r3, r3, #8
 8001e0a:	b21b      	sxth	r3, r3
 8001e0c:	4313      	orrs	r3, r2
 8001e0e:	b21b      	sxth	r3, r3
 8001e10:	85fb      	strh	r3, [r7, #46]	@ 0x2e
            
            /* 验证位置值是否合理（0-4095范围） */
            if (new_pos <= 4095) {
 8001e12:	8dfb      	ldrh	r3, [r7, #46]	@ 0x2e
 8001e14:	f5b3 5f80 	cmp.w	r3, #4096	@ 0x1000
 8001e18:	d203      	bcs.n	8001e22 <DoorControl_Update+0x5a>
                pos_valid = true;
 8001e1a:	2301      	movs	r3, #1
 8001e1c:	f887 302d 	strb.w	r3, [r7, #45]	@ 0x2d
                break;
 8001e20:	e010      	b.n	8001e44 <DoorControl_Update+0x7c>
            }
        }
        for(volatile int i = 0; i < 20000; i++);  /* 短暂延时后重试 */
 8001e22:	2300      	movs	r3, #0
 8001e24:	613b      	str	r3, [r7, #16]
 8001e26:	e002      	b.n	8001e2e <DoorControl_Update+0x66>
 8001e28:	693b      	ldr	r3, [r7, #16]
 8001e2a:	3301      	adds	r3, #1
 8001e2c:	613b      	str	r3, [r7, #16]
 8001e2e:	693b      	ldr	r3, [r7, #16]
 8001e30:	f644 621f 	movw	r2, #19999	@ 0x4e1f
 8001e34:	4293      	cmp	r3, r2
 8001e36:	ddf7      	ble.n	8001e28 <DoorControl_Update+0x60>
    for (int retry = 0; retry < 3; retry++) {
 8001e38:	6abb      	ldr	r3, [r7, #40]	@ 0x28
 8001e3a:	3301      	adds	r3, #1
 8001e3c:	62bb      	str	r3, [r7, #40]	@ 0x28
 8001e3e:	6abb      	ldr	r3, [r7, #40]	@ 0x28
 8001e40:	2b02      	cmp	r3, #2
 8001e42:	ddd2      	ble.n	8001dea <DoorControl_Update+0x22>
    }
    
    uint16_t old_pos = door->current_pos;
 8001e44:	687b      	ldr	r3, [r7, #4]
 8001e46:	885b      	ldrh	r3, [r3, #2]
 8001e48:	83fb      	strh	r3, [r7, #30]
    if (pos_valid) {
 8001e4a:	f897 302d 	ldrb.w	r3, [r7, #45]	@ 0x2d
 8001e4e:	2b00      	cmp	r3, #0
 8001e50:	d00c      	beq.n	8001e6c <DoorControl_Update+0xa4>
        door->current_pos = new_pos;
 8001e52:	687b      	ldr	r3, [r7, #4]
 8001e54:	8dfa      	ldrh	r2, [r7, #46]	@ 0x2e
 8001e56:	805a      	strh	r2, [r3, #2]
        
        /* 处理位置环绕 */
        if (door->current_pos > 4090) {
 8001e58:	687b      	ldr	r3, [r7, #4]
 8001e5a:	885b      	ldrh	r3, [r3, #2]
 8001e5c:	f640 72fa 	movw	r2, #4090	@ 0xffa
 8001e60:	4293      	cmp	r3, r2
 8001e62:	d908      	bls.n	8001e76 <DoorControl_Update+0xae>
            door->current_pos = 0;
 8001e64:	687b      	ldr	r3, [r7, #4]
 8001e66:	2200      	movs	r2, #0
 8001e68:	805a      	strh	r2, [r3, #2]
 8001e6a:	e004      	b.n	8001e76 <DoorControl_Update+0xae>
        }
    } else {
        printf("[DOOR] Warning: Failed to read position, keeping old value %u\r\n", old_pos);
 8001e6c:	8bfb      	ldrh	r3, [r7, #30]
 8001e6e:	4619      	mov	r1, r3
 8001e70:	487c      	ldr	r0, [pc, #496]	@ (8002064 <DoorControl_Update+0x29c>)
 8001e72:	f004 f825 	bl	8005ec0 <iprintf>
    }
    
    /* 读取移动标志 - 带重试和验证 */
    uint8_t moving_flag = 0;
 8001e76:	2300      	movs	r3, #0
 8001e78:	f887 3027 	strb.w	r3, [r7, #39]	@ 0x27
    bool flag_valid = false;
 8001e7c:	2300      	movs	r3, #0
 8001e7e:	f887 3026 	strb.w	r3, [r7, #38]	@ 0x26
    
    for (int retry = 0; retry < 3; retry++) {
 8001e82:	2300      	movs	r3, #0
 8001e84:	623b      	str	r3, [r7, #32]
 8001e86:	e036      	b.n	8001ef6 <DoorControl_Update+0x12e>
        uint8_t temp_flag;
        if (servo_read_reg(door->servo_id, 0x42, 1, &temp_flag) == 1) {  /* 返回1表示成功 */
 8001e88:	687b      	ldr	r3, [r7, #4]
 8001e8a:	7818      	ldrb	r0, [r3, #0]
 8001e8c:	f107 030f 	add.w	r3, r7, #15
 8001e90:	2201      	movs	r2, #1
 8001e92:	2142      	movs	r1, #66	@ 0x42
 8001e94:	f000 fab9 	bl	800240a <servo_read_reg>
 8001e98:	4603      	mov	r3, r0
 8001e9a:	2b01      	cmp	r3, #1
 8001e9c:	d11d      	bne.n	8001eda <DoorControl_Update+0x112>
            /* 验证标志值（应该是0或1） */
            if (temp_flag <= 1) {
 8001e9e:	7bfb      	ldrb	r3, [r7, #15]
 8001ea0:	2b01      	cmp	r3, #1
 8001ea2:	d806      	bhi.n	8001eb2 <DoorControl_Update+0xea>
                moving_flag = temp_flag;
 8001ea4:	7bfb      	ldrb	r3, [r7, #15]
 8001ea6:	f887 3027 	strb.w	r3, [r7, #39]	@ 0x27
                flag_valid = true;
 8001eaa:	2301      	movs	r3, #1
 8001eac:	f887 3026 	strb.w	r3, [r7, #38]	@ 0x26
                break;
 8001eb0:	e024      	b.n	8001efc <DoorControl_Update+0x134>
            } else if (temp_flag & 0x01) {
 8001eb2:	7bfb      	ldrb	r3, [r7, #15]
 8001eb4:	f003 0301 	and.w	r3, r3, #1
 8001eb8:	2b00      	cmp	r3, #0
 8001eba:	d00e      	beq.n	8001eda <DoorControl_Update+0x112>
                /* 如果是其他位被设置，只看最低位 */
                moving_flag = 1;
 8001ebc:	2301      	movs	r3, #1
 8001ebe:	f887 3027 	strb.w	r3, [r7, #39]	@ 0x27
                flag_valid = true;
 8001ec2:	2301      	movs	r3, #1
 8001ec4:	f887 3026 	strb.w	r3, [r7, #38]	@ 0x26
                printf("[DOOR] Moving flag raw value: 0x%02X, using bit 0: %d\r\n", temp_flag, moving_flag);
 8001ec8:	7bfb      	ldrb	r3, [r7, #15]
 8001eca:	4619      	mov	r1, r3
 8001ecc:	f897 3027 	ldrb.w	r3, [r7, #39]	@ 0x27
 8001ed0:	461a      	mov	r2, r3
 8001ed2:	4865      	ldr	r0, [pc, #404]	@ (8002068 <DoorControl_Update+0x2a0>)
 8001ed4:	f003 fff4 	bl	8005ec0 <iprintf>
                break;
 8001ed8:	e010      	b.n	8001efc <DoorControl_Update+0x134>
            }
        }
        for(volatile int i = 0; i < 20000; i++);  /* 短暂延时后重试 */
 8001eda:	2300      	movs	r3, #0
 8001edc:	60bb      	str	r3, [r7, #8]
 8001ede:	e002      	b.n	8001ee6 <DoorControl_Update+0x11e>
 8001ee0:	68bb      	ldr	r3, [r7, #8]
 8001ee2:	3301      	adds	r3, #1
 8001ee4:	60bb      	str	r3, [r7, #8]
 8001ee6:	68bb      	ldr	r3, [r7, #8]
 8001ee8:	f644 621f 	movw	r2, #19999	@ 0x4e1f
 8001eec:	4293      	cmp	r3, r2
 8001eee:	ddf7      	ble.n	8001ee0 <DoorControl_Update+0x118>
    for (int retry = 0; retry < 3; retry++) {
 8001ef0:	6a3b      	ldr	r3, [r7, #32]
 8001ef2:	3301      	adds	r3, #1
 8001ef4:	623b      	str	r3, [r7, #32]
 8001ef6:	6a3b      	ldr	r3, [r7, #32]
 8001ef8:	2b02      	cmp	r3, #2
 8001efa:	ddc5      	ble.n	8001e88 <DoorControl_Update+0xc0>
    }
    
    if (!flag_valid) {
 8001efc:	f897 3026 	ldrb.w	r3, [r7, #38]	@ 0x26
 8001f00:	f083 0301 	eor.w	r3, r3, #1
 8001f04:	b2db      	uxtb	r3, r3
 8001f06:	2b00      	cmp	r3, #0
 8001f08:	d005      	beq.n	8001f16 <DoorControl_Update+0x14e>
        printf("[DOOR] Warning: Failed to read moving flag, assuming stopped\r\n");
 8001f0a:	4858      	ldr	r0, [pc, #352]	@ (800206c <DoorControl_Update+0x2a4>)
 8001f0c:	f004 f840 	bl	8005f90 <puts>
        moving_flag = 0;
 8001f10:	2300      	movs	r3, #0
 8001f12:	f887 3027 	strb.w	r3, [r7, #39]	@ 0x27
    }
    
    /* 调试输出 - 每500ms或状态变化时 */
    static uint32_t last_debug_time = 0;
    static uint8_t last_moving_flag = 0xFF;
    uint32_t now = HAL_GetTick();
 8001f16:	f001 fbfb 	bl	8003710 <HAL_GetTick>
 8001f1a:	61b8      	str	r0, [r7, #24]
    
    if ((now - last_debug_time >= 500) || 
 8001f1c:	4b54      	ldr	r3, [pc, #336]	@ (8002070 <DoorControl_Update+0x2a8>)
 8001f1e:	681b      	ldr	r3, [r3, #0]
 8001f20:	69ba      	ldr	r2, [r7, #24]
 8001f22:	1ad3      	subs	r3, r2, r3
 8001f24:	f5b3 7ffa 	cmp.w	r3, #500	@ 0x1f4
 8001f28:	d20f      	bcs.n	8001f4a <DoorControl_Update+0x182>
        (moving_flag != last_moving_flag) ||
 8001f2a:	4b52      	ldr	r3, [pc, #328]	@ (8002074 <DoorControl_Update+0x2ac>)
 8001f2c:	781b      	ldrb	r3, [r3, #0]
    if ((now - last_debug_time >= 500) || 
 8001f2e:	f897 2027 	ldrb.w	r2, [r7, #39]	@ 0x27
 8001f32:	429a      	cmp	r2, r3
 8001f34:	d109      	bne.n	8001f4a <DoorControl_Update+0x182>
        (abs((int)door->current_pos - (int)old_pos) > 100)) {
 8001f36:	687b      	ldr	r3, [r7, #4]
 8001f38:	885b      	ldrh	r3, [r3, #2]
 8001f3a:	461a      	mov	r2, r3
 8001f3c:	8bfb      	ldrh	r3, [r7, #30]
 8001f3e:	1ad3      	subs	r3, r2, r3
 8001f40:	2b00      	cmp	r3, #0
 8001f42:	bfb8      	it	lt
 8001f44:	425b      	neglt	r3, r3
        (moving_flag != last_moving_flag) ||
 8001f46:	2b64      	cmp	r3, #100	@ 0x64
 8001f48:	dd22      	ble.n	8001f90 <DoorControl_Update+0x1c8>
        
        printf("[UPDATE] T=%lu, State=%s, Pos=%u, Target=%u, Moving=%d, dPos=%d\r\n",
 8001f4a:	687b      	ldr	r3, [r7, #4]
 8001f4c:	785b      	ldrb	r3, [r3, #1]
 8001f4e:	4618      	mov	r0, r3
 8001f50:	f000 f8ce 	bl	80020f0 <DoorControl_GetStateName>
 8001f54:	4601      	mov	r1, r0
               now, DoorControl_GetStateName(door->state),
               door->current_pos, door->target_pos, 
 8001f56:	687b      	ldr	r3, [r7, #4]
 8001f58:	885b      	ldrh	r3, [r3, #2]
        printf("[UPDATE] T=%lu, State=%s, Pos=%u, Target=%u, Moving=%d, dPos=%d\r\n",
 8001f5a:	461d      	mov	r5, r3
               door->current_pos, door->target_pos, 
 8001f5c:	687b      	ldr	r3, [r7, #4]
 8001f5e:	889b      	ldrh	r3, [r3, #4]
        printf("[UPDATE] T=%lu, State=%s, Pos=%u, Target=%u, Moving=%d, dPos=%d\r\n",
 8001f60:	4618      	mov	r0, r3
 8001f62:	f897 3027 	ldrb.w	r3, [r7, #39]	@ 0x27
               moving_flag, (int)door->current_pos - (int)old_pos);
 8001f66:	687a      	ldr	r2, [r7, #4]
 8001f68:	8852      	ldrh	r2, [r2, #2]
 8001f6a:	4614      	mov	r4, r2
 8001f6c:	8bfa      	ldrh	r2, [r7, #30]
        printf("[UPDATE] T=%lu, State=%s, Pos=%u, Target=%u, Moving=%d, dPos=%d\r\n",
 8001f6e:	1aa2      	subs	r2, r4, r2
 8001f70:	9202      	str	r2, [sp, #8]
 8001f72:	9301      	str	r3, [sp, #4]
 8001f74:	9000      	str	r0, [sp, #0]
 8001f76:	462b      	mov	r3, r5
 8001f78:	460a      	mov	r2, r1
 8001f7a:	69b9      	ldr	r1, [r7, #24]
 8001f7c:	483e      	ldr	r0, [pc, #248]	@ (8002078 <DoorControl_Update+0x2b0>)
 8001f7e:	f003 ff9f 	bl	8005ec0 <iprintf>
        
        last_debug_time = now;
 8001f82:	4a3b      	ldr	r2, [pc, #236]	@ (8002070 <DoorControl_Update+0x2a8>)
 8001f84:	69bb      	ldr	r3, [r7, #24]
 8001f86:	6013      	str	r3, [r2, #0]
        last_moving_flag = moving_flag;
 8001f88:	4a3a      	ldr	r2, [pc, #232]	@ (8002074 <DoorControl_Update+0x2ac>)
 8001f8a:	f897 3027 	ldrb.w	r3, [r7, #39]	@ 0x27
 8001f8e:	7013      	strb	r3, [r2, #0]
    }
    
    /* 保存旧状态 */
    DoorState_t old_state = door->state;
 8001f90:	687b      	ldr	r3, [r7, #4]
 8001f92:	785b      	ldrb	r3, [r3, #1]
 8001f94:	75fb      	strb	r3, [r7, #23]
    
    /* 状态机逻辑 */
    switch (door->state) {
 8001f96:	687b      	ldr	r3, [r7, #4]
 8001f98:	785b      	ldrb	r3, [r3, #1]
 8001f9a:	2b03      	cmp	r3, #3
 8001f9c:	d87b      	bhi.n	8002096 <DoorControl_Update+0x2ce>
 8001f9e:	a201      	add	r2, pc, #4	@ (adr r2, 8001fa4 <DoorControl_Update+0x1dc>)
 8001fa0:	f852 f023 	ldr.w	pc, [r2, r3, lsl #2]
 8001fa4:	08002097 	.word	0x08002097
 8001fa8:	08001fb5 	.word	0x08001fb5
 8001fac:	08002097 	.word	0x08002097
 8001fb0:	08002009 	.word	0x08002009
            // 命令在外部发送
            break;
            
        case DOOR_STATE_OPENING:
            /* 正在开门 - 检查是否停止 */
            printf("[OPENING_CHECK] Moving=%d, Pos=%u, Target=%u, Time since cmd=%lu ms\r\n",
 8001fb4:	f897 4027 	ldrb.w	r4, [r7, #39]	@ 0x27
                   moving_flag, door->current_pos, door->target_pos,
 8001fb8:	687b      	ldr	r3, [r7, #4]
 8001fba:	885b      	ldrh	r3, [r3, #2]
            printf("[OPENING_CHECK] Moving=%d, Pos=%u, Target=%u, Time since cmd=%lu ms\r\n",
 8001fbc:	461d      	mov	r5, r3
                   moving_flag, door->current_pos, door->target_pos,
 8001fbe:	687b      	ldr	r3, [r7, #4]
 8001fc0:	889b      	ldrh	r3, [r3, #4]
            printf("[OPENING_CHECK] Moving=%d, Pos=%u, Target=%u, Time since cmd=%lu ms\r\n",
 8001fc2:	461e      	mov	r6, r3
                   HAL_GetTick() - door->last_update_time);
 8001fc4:	f001 fba4 	bl	8003710 <HAL_GetTick>
 8001fc8:	4602      	mov	r2, r0
 8001fca:	687b      	ldr	r3, [r7, #4]
 8001fcc:	689b      	ldr	r3, [r3, #8]
            printf("[OPENING_CHECK] Moving=%d, Pos=%u, Target=%u, Time since cmd=%lu ms\r\n",
 8001fce:	1ad3      	subs	r3, r2, r3
 8001fd0:	9300      	str	r3, [sp, #0]
 8001fd2:	4633      	mov	r3, r6
 8001fd4:	462a      	mov	r2, r5
 8001fd6:	4621      	mov	r1, r4
 8001fd8:	4828      	ldr	r0, [pc, #160]	@ (800207c <DoorControl_Update+0x2b4>)
 8001fda:	f003 ff71 	bl	8005ec0 <iprintf>
            
            if (!moving_flag) {
 8001fde:	f897 3027 	ldrb.w	r3, [r7, #39]	@ 0x27
 8001fe2:	2b00      	cmp	r3, #0
 8001fe4:	d13a      	bne.n	800205c <DoorControl_Update+0x294>
                /* 舵机停止了，假设门已开 */
                door->state = DOOR_STATE_OPEN;
 8001fe6:	687b      	ldr	r3, [r7, #4]
 8001fe8:	2202      	movs	r2, #2
 8001fea:	705a      	strb	r2, [r3, #1]
                printf("[STATE] OPENING -> OPEN (motor stopped at pos %u)\r\n", door->current_pos);
 8001fec:	687b      	ldr	r3, [r7, #4]
 8001fee:	885b      	ldrh	r3, [r3, #2]
 8001ff0:	4619      	mov	r1, r3
 8001ff2:	4823      	ldr	r0, [pc, #140]	@ (8002080 <DoorControl_Update+0x2b8>)
 8001ff4:	f003 ff64 	bl	8005ec0 <iprintf>
                printf("[DOOR_DEBUG] Door OPEN detected at tick %lu\r\n", HAL_GetTick());
 8001ff8:	f001 fb8a 	bl	8003710 <HAL_GetTick>
 8001ffc:	4603      	mov	r3, r0
 8001ffe:	4619      	mov	r1, r3
 8002000:	4820      	ldr	r0, [pc, #128]	@ (8002084 <DoorControl_Update+0x2bc>)
 8002002:	f003 ff5d 	bl	8005ec0 <iprintf>
            }
            break;
 8002006:	e029      	b.n	800205c <DoorControl_Update+0x294>
            // 命令在外部发送
            break;
            
        case DOOR_STATE_CLOSING:
            /* 正在关门 - 检查是否停止 */
            printf("[CLOSING_CHECK] Moving=%d, Pos=%u, Target=%u, Time since cmd=%lu ms\r\n",
 8002008:	f897 4027 	ldrb.w	r4, [r7, #39]	@ 0x27
                   moving_flag, door->current_pos, door->target_pos,
 800200c:	687b      	ldr	r3, [r7, #4]
 800200e:	885b      	ldrh	r3, [r3, #2]
            printf("[CLOSING_CHECK] Moving=%d, Pos=%u, Target=%u, Time since cmd=%lu ms\r\n",
 8002010:	461d      	mov	r5, r3
                   moving_flag, door->current_pos, door->target_pos,
 8002012:	687b      	ldr	r3, [r7, #4]
 8002014:	889b      	ldrh	r3, [r3, #4]
            printf("[CLOSING_CHECK] Moving=%d, Pos=%u, Target=%u, Time since cmd=%lu ms\r\n",
 8002016:	461e      	mov	r6, r3
                   HAL_GetTick() - door->last_update_time);
 8002018:	f001 fb7a 	bl	8003710 <HAL_GetTick>
 800201c:	4602      	mov	r2, r0
 800201e:	687b      	ldr	r3, [r7, #4]
 8002020:	689b      	ldr	r3, [r3, #8]
            printf("[CLOSING_CHECK] Moving=%d, Pos=%u, Target=%u, Time since cmd=%lu ms\r\n",
 8002022:	1ad3      	subs	r3, r2, r3
 8002024:	9300      	str	r3, [sp, #0]
 8002026:	4633      	mov	r3, r6
 8002028:	462a      	mov	r2, r5
 800202a:	4621      	mov	r1, r4
 800202c:	4816      	ldr	r0, [pc, #88]	@ (8002088 <DoorControl_Update+0x2c0>)
 800202e:	f003 ff47 	bl	8005ec0 <iprintf>
            
            if (!moving_flag) {
 8002032:	f897 3027 	ldrb.w	r3, [r7, #39]	@ 0x27
 8002036:	2b00      	cmp	r3, #0
 8002038:	d12c      	bne.n	8002094 <DoorControl_Update+0x2cc>
                /* 舵机停止了，假设门已关 */
                door->state = DOOR_STATE_CLOSED;
 800203a:	687b      	ldr	r3, [r7, #4]
 800203c:	2200      	movs	r2, #0
 800203e:	705a      	strb	r2, [r3, #1]
                printf("[STATE] CLOSING -> CLOSED (motor stopped at pos %u)\r\n", door->current_pos);
 8002040:	687b      	ldr	r3, [r7, #4]
 8002042:	885b      	ldrh	r3, [r3, #2]
 8002044:	4619      	mov	r1, r3
 8002046:	4811      	ldr	r0, [pc, #68]	@ (800208c <DoorControl_Update+0x2c4>)
 8002048:	f003 ff3a 	bl	8005ec0 <iprintf>
                printf("[DOOR_DEBUG] Door CLOSED detected at tick %lu\r\n", HAL_GetTick());
 800204c:	f001 fb60 	bl	8003710 <HAL_GetTick>
 8002050:	4603      	mov	r3, r0
 8002052:	4619      	mov	r1, r3
 8002054:	480e      	ldr	r0, [pc, #56]	@ (8002090 <DoorControl_Update+0x2c8>)
 8002056:	f003 ff33 	bl	8005ec0 <iprintf>
            }
            break;
 800205a:	e01b      	b.n	8002094 <DoorControl_Update+0x2cc>
            break;
 800205c:	bf00      	nop
 800205e:	e01a      	b.n	8002096 <DoorControl_Update+0x2ce>
 8002060:	200006ec 	.word	0x200006ec
 8002064:	08007698 	.word	0x08007698
 8002068:	080076d8 	.word	0x080076d8
 800206c:	08007710 	.word	0x08007710
 8002070:	200006f0 	.word	0x200006f0
 8002074:	20000000 	.word	0x20000000
 8002078:	08007750 	.word	0x08007750
 800207c:	08007794 	.word	0x08007794
 8002080:	080077dc 	.word	0x080077dc
 8002084:	08007810 	.word	0x08007810
 8002088:	08007840 	.word	0x08007840
 800208c:	08007888 	.word	0x08007888
 8002090:	080078c0 	.word	0x080078c0
            break;
 8002094:	bf00      	nop
    }
    
    /* 状态变化时输出 */
    if (door->state != old_state) {
 8002096:	687b      	ldr	r3, [r7, #4]
 8002098:	785b      	ldrb	r3, [r3, #1]
 800209a:	7dfa      	ldrb	r2, [r7, #23]
 800209c:	429a      	cmp	r2, r3
 800209e:	d00f      	beq.n	80020c0 <DoorControl_Update+0x2f8>
        printf("\r\n[TRANSITION] %s -> %s\r\n", 
 80020a0:	7dfb      	ldrb	r3, [r7, #23]
 80020a2:	4618      	mov	r0, r3
 80020a4:	f000 f824 	bl	80020f0 <DoorControl_GetStateName>
 80020a8:	4604      	mov	r4, r0
 80020aa:	687b      	ldr	r3, [r7, #4]
 80020ac:	785b      	ldrb	r3, [r3, #1]
 80020ae:	4618      	mov	r0, r3
 80020b0:	f000 f81e 	bl	80020f0 <DoorControl_GetStateName>
 80020b4:	4603      	mov	r3, r0
 80020b6:	461a      	mov	r2, r3
 80020b8:	4621      	mov	r1, r4
 80020ba:	4806      	ldr	r0, [pc, #24]	@ (80020d4 <DoorControl_Update+0x30c>)
 80020bc:	f003 ff00 	bl	8005ec0 <iprintf>
               DoorControl_GetStateName(old_state),
               DoorControl_GetStateName(door->state));
    }
    
    door->last_update_time = HAL_GetTick();
 80020c0:	f001 fb26 	bl	8003710 <HAL_GetTick>
 80020c4:	4602      	mov	r2, r0
 80020c6:	687b      	ldr	r3, [r7, #4]
 80020c8:	609a      	str	r2, [r3, #8]
}
 80020ca:	bf00      	nop
 80020cc:	3734      	adds	r7, #52	@ 0x34
 80020ce:	46bd      	mov	sp, r7
 80020d0:	bdf0      	pop	{r4, r5, r6, r7, pc}
 80020d2:	bf00      	nop
 80020d4:	080078f0 	.word	0x080078f0

080020d8 <DoorControl_GetState>:

/**
 * @brief 获取当前状态
 */
DoorState_t DoorControl_GetState(DoorControl_t *door) {
 80020d8:	b480      	push	{r7}
 80020da:	b083      	sub	sp, #12
 80020dc:	af00      	add	r7, sp, #0
 80020de:	6078      	str	r0, [r7, #4]
    return door->state;
 80020e0:	687b      	ldr	r3, [r7, #4]
 80020e2:	785b      	ldrb	r3, [r3, #1]
}
 80020e4:	4618      	mov	r0, r3
 80020e6:	370c      	adds	r7, #12
 80020e8:	46bd      	mov	sp, r7
 80020ea:	bc80      	pop	{r7}
 80020ec:	4770      	bx	lr
	...

080020f0 <DoorControl_GetStateName>:

/**
 * @brief 获取状态名称字符串
 */
const char* DoorControl_GetStateName(DoorState_t state) {
 80020f0:	b480      	push	{r7}
 80020f2:	b083      	sub	sp, #12
 80020f4:	af00      	add	r7, sp, #0
 80020f6:	4603      	mov	r3, r0
 80020f8:	71fb      	strb	r3, [r7, #7]
    switch (state) {
 80020fa:	79fb      	ldrb	r3, [r7, #7]
 80020fc:	2b03      	cmp	r3, #3
 80020fe:	d813      	bhi.n	8002128 <DoorControl_GetStateName+0x38>
 8002100:	a201      	add	r2, pc, #4	@ (adr r2, 8002108 <DoorControl_GetStateName+0x18>)
 8002102:	f852 f023 	ldr.w	pc, [r2, r3, lsl #2]
 8002106:	bf00      	nop
 8002108:	08002119 	.word	0x08002119
 800210c:	0800211d 	.word	0x0800211d
 8002110:	08002121 	.word	0x08002121
 8002114:	08002125 	.word	0x08002125
        case DOOR_STATE_CLOSED:  return "CLOSED";
 8002118:	4b06      	ldr	r3, [pc, #24]	@ (8002134 <DoorControl_GetStateName+0x44>)
 800211a:	e006      	b.n	800212a <DoorControl_GetStateName+0x3a>
        case DOOR_STATE_OPENING: return "OPENING";
 800211c:	4b06      	ldr	r3, [pc, #24]	@ (8002138 <DoorControl_GetStateName+0x48>)
 800211e:	e004      	b.n	800212a <DoorControl_GetStateName+0x3a>
        case DOOR_STATE_OPEN:    return "OPEN";
 8002120:	4b06      	ldr	r3, [pc, #24]	@ (800213c <DoorControl_GetStateName+0x4c>)
 8002122:	e002      	b.n	800212a <DoorControl_GetStateName+0x3a>
        case DOOR_STATE_CLOSING: return "CLOSING";
 8002124:	4b06      	ldr	r3, [pc, #24]	@ (8002140 <DoorControl_GetStateName+0x50>)
 8002126:	e000      	b.n	800212a <DoorControl_GetStateName+0x3a>
        default: return "UNKNOWN";
 8002128:	4b06      	ldr	r3, [pc, #24]	@ (8002144 <DoorControl_GetStateName+0x54>)
    }
}
 800212a:	4618      	mov	r0, r3
 800212c:	370c      	adds	r7, #12
 800212e:	46bd      	mov	sp, r7
 8002130:	bc80      	pop	{r7}
 8002132:	4770      	bx	lr
 8002134:	0800790c 	.word	0x0800790c
 8002138:	08007914 	.word	0x08007914
 800213c:	0800791c 	.word	0x0800791c
 8002140:	08007924 	.word	0x08007924
 8002144:	0800792c 	.word	0x0800792c

08002148 <calculate_checksum>:
#include <stdio.h>   // 用于printf调试

static UART_HandleTypeDef *servo_uart;  // USART句柄

// 函数：计算校验和
static uint8_t calculate_checksum(uint8_t *packet, uint8_t len) {
 8002148:	b480      	push	{r7}
 800214a:	b085      	sub	sp, #20
 800214c:	af00      	add	r7, sp, #0
 800214e:	6078      	str	r0, [r7, #4]
 8002150:	460b      	mov	r3, r1
 8002152:	70fb      	strb	r3, [r7, #3]
    uint8_t sum = 0;
 8002154:	2300      	movs	r3, #0
 8002156:	73fb      	strb	r3, [r7, #15]
    for (uint8_t i = 2; i < len - 1; i++) {  // 从ID到Params结束
 8002158:	2302      	movs	r3, #2
 800215a:	73bb      	strb	r3, [r7, #14]
 800215c:	e009      	b.n	8002172 <calculate_checksum+0x2a>
        sum += packet[i];
 800215e:	7bbb      	ldrb	r3, [r7, #14]
 8002160:	687a      	ldr	r2, [r7, #4]
 8002162:	4413      	add	r3, r2
 8002164:	781a      	ldrb	r2, [r3, #0]
 8002166:	7bfb      	ldrb	r3, [r7, #15]
 8002168:	4413      	add	r3, r2
 800216a:	73fb      	strb	r3, [r7, #15]
    for (uint8_t i = 2; i < len - 1; i++) {  // 从ID到Params结束
 800216c:	7bbb      	ldrb	r3, [r7, #14]
 800216e:	3301      	adds	r3, #1
 8002170:	73bb      	strb	r3, [r7, #14]
 8002172:	7bba      	ldrb	r2, [r7, #14]
 8002174:	78fb      	ldrb	r3, [r7, #3]
 8002176:	3b01      	subs	r3, #1
 8002178:	429a      	cmp	r2, r3
 800217a:	dbf0      	blt.n	800215e <calculate_checksum+0x16>
    }
    return ~sum;
 800217c:	7bfb      	ldrb	r3, [r7, #15]
 800217e:	43db      	mvns	r3, r3
 8002180:	b2db      	uxtb	r3, r3
}
 8002182:	4618      	mov	r0, r3
 8002184:	3714      	adds	r7, #20
 8002186:	46bd      	mov	sp, r7
 8002188:	bc80      	pop	{r7}
 800218a:	4770      	bx	lr

0800218c <send_packet>:

// 函数：发送包
static void send_packet(uint8_t *packet, uint8_t len) {
 800218c:	b580      	push	{r7, lr}
 800218e:	b082      	sub	sp, #8
 8002190:	af00      	add	r7, sp, #0
 8002192:	6078      	str	r0, [r7, #4]
 8002194:	460b      	mov	r3, r1
 8002196:	70fb      	strb	r3, [r7, #3]
    HAL_UART_Transmit(servo_uart, packet, len, 50);  // 50ms超时，避免永久阻塞
 8002198:	4b05      	ldr	r3, [pc, #20]	@ (80021b0 <send_packet+0x24>)
 800219a:	6818      	ldr	r0, [r3, #0]
 800219c:	78fb      	ldrb	r3, [r7, #3]
 800219e:	b29a      	uxth	r2, r3
 80021a0:	2332      	movs	r3, #50	@ 0x32
 80021a2:	6879      	ldr	r1, [r7, #4]
 80021a4:	f002 fcbe 	bl	8004b24 <HAL_UART_Transmit>
}
 80021a8:	bf00      	nop
 80021aa:	3708      	adds	r7, #8
 80021ac:	46bd      	mov	sp, r7
 80021ae:	bd80      	pop	{r7, pc}
 80021b0:	200006f4 	.word	0x200006f4

080021b4 <receive_packet>:

// 函数：接收包（简单阻塞式，假设响应快速；实际可加超时/DMA）
static HAL_StatusTypeDef receive_packet(uint8_t *rx_packet, uint8_t expected_len) {
 80021b4:	b580      	push	{r7, lr}
 80021b6:	b082      	sub	sp, #8
 80021b8:	af00      	add	r7, sp, #0
 80021ba:	6078      	str	r0, [r7, #4]
 80021bc:	460b      	mov	r3, r1
 80021be:	70fb      	strb	r3, [r7, #3]
    return HAL_UART_Receive(servo_uart, rx_packet, expected_len, 100);  // 返回状态，超时100ms
 80021c0:	4b06      	ldr	r3, [pc, #24]	@ (80021dc <receive_packet+0x28>)
 80021c2:	6818      	ldr	r0, [r3, #0]
 80021c4:	78fb      	ldrb	r3, [r7, #3]
 80021c6:	b29a      	uxth	r2, r3
 80021c8:	2364      	movs	r3, #100	@ 0x64
 80021ca:	6879      	ldr	r1, [r7, #4]
 80021cc:	f002 fd35 	bl	8004c3a <HAL_UART_Receive>
 80021d0:	4603      	mov	r3, r0
}
 80021d2:	4618      	mov	r0, r3
 80021d4:	3708      	adds	r7, #8
 80021d6:	46bd      	mov	sp, r7
 80021d8:	bd80      	pop	{r7, pc}
 80021da:	bf00      	nop
 80021dc:	200006f4 	.word	0x200006f4

080021e0 <servo_init>:

// 初始化（默认波特率1M，无需设置寄存器0x06，因为初始值0=1M）
void servo_init(UART_HandleTypeDef *huart) {
 80021e0:	b580      	push	{r7, lr}
 80021e2:	b082      	sub	sp, #8
 80021e4:	af00      	add	r7, sp, #0
 80021e6:	6078      	str	r0, [r7, #4]
    servo_uart = huart;
 80021e8:	4a07      	ldr	r2, [pc, #28]	@ (8002208 <servo_init+0x28>)
 80021ea:	687b      	ldr	r3, [r7, #4]
 80021ec:	6013      	str	r3, [r2, #0]
    // 可在此PING舵机确认连接
    servo_ping(SERVO_DEFAULT_ID);
 80021ee:	2001      	movs	r0, #1
 80021f0:	f000 f80c 	bl	800220c <servo_ping>
    
    // 设置默认最大速度
    servo_set_speed(SERVO_DEFAULT_ID, 4095);  // 最大速度
 80021f4:	f640 71ff 	movw	r1, #4095	@ 0xfff
 80021f8:	2001      	movs	r0, #1
 80021fa:	f000 f9c8 	bl	800258e <servo_set_speed>
}
 80021fe:	bf00      	nop
 8002200:	3708      	adds	r7, #8
 8002202:	46bd      	mov	sp, r7
 8002204:	bd80      	pop	{r7, pc}
 8002206:	bf00      	nop
 8002208:	200006f4 	.word	0x200006f4

0800220c <servo_ping>:

// PING
uint8_t servo_ping(uint8_t id) {
 800220c:	b580      	push	{r7, lr}
 800220e:	b086      	sub	sp, #24
 8002210:	af00      	add	r7, sp, #0
 8002212:	4603      	mov	r3, r0
 8002214:	71fb      	strb	r3, [r7, #7]
    uint8_t packet[6] = {0xFF, 0xFF, id, 0x02, SERVO_INST_PING, 0x00};
 8002216:	23ff      	movs	r3, #255	@ 0xff
 8002218:	743b      	strb	r3, [r7, #16]
 800221a:	23ff      	movs	r3, #255	@ 0xff
 800221c:	747b      	strb	r3, [r7, #17]
 800221e:	79fb      	ldrb	r3, [r7, #7]
 8002220:	74bb      	strb	r3, [r7, #18]
 8002222:	2302      	movs	r3, #2
 8002224:	74fb      	strb	r3, [r7, #19]
 8002226:	2301      	movs	r3, #1
 8002228:	753b      	strb	r3, [r7, #20]
 800222a:	2300      	movs	r3, #0
 800222c:	757b      	strb	r3, [r7, #21]
    packet[5] = calculate_checksum(packet, 6);
 800222e:	f107 0310 	add.w	r3, r7, #16
 8002232:	2106      	movs	r1, #6
 8002234:	4618      	mov	r0, r3
 8002236:	f7ff ff87 	bl	8002148 <calculate_checksum>
 800223a:	4603      	mov	r3, r0
 800223c:	757b      	strb	r3, [r7, #21]
    send_packet(packet, 6);
 800223e:	f107 0310 	add.w	r3, r7, #16
 8002242:	2106      	movs	r1, #6
 8002244:	4618      	mov	r0, r3
 8002246:	f7ff ffa1 	bl	800218c <send_packet>

    uint8_t rx_packet[6];
    if (receive_packet(rx_packet, 6) == HAL_OK &&
 800224a:	f107 0308 	add.w	r3, r7, #8
 800224e:	2106      	movs	r1, #6
 8002250:	4618      	mov	r0, r3
 8002252:	f7ff ffaf 	bl	80021b4 <receive_packet>
 8002256:	4603      	mov	r3, r0
 8002258:	2b00      	cmp	r3, #0
 800225a:	d111      	bne.n	8002280 <servo_ping+0x74>
        rx_packet[0] == 0xFF && rx_packet[1] == 0xFF && rx_packet[2] == id &&
 800225c:	7a3b      	ldrb	r3, [r7, #8]
    if (receive_packet(rx_packet, 6) == HAL_OK &&
 800225e:	2bff      	cmp	r3, #255	@ 0xff
 8002260:	d10e      	bne.n	8002280 <servo_ping+0x74>
        rx_packet[0] == 0xFF && rx_packet[1] == 0xFF && rx_packet[2] == id &&
 8002262:	7a7b      	ldrb	r3, [r7, #9]
 8002264:	2bff      	cmp	r3, #255	@ 0xff
 8002266:	d10b      	bne.n	8002280 <servo_ping+0x74>
 8002268:	7abb      	ldrb	r3, [r7, #10]
 800226a:	79fa      	ldrb	r2, [r7, #7]
 800226c:	429a      	cmp	r2, r3
 800226e:	d107      	bne.n	8002280 <servo_ping+0x74>
        rx_packet[3] == 0x02 && rx_packet[4] == 0x00) {
 8002270:	7afb      	ldrb	r3, [r7, #11]
        rx_packet[0] == 0xFF && rx_packet[1] == 0xFF && rx_packet[2] == id &&
 8002272:	2b02      	cmp	r3, #2
 8002274:	d104      	bne.n	8002280 <servo_ping+0x74>
        rx_packet[3] == 0x02 && rx_packet[4] == 0x00) {
 8002276:	7b3b      	ldrb	r3, [r7, #12]
 8002278:	2b00      	cmp	r3, #0
 800227a:	d101      	bne.n	8002280 <servo_ping+0x74>
        return 1;  // 成功
 800227c:	2301      	movs	r3, #1
 800227e:	e000      	b.n	8002282 <servo_ping+0x76>
    }
    return 0;
 8002280:	2300      	movs	r3, #0
}
 8002282:	4618      	mov	r0, r3
 8002284:	3718      	adds	r7, #24
 8002286:	46bd      	mov	sp, r7
 8002288:	bd80      	pop	{r7, pc}

0800228a <servo_write_reg>:

// 写寄存器（低字节在前）
void servo_write_reg(uint8_t id, uint8_t reg_addr, uint8_t *data, uint8_t data_len) {
 800228a:	b590      	push	{r4, r7, lr}
 800228c:	b0c7      	sub	sp, #284	@ 0x11c
 800228e:	af00      	add	r7, sp, #0
 8002290:	4604      	mov	r4, r0
 8002292:	4608      	mov	r0, r1
 8002294:	f507 718c 	add.w	r1, r7, #280	@ 0x118
 8002298:	f5a1 718c 	sub.w	r1, r1, #280	@ 0x118
 800229c:	600a      	str	r2, [r1, #0]
 800229e:	4619      	mov	r1, r3
 80022a0:	f507 738c 	add.w	r3, r7, #280	@ 0x118
 80022a4:	f2a3 1311 	subw	r3, r3, #273	@ 0x111
 80022a8:	4622      	mov	r2, r4
 80022aa:	701a      	strb	r2, [r3, #0]
 80022ac:	f507 738c 	add.w	r3, r7, #280	@ 0x118
 80022b0:	f5a3 7389 	sub.w	r3, r3, #274	@ 0x112
 80022b4:	4602      	mov	r2, r0
 80022b6:	701a      	strb	r2, [r3, #0]
 80022b8:	f507 738c 	add.w	r3, r7, #280	@ 0x118
 80022bc:	f2a3 1313 	subw	r3, r3, #275	@ 0x113
 80022c0:	460a      	mov	r2, r1
 80022c2:	701a      	strb	r2, [r3, #0]
    uint8_t packet[256];
    uint8_t idx = 0;
 80022c4:	2300      	movs	r3, #0
 80022c6:	f887 3117 	strb.w	r3, [r7, #279]	@ 0x117
    packet[idx++] = 0xFF;
 80022ca:	f897 3117 	ldrb.w	r3, [r7, #279]	@ 0x117
 80022ce:	1c5a      	adds	r2, r3, #1
 80022d0:	f887 2117 	strb.w	r2, [r7, #279]	@ 0x117
 80022d4:	461a      	mov	r2, r3
 80022d6:	f507 738c 	add.w	r3, r7, #280	@ 0x118
 80022da:	f5a3 7382 	sub.w	r3, r3, #260	@ 0x104
 80022de:	21ff      	movs	r1, #255	@ 0xff
 80022e0:	5499      	strb	r1, [r3, r2]
    packet[idx++] = 0xFF;
 80022e2:	f897 3117 	ldrb.w	r3, [r7, #279]	@ 0x117
 80022e6:	1c5a      	adds	r2, r3, #1
 80022e8:	f887 2117 	strb.w	r2, [r7, #279]	@ 0x117
 80022ec:	461a      	mov	r2, r3
 80022ee:	f507 738c 	add.w	r3, r7, #280	@ 0x118
 80022f2:	f5a3 7382 	sub.w	r3, r3, #260	@ 0x104
 80022f6:	21ff      	movs	r1, #255	@ 0xff
 80022f8:	5499      	strb	r1, [r3, r2]
    packet[idx++] = id;
 80022fa:	f897 3117 	ldrb.w	r3, [r7, #279]	@ 0x117
 80022fe:	1c5a      	adds	r2, r3, #1
 8002300:	f887 2117 	strb.w	r2, [r7, #279]	@ 0x117
 8002304:	4619      	mov	r1, r3
 8002306:	f507 738c 	add.w	r3, r7, #280	@ 0x118
 800230a:	f5a3 7382 	sub.w	r3, r3, #260	@ 0x104
 800230e:	f507 728c 	add.w	r2, r7, #280	@ 0x118
 8002312:	f2a2 1211 	subw	r2, r2, #273	@ 0x111
 8002316:	7812      	ldrb	r2, [r2, #0]
 8002318:	545a      	strb	r2, [r3, r1]
    packet[idx++] = data_len + 3;  // Length = Instr + Addr + Data
 800231a:	f897 3117 	ldrb.w	r3, [r7, #279]	@ 0x117
 800231e:	1c5a      	adds	r2, r3, #1
 8002320:	f887 2117 	strb.w	r2, [r7, #279]	@ 0x117
 8002324:	461a      	mov	r2, r3
 8002326:	f507 738c 	add.w	r3, r7, #280	@ 0x118
 800232a:	f2a3 1313 	subw	r3, r3, #275	@ 0x113
 800232e:	781b      	ldrb	r3, [r3, #0]
 8002330:	3303      	adds	r3, #3
 8002332:	b2d9      	uxtb	r1, r3
 8002334:	f507 738c 	add.w	r3, r7, #280	@ 0x118
 8002338:	f5a3 7382 	sub.w	r3, r3, #260	@ 0x104
 800233c:	5499      	strb	r1, [r3, r2]
    packet[idx++] = SERVO_INST_WRITE;
 800233e:	f897 3117 	ldrb.w	r3, [r7, #279]	@ 0x117
 8002342:	1c5a      	adds	r2, r3, #1
 8002344:	f887 2117 	strb.w	r2, [r7, #279]	@ 0x117
 8002348:	461a      	mov	r2, r3
 800234a:	f507 738c 	add.w	r3, r7, #280	@ 0x118
 800234e:	f5a3 7382 	sub.w	r3, r3, #260	@ 0x104
 8002352:	2103      	movs	r1, #3
 8002354:	5499      	strb	r1, [r3, r2]
    packet[idx++] = reg_addr;
 8002356:	f897 3117 	ldrb.w	r3, [r7, #279]	@ 0x117
 800235a:	1c5a      	adds	r2, r3, #1
 800235c:	f887 2117 	strb.w	r2, [r7, #279]	@ 0x117
 8002360:	4619      	mov	r1, r3
 8002362:	f507 738c 	add.w	r3, r7, #280	@ 0x118
 8002366:	f5a3 7382 	sub.w	r3, r3, #260	@ 0x104
 800236a:	f507 728c 	add.w	r2, r7, #280	@ 0x118
 800236e:	f5a2 7289 	sub.w	r2, r2, #274	@ 0x112
 8002372:	7812      	ldrb	r2, [r2, #0]
 8002374:	545a      	strb	r2, [r3, r1]
    memcpy(&packet[idx], data, data_len);
 8002376:	f897 3117 	ldrb.w	r3, [r7, #279]	@ 0x117
 800237a:	f107 0214 	add.w	r2, r7, #20
 800237e:	18d0      	adds	r0, r2, r3
 8002380:	f507 738c 	add.w	r3, r7, #280	@ 0x118
 8002384:	f2a3 1313 	subw	r3, r3, #275	@ 0x113
 8002388:	781a      	ldrb	r2, [r3, #0]
 800238a:	f507 738c 	add.w	r3, r7, #280	@ 0x118
 800238e:	f5a3 738c 	sub.w	r3, r3, #280	@ 0x118
 8002392:	6819      	ldr	r1, [r3, #0]
 8002394:	f003 ff79 	bl	800628a <memcpy>
    idx += data_len;
 8002398:	f507 738c 	add.w	r3, r7, #280	@ 0x118
 800239c:	f2a3 1313 	subw	r3, r3, #275	@ 0x113
 80023a0:	f897 2117 	ldrb.w	r2, [r7, #279]	@ 0x117
 80023a4:	781b      	ldrb	r3, [r3, #0]
 80023a6:	4413      	add	r3, r2
 80023a8:	f887 3117 	strb.w	r3, [r7, #279]	@ 0x117
    packet[idx] = calculate_checksum(packet, idx + 1);
 80023ac:	f897 3117 	ldrb.w	r3, [r7, #279]	@ 0x117
 80023b0:	3301      	adds	r3, #1
 80023b2:	b2da      	uxtb	r2, r3
 80023b4:	f897 4117 	ldrb.w	r4, [r7, #279]	@ 0x117
 80023b8:	f107 0314 	add.w	r3, r7, #20
 80023bc:	4611      	mov	r1, r2
 80023be:	4618      	mov	r0, r3
 80023c0:	f7ff fec2 	bl	8002148 <calculate_checksum>
 80023c4:	4603      	mov	r3, r0
 80023c6:	461a      	mov	r2, r3
 80023c8:	f507 738c 	add.w	r3, r7, #280	@ 0x118
 80023cc:	f5a3 7382 	sub.w	r3, r3, #260	@ 0x104
 80023d0:	551a      	strb	r2, [r3, r4]
    send_packet(packet, idx + 1);
 80023d2:	f897 3117 	ldrb.w	r3, [r7, #279]	@ 0x117
 80023d6:	3301      	adds	r3, #1
 80023d8:	b2da      	uxtb	r2, r3
 80023da:	f107 0314 	add.w	r3, r7, #20
 80023de:	4611      	mov	r1, r2
 80023e0:	4618      	mov	r0, r3
 80023e2:	f7ff fed3 	bl	800218c <send_packet>

    // 忽略响应（若非广播），实际可检查
    if (id != SERVO_BROADCAST_ID) {
 80023e6:	f507 738c 	add.w	r3, r7, #280	@ 0x118
 80023ea:	f2a3 1311 	subw	r3, r3, #273	@ 0x111
 80023ee:	781b      	ldrb	r3, [r3, #0]
 80023f0:	2bfe      	cmp	r3, #254	@ 0xfe
 80023f2:	d005      	beq.n	8002400 <servo_write_reg+0x176>
        uint8_t rx_packet[6];
        receive_packet(rx_packet, 6);  // 预期响应Length=2, Error+Checksum
 80023f4:	f107 030c 	add.w	r3, r7, #12
 80023f8:	2106      	movs	r1, #6
 80023fa:	4618      	mov	r0, r3
 80023fc:	f7ff feda 	bl	80021b4 <receive_packet>
    }
}
 8002400:	bf00      	nop
 8002402:	f507 778e 	add.w	r7, r7, #284	@ 0x11c
 8002406:	46bd      	mov	sp, r7
 8002408:	bd90      	pop	{r4, r7, pc}

0800240a <servo_read_reg>:

// 读寄存器  
uint8_t servo_read_reg(uint8_t id, uint8_t reg_addr, uint8_t data_len, uint8_t *rx_data) {
 800240a:	b590      	push	{r4, r7, lr}
 800240c:	b0c7      	sub	sp, #284	@ 0x11c
 800240e:	af00      	add	r7, sp, #0
 8002410:	4604      	mov	r4, r0
 8002412:	4608      	mov	r0, r1
 8002414:	4611      	mov	r1, r2
 8002416:	f507 728c 	add.w	r2, r7, #280	@ 0x118
 800241a:	f5a2 728c 	sub.w	r2, r2, #280	@ 0x118
 800241e:	6013      	str	r3, [r2, #0]
 8002420:	f507 738c 	add.w	r3, r7, #280	@ 0x118
 8002424:	f2a3 1311 	subw	r3, r3, #273	@ 0x111
 8002428:	4622      	mov	r2, r4
 800242a:	701a      	strb	r2, [r3, #0]
 800242c:	f507 738c 	add.w	r3, r7, #280	@ 0x118
 8002430:	f5a3 7389 	sub.w	r3, r3, #274	@ 0x112
 8002434:	4602      	mov	r2, r0
 8002436:	701a      	strb	r2, [r3, #0]
 8002438:	f507 738c 	add.w	r3, r7, #280	@ 0x118
 800243c:	f2a3 1313 	subw	r3, r3, #275	@ 0x113
 8002440:	460a      	mov	r2, r1
 8002442:	701a      	strb	r2, [r3, #0]
    uint8_t packet[8] = {0xFF, 0xFF, id, 0x04, SERVO_INST_READ, reg_addr, data_len, 0x00};
 8002444:	23ff      	movs	r3, #255	@ 0xff
 8002446:	f887 310c 	strb.w	r3, [r7, #268]	@ 0x10c
 800244a:	23ff      	movs	r3, #255	@ 0xff
 800244c:	f887 310d 	strb.w	r3, [r7, #269]	@ 0x10d
 8002450:	f507 738c 	add.w	r3, r7, #280	@ 0x118
 8002454:	f2a3 1311 	subw	r3, r3, #273	@ 0x111
 8002458:	781b      	ldrb	r3, [r3, #0]
 800245a:	f887 310e 	strb.w	r3, [r7, #270]	@ 0x10e
 800245e:	2304      	movs	r3, #4
 8002460:	f887 310f 	strb.w	r3, [r7, #271]	@ 0x10f
 8002464:	2302      	movs	r3, #2
 8002466:	f887 3110 	strb.w	r3, [r7, #272]	@ 0x110
 800246a:	f507 738c 	add.w	r3, r7, #280	@ 0x118
 800246e:	f5a3 7389 	sub.w	r3, r3, #274	@ 0x112
 8002472:	781b      	ldrb	r3, [r3, #0]
 8002474:	f887 3111 	strb.w	r3, [r7, #273]	@ 0x111
 8002478:	f507 738c 	add.w	r3, r7, #280	@ 0x118
 800247c:	f2a3 1313 	subw	r3, r3, #275	@ 0x113
 8002480:	781b      	ldrb	r3, [r3, #0]
 8002482:	f887 3112 	strb.w	r3, [r7, #274]	@ 0x112
 8002486:	2300      	movs	r3, #0
 8002488:	f887 3113 	strb.w	r3, [r7, #275]	@ 0x113
    packet[7] = calculate_checksum(packet, 8);
 800248c:	f507 7386 	add.w	r3, r7, #268	@ 0x10c
 8002490:	2108      	movs	r1, #8
 8002492:	4618      	mov	r0, r3
 8002494:	f7ff fe58 	bl	8002148 <calculate_checksum>
 8002498:	4603      	mov	r3, r0
 800249a:	f887 3113 	strb.w	r3, [r7, #275]	@ 0x113
    send_packet(packet, 8);
 800249e:	f507 7386 	add.w	r3, r7, #268	@ 0x10c
 80024a2:	2108      	movs	r1, #8
 80024a4:	4618      	mov	r0, r3
 80024a6:	f7ff fe71 	bl	800218c <send_packet>

    uint8_t expected_len = data_len + 6;  // FF FF ID Len Error Params... Checksum
 80024aa:	f507 738c 	add.w	r3, r7, #280	@ 0x118
 80024ae:	f2a3 1313 	subw	r3, r3, #275	@ 0x113
 80024b2:	781b      	ldrb	r3, [r3, #0]
 80024b4:	3306      	adds	r3, #6
 80024b6:	f887 3117 	strb.w	r3, [r7, #279]	@ 0x117
    uint8_t rx_packet[256];
    
    HAL_StatusTypeDef status = receive_packet(rx_packet, expected_len);
 80024ba:	f897 2117 	ldrb.w	r2, [r7, #279]	@ 0x117
 80024be:	f107 030c 	add.w	r3, r7, #12
 80024c2:	4611      	mov	r1, r2
 80024c4:	4618      	mov	r0, r3
 80024c6:	f7ff fe75 	bl	80021b4 <receive_packet>
 80024ca:	4603      	mov	r3, r0
 80024cc:	f887 3116 	strb.w	r3, [r7, #278]	@ 0x116
    if (status == HAL_OK) {
 80024d0:	f897 3116 	ldrb.w	r3, [r7, #278]	@ 0x116
 80024d4:	2b00      	cmp	r3, #0
 80024d6:	d13f      	bne.n	8002558 <servo_read_reg+0x14e>
        if (rx_packet[0] == 0xFF && rx_packet[1] == 0xFF && rx_packet[2] == id &&
 80024d8:	f507 738c 	add.w	r3, r7, #280	@ 0x118
 80024dc:	f5a3 7386 	sub.w	r3, r3, #268	@ 0x10c
 80024e0:	781b      	ldrb	r3, [r3, #0]
 80024e2:	2bff      	cmp	r3, #255	@ 0xff
 80024e4:	d138      	bne.n	8002558 <servo_read_reg+0x14e>
 80024e6:	f507 738c 	add.w	r3, r7, #280	@ 0x118
 80024ea:	f5a3 7386 	sub.w	r3, r3, #268	@ 0x10c
 80024ee:	785b      	ldrb	r3, [r3, #1]
 80024f0:	2bff      	cmp	r3, #255	@ 0xff
 80024f2:	d131      	bne.n	8002558 <servo_read_reg+0x14e>
 80024f4:	f507 738c 	add.w	r3, r7, #280	@ 0x118
 80024f8:	f5a3 7386 	sub.w	r3, r3, #268	@ 0x10c
 80024fc:	789b      	ldrb	r3, [r3, #2]
 80024fe:	f507 728c 	add.w	r2, r7, #280	@ 0x118
 8002502:	f2a2 1211 	subw	r2, r2, #273	@ 0x111
 8002506:	7812      	ldrb	r2, [r2, #0]
 8002508:	429a      	cmp	r2, r3
 800250a:	d125      	bne.n	8002558 <servo_read_reg+0x14e>
            rx_packet[3] == data_len + 2 && rx_packet[4] == 0x00) {
 800250c:	f507 738c 	add.w	r3, r7, #280	@ 0x118
 8002510:	f5a3 7386 	sub.w	r3, r3, #268	@ 0x10c
 8002514:	78db      	ldrb	r3, [r3, #3]
 8002516:	461a      	mov	r2, r3
 8002518:	f507 738c 	add.w	r3, r7, #280	@ 0x118
 800251c:	f2a3 1313 	subw	r3, r3, #275	@ 0x113
 8002520:	781b      	ldrb	r3, [r3, #0]
 8002522:	3302      	adds	r3, #2
        if (rx_packet[0] == 0xFF && rx_packet[1] == 0xFF && rx_packet[2] == id &&
 8002524:	429a      	cmp	r2, r3
 8002526:	d117      	bne.n	8002558 <servo_read_reg+0x14e>
            rx_packet[3] == data_len + 2 && rx_packet[4] == 0x00) {
 8002528:	f507 738c 	add.w	r3, r7, #280	@ 0x118
 800252c:	f5a3 7386 	sub.w	r3, r3, #268	@ 0x10c
 8002530:	791b      	ldrb	r3, [r3, #4]
 8002532:	2b00      	cmp	r3, #0
 8002534:	d110      	bne.n	8002558 <servo_read_reg+0x14e>
            memcpy(rx_data, &rx_packet[5], data_len);
 8002536:	f507 738c 	add.w	r3, r7, #280	@ 0x118
 800253a:	f2a3 1313 	subw	r3, r3, #275	@ 0x113
 800253e:	781a      	ldrb	r2, [r3, #0]
 8002540:	f107 030c 	add.w	r3, r7, #12
 8002544:	1d59      	adds	r1, r3, #5
 8002546:	f507 738c 	add.w	r3, r7, #280	@ 0x118
 800254a:	f5a3 738c 	sub.w	r3, r3, #280	@ 0x118
 800254e:	6818      	ldr	r0, [r3, #0]
 8002550:	f003 fe9b 	bl	800628a <memcpy>
            return 1;  // 成功
 8002554:	2301      	movs	r3, #1
 8002556:	e000      	b.n	800255a <servo_read_reg+0x150>
        }
    }
    return 0;
 8002558:	2300      	movs	r3, #0
}
 800255a:	4618      	mov	r0, r3
 800255c:	f507 778e 	add.w	r7, r7, #284	@ 0x11c
 8002560:	46bd      	mov	sp, r7
 8002562:	bd90      	pop	{r4, r7, pc}

08002564 <servo_set_torque_enable>:

// 扭矩开关
void servo_set_torque_enable(uint8_t id, uint8_t enable) {
 8002564:	b580      	push	{r7, lr}
 8002566:	b084      	sub	sp, #16
 8002568:	af00      	add	r7, sp, #0
 800256a:	4603      	mov	r3, r0
 800256c:	460a      	mov	r2, r1
 800256e:	71fb      	strb	r3, [r7, #7]
 8002570:	4613      	mov	r3, r2
 8002572:	71bb      	strb	r3, [r7, #6]
    uint8_t data = enable;
 8002574:	79bb      	ldrb	r3, [r7, #6]
 8002576:	73fb      	strb	r3, [r7, #15]
    servo_write_reg(id, SERVO_REG_TORQUE_ENABLE, &data, 1);
 8002578:	f107 020f 	add.w	r2, r7, #15
 800257c:	79f8      	ldrb	r0, [r7, #7]
 800257e:	2301      	movs	r3, #1
 8002580:	2128      	movs	r1, #40	@ 0x28
 8002582:	f7ff fe82 	bl	800228a <servo_write_reg>
}
 8002586:	bf00      	nop
 8002588:	3710      	adds	r7, #16
 800258a:	46bd      	mov	sp, r7
 800258c:	bd80      	pop	{r7, pc}

0800258e <servo_set_speed>:

// 设置速度 (2字节，低在前)
void servo_set_speed(uint8_t id, int16_t speed) {
 800258e:	b580      	push	{r7, lr}
 8002590:	b084      	sub	sp, #16
 8002592:	af00      	add	r7, sp, #0
 8002594:	4603      	mov	r3, r0
 8002596:	460a      	mov	r2, r1
 8002598:	71fb      	strb	r3, [r7, #7]
 800259a:	4613      	mov	r3, r2
 800259c:	80bb      	strh	r3, [r7, #4]
    uint8_t data[2];
    data[0] = speed & 0xFF;  // 低
 800259e:	88bb      	ldrh	r3, [r7, #4]
 80025a0:	b2db      	uxtb	r3, r3
 80025a2:	733b      	strb	r3, [r7, #12]
    data[1] = (speed >> 8) & 0xFF;  // 高
 80025a4:	f9b7 3004 	ldrsh.w	r3, [r7, #4]
 80025a8:	121b      	asrs	r3, r3, #8
 80025aa:	b21b      	sxth	r3, r3
 80025ac:	b2db      	uxtb	r3, r3
 80025ae:	737b      	strb	r3, [r7, #13]
    servo_write_reg(id, SERVO_REG_SPEED, data, 2);
 80025b0:	f107 020c 	add.w	r2, r7, #12
 80025b4:	79f8      	ldrb	r0, [r7, #7]
 80025b6:	2302      	movs	r3, #2
 80025b8:	212e      	movs	r1, #46	@ 0x2e
 80025ba:	f7ff fe66 	bl	800228a <servo_write_reg>
}
 80025be:	bf00      	nop
 80025c0:	3710      	adds	r7, #16
 80025c2:	46bd      	mov	sp, r7
 80025c4:	bd80      	pop	{r7, pc}

080025c6 <servo_set_position>:

// 设置位置 (2字节，低在前)
void servo_set_position(uint8_t id, int16_t position) {
 80025c6:	b580      	push	{r7, lr}
 80025c8:	b084      	sub	sp, #16
 80025ca:	af00      	add	r7, sp, #0
 80025cc:	4603      	mov	r3, r0
 80025ce:	460a      	mov	r2, r1
 80025d0:	71fb      	strb	r3, [r7, #7]
 80025d2:	4613      	mov	r3, r2
 80025d4:	80bb      	strh	r3, [r7, #4]
    uint8_t data[2];
    data[0] = position & 0xFF;
 80025d6:	88bb      	ldrh	r3, [r7, #4]
 80025d8:	b2db      	uxtb	r3, r3
 80025da:	733b      	strb	r3, [r7, #12]
    data[1] = (position >> 8) & 0xFF;
 80025dc:	f9b7 3004 	ldrsh.w	r3, [r7, #4]
 80025e0:	121b      	asrs	r3, r3, #8
 80025e2:	b21b      	sxth	r3, r3
 80025e4:	b2db      	uxtb	r3, r3
 80025e6:	737b      	strb	r3, [r7, #13]
    servo_write_reg(id, SERVO_REG_TARGET_POS, data, 2);
 80025e8:	f107 020c 	add.w	r2, r7, #12
 80025ec:	79f8      	ldrb	r0, [r7, #7]
 80025ee:	2302      	movs	r3, #2
 80025f0:	212a      	movs	r1, #42	@ 0x2a
 80025f2:	f7ff fe4a 	bl	800228a <servo_write_reg>
}
 80025f6:	bf00      	nop
 80025f8:	3710      	adds	r7, #16
 80025fa:	46bd      	mov	sp, r7
 80025fc:	bd80      	pop	{r7, pc}
	...

08002600 <MX_DMA_Init>:

/**
  * Enable DMA controller clock
  */
void MX_DMA_Init(void)
{
 8002600:	b580      	push	{r7, lr}
 8002602:	b082      	sub	sp, #8
 8002604:	af00      	add	r7, sp, #0

  /* DMA controller clock enable */
  __HAL_RCC_DMA1_CLK_ENABLE();
 8002606:	4b10      	ldr	r3, [pc, #64]	@ (8002648 <MX_DMA_Init+0x48>)
 8002608:	695b      	ldr	r3, [r3, #20]
 800260a:	4a0f      	ldr	r2, [pc, #60]	@ (8002648 <MX_DMA_Init+0x48>)
 800260c:	f043 0301 	orr.w	r3, r3, #1
 8002610:	6153      	str	r3, [r2, #20]
 8002612:	4b0d      	ldr	r3, [pc, #52]	@ (8002648 <MX_DMA_Init+0x48>)
 8002614:	695b      	ldr	r3, [r3, #20]
 8002616:	f003 0301 	and.w	r3, r3, #1
 800261a:	607b      	str	r3, [r7, #4]
 800261c:	687b      	ldr	r3, [r7, #4]

  /* DMA interrupt init */
  /* DMA1_Channel6_IRQn interrupt configuration */
  HAL_NVIC_SetPriority(DMA1_Channel6_IRQn, 0, 0);
 800261e:	2200      	movs	r2, #0
 8002620:	2100      	movs	r1, #0
 8002622:	2010      	movs	r0, #16
 8002624:	f001 f979 	bl	800391a <HAL_NVIC_SetPriority>
  HAL_NVIC_EnableIRQ(DMA1_Channel6_IRQn);
 8002628:	2010      	movs	r0, #16
 800262a:	f001 f992 	bl	8003952 <HAL_NVIC_EnableIRQ>
  /* DMA1_Channel7_IRQn interrupt configuration */
  HAL_NVIC_SetPriority(DMA1_Channel7_IRQn, 0, 0);
 800262e:	2200      	movs	r2, #0
 8002630:	2100      	movs	r1, #0
 8002632:	2011      	movs	r0, #17
 8002634:	f001 f971 	bl	800391a <HAL_NVIC_SetPriority>
  HAL_NVIC_EnableIRQ(DMA1_Channel7_IRQn);
 8002638:	2011      	movs	r0, #17
 800263a:	f001 f98a 	bl	8003952 <HAL_NVIC_EnableIRQ>

}
 800263e:	bf00      	nop
 8002640:	3708      	adds	r7, #8
 8002642:	46bd      	mov	sp, r7
 8002644:	bd80      	pop	{r7, pc}
 8002646:	bf00      	nop
 8002648:	40021000 	.word	0x40021000

0800264c <MX_GPIO_Init>:
        * EVENT_OUT
        * EXTI
     PB0   ------> S_TIM3_CH3
*/
void MX_GPIO_Init(void)
{
 800264c:	b580      	push	{r7, lr}
 800264e:	b088      	sub	sp, #32
 8002650:	af00      	add	r7, sp, #0

  GPIO_InitTypeDef GPIO_InitStruct = {0};
 8002652:	f107 0310 	add.w	r3, r7, #16
 8002656:	2200      	movs	r2, #0
 8002658:	601a      	str	r2, [r3, #0]
 800265a:	605a      	str	r2, [r3, #4]
 800265c:	609a      	str	r2, [r3, #8]
 800265e:	60da      	str	r2, [r3, #12]

  /* GPIO Ports Clock Enable */
  __HAL_RCC_GPIOD_CLK_ENABLE();
 8002660:	4b38      	ldr	r3, [pc, #224]	@ (8002744 <MX_GPIO_Init+0xf8>)
 8002662:	699b      	ldr	r3, [r3, #24]
 8002664:	4a37      	ldr	r2, [pc, #220]	@ (8002744 <MX_GPIO_Init+0xf8>)
 8002666:	f043 0320 	orr.w	r3, r3, #32
 800266a:	6193      	str	r3, [r2, #24]
 800266c:	4b35      	ldr	r3, [pc, #212]	@ (8002744 <MX_GPIO_Init+0xf8>)
 800266e:	699b      	ldr	r3, [r3, #24]
 8002670:	f003 0320 	and.w	r3, r3, #32
 8002674:	60fb      	str	r3, [r7, #12]
 8002676:	68fb      	ldr	r3, [r7, #12]
  __HAL_RCC_GPIOA_CLK_ENABLE();
 8002678:	4b32      	ldr	r3, [pc, #200]	@ (8002744 <MX_GPIO_Init+0xf8>)
 800267a:	699b      	ldr	r3, [r3, #24]
 800267c:	4a31      	ldr	r2, [pc, #196]	@ (8002744 <MX_GPIO_Init+0xf8>)
 800267e:	f043 0304 	orr.w	r3, r3, #4
 8002682:	6193      	str	r3, [r2, #24]
 8002684:	4b2f      	ldr	r3, [pc, #188]	@ (8002744 <MX_GPIO_Init+0xf8>)
 8002686:	699b      	ldr	r3, [r3, #24]
 8002688:	f003 0304 	and.w	r3, r3, #4
 800268c:	60bb      	str	r3, [r7, #8]
 800268e:	68bb      	ldr	r3, [r7, #8]
  __HAL_RCC_GPIOB_CLK_ENABLE();
 8002690:	4b2c      	ldr	r3, [pc, #176]	@ (8002744 <MX_GPIO_Init+0xf8>)
 8002692:	699b      	ldr	r3, [r3, #24]
 8002694:	4a2b      	ldr	r2, [pc, #172]	@ (8002744 <MX_GPIO_Init+0xf8>)
 8002696:	f043 0308 	orr.w	r3, r3, #8
 800269a:	6193      	str	r3, [r2, #24]
 800269c:	4b29      	ldr	r3, [pc, #164]	@ (8002744 <MX_GPIO_Init+0xf8>)
 800269e:	699b      	ldr	r3, [r3, #24]
 80026a0:	f003 0308 	and.w	r3, r3, #8
 80026a4:	607b      	str	r3, [r7, #4]
 80026a6:	687b      	ldr	r3, [r7, #4]

  /*Configure GPIO pin Output Level */
  HAL_GPIO_WritePin(GPIOA, GPIO_PIN_1, GPIO_PIN_RESET);
 80026a8:	2200      	movs	r2, #0
 80026aa:	2102      	movs	r1, #2
 80026ac:	4826      	ldr	r0, [pc, #152]	@ (8002748 <MX_GPIO_Init+0xfc>)
 80026ae:	f001 fda8 	bl	8004202 <HAL_GPIO_WritePin>

  /*Configure GPIO pin Output Level */
  HAL_GPIO_WritePin(GPIOA, GPIO_PIN_4|GPIO_PIN_5|GPIO_PIN_8|GPIO_PIN_12, GPIO_PIN_SET);
 80026b2:	2201      	movs	r2, #1
 80026b4:	f241 1130 	movw	r1, #4400	@ 0x1130
 80026b8:	4823      	ldr	r0, [pc, #140]	@ (8002748 <MX_GPIO_Init+0xfc>)
 80026ba:	f001 fda2 	bl	8004202 <HAL_GPIO_WritePin>

  /*Configure GPIO pin : PA1 (LED) */
  GPIO_InitStruct.Pin = GPIO_PIN_1;
 80026be:	2302      	movs	r3, #2
 80026c0:	613b      	str	r3, [r7, #16]
  GPIO_InitStruct.Mode = GPIO_MODE_OUTPUT_PP;
 80026c2:	2301      	movs	r3, #1
 80026c4:	617b      	str	r3, [r7, #20]
  GPIO_InitStruct.Pull = GPIO_NOPULL;
 80026c6:	2300      	movs	r3, #0
 80026c8:	61bb      	str	r3, [r7, #24]
  GPIO_InitStruct.Speed = GPIO_SPEED_FREQ_LOW;
 80026ca:	2302      	movs	r3, #2
 80026cc:	61fb      	str	r3, [r7, #28]
  HAL_GPIO_Init(GPIOA, &GPIO_InitStruct);
 80026ce:	f107 0310 	add.w	r3, r7, #16
 80026d2:	4619      	mov	r1, r3
 80026d4:	481c      	ldr	r0, [pc, #112]	@ (8002748 <MX_GPIO_Init+0xfc>)
 80026d6:	f001 fbf9 	bl	8003ecc <HAL_GPIO_Init>

  /*Configure GPIO pins : PA4 PA5 PA8 PA12 (Keyboard columns - output) */
  GPIO_InitStruct.Pin = GPIO_PIN_4|GPIO_PIN_5|GPIO_PIN_8|GPIO_PIN_12;
 80026da:	f241 1330 	movw	r3, #4400	@ 0x1130
 80026de:	613b      	str	r3, [r7, #16]
  GPIO_InitStruct.Mode = GPIO_MODE_OUTPUT_PP;
 80026e0:	2301      	movs	r3, #1
 80026e2:	617b      	str	r3, [r7, #20]
  GPIO_InitStruct.Pull = GPIO_NOPULL;
 80026e4:	2300      	movs	r3, #0
 80026e6:	61bb      	str	r3, [r7, #24]
  GPIO_InitStruct.Speed = GPIO_SPEED_FREQ_LOW;
 80026e8:	2302      	movs	r3, #2
 80026ea:	61fb      	str	r3, [r7, #28]
  HAL_GPIO_Init(GPIOA, &GPIO_InitStruct);
 80026ec:	f107 0310 	add.w	r3, r7, #16
 80026f0:	4619      	mov	r1, r3
 80026f2:	4815      	ldr	r0, [pc, #84]	@ (8002748 <MX_GPIO_Init+0xfc>)
 80026f4:	f001 fbea 	bl	8003ecc <HAL_GPIO_Init>

  /*Configure GPIO pin : PA11 (Keyboard row r4 - input with interrupt) */
  GPIO_InitStruct.Pin = GPIO_PIN_11;
 80026f8:	f44f 6300 	mov.w	r3, #2048	@ 0x800
 80026fc:	613b      	str	r3, [r7, #16]
  GPIO_InitStruct.Mode = GPIO_MODE_IT_FALLING;  // Interrupt on falling edge
 80026fe:	4b13      	ldr	r3, [pc, #76]	@ (800274c <MX_GPIO_Init+0x100>)
 8002700:	617b      	str	r3, [r7, #20]
  GPIO_InitStruct.Pull = GPIO_PULLUP;
 8002702:	2301      	movs	r3, #1
 8002704:	61bb      	str	r3, [r7, #24]
  HAL_GPIO_Init(GPIOA, &GPIO_InitStruct);
 8002706:	f107 0310 	add.w	r3, r7, #16
 800270a:	4619      	mov	r1, r3
 800270c:	480e      	ldr	r0, [pc, #56]	@ (8002748 <MX_GPIO_Init+0xfc>)
 800270e:	f001 fbdd 	bl	8003ecc <HAL_GPIO_Init>
  
  /* EXTI interrupt init*/
  HAL_NVIC_SetPriority(EXTI15_10_IRQn, 2, 0);
 8002712:	2200      	movs	r2, #0
 8002714:	2102      	movs	r1, #2
 8002716:	2028      	movs	r0, #40	@ 0x28
 8002718:	f001 f8ff 	bl	800391a <HAL_NVIC_SetPriority>
  HAL_NVIC_EnableIRQ(EXTI15_10_IRQn);
 800271c:	2028      	movs	r0, #40	@ 0x28
 800271e:	f001 f918 	bl	8003952 <HAL_NVIC_EnableIRQ>

  /*Configure GPIO pin : PB0 */
  GPIO_InitStruct.Pin = GPIO_PIN_0;
 8002722:	2301      	movs	r3, #1
 8002724:	613b      	str	r3, [r7, #16]
  GPIO_InitStruct.Mode = GPIO_MODE_AF_PP;
 8002726:	2302      	movs	r3, #2
 8002728:	617b      	str	r3, [r7, #20]
  GPIO_InitStruct.Speed = GPIO_SPEED_FREQ_LOW;
 800272a:	2302      	movs	r3, #2
 800272c:	61fb      	str	r3, [r7, #28]
  HAL_GPIO_Init(GPIOB, &GPIO_InitStruct);
 800272e:	f107 0310 	add.w	r3, r7, #16
 8002732:	4619      	mov	r1, r3
 8002734:	4806      	ldr	r0, [pc, #24]	@ (8002750 <MX_GPIO_Init+0x104>)
 8002736:	f001 fbc9 	bl	8003ecc <HAL_GPIO_Init>
  
  /* PB5 is configured by PhotoSensor_Init() as input with interrupt */

}
 800273a:	bf00      	nop
 800273c:	3720      	adds	r7, #32
 800273e:	46bd      	mov	sp, r7
 8002740:	bd80      	pop	{r7, pc}
 8002742:	bf00      	nop
 8002744:	40021000 	.word	0x40021000
 8002748:	40010800 	.word	0x40010800
 800274c:	10210000 	.word	0x10210000
 8002750:	40010c00 	.word	0x40010c00

08002754 <main>:
/**
  * @brief  The application entry point.
  * @retval int
  */
int main(void)
{
 8002754:	b590      	push	{r4, r7, lr}
 8002756:	b08b      	sub	sp, #44	@ 0x2c
 8002758:	af02      	add	r7, sp, #8
  /* USER CODE END 1 */

  /* MCU Configuration--------------------------------------------------------*/

  /* Reset of all peripherals, Initializes the Flash interface and the Systick. */
  HAL_Init();
 800275a:	f000 ff81 	bl	8003660 <HAL_Init>
  /* USER CODE BEGIN Init */

  /* USER CODE END Init */

  /* Configure the system clock */
  SystemClock_Config();
 800275e:	f000 f9a7 	bl	8002ab0 <SystemClock_Config>
  /* USER CODE BEGIN SysInit */

  /* USER CODE END SysInit */

  /* Initialize all configured peripherals */
  MX_GPIO_Init();
 8002762:	f7ff ff73 	bl	800264c <MX_GPIO_Init>
  MX_DMA_Init();
 8002766:	f7ff ff4b 	bl	8002600 <MX_DMA_Init>
  MX_USART3_UART_Init();
 800276a:	f000 fdf5 	bl	8003358 <MX_USART3_UART_Init>
  MX_USART1_UART_Init();
 800276e:	f000 fd9f 	bl	80032b0 <MX_USART1_UART_Init>
  MX_USART2_UART_Init();
 8002772:	f000 fdc7 	bl	8003304 <MX_USART2_UART_Init>
  /* USER CODE BEGIN 2 */
  
  printf("\r\n=== SLAVE MCU - ELEVATOR CONTROL SYSTEM ===\r\n");
 8002776:	48a1      	ldr	r0, [pc, #644]	@ (80029fc <main+0x2a8>)
 8002778:	f003 fc0a 	bl	8005f90 <puts>
  printf("Full Control with Door Module Enabled\r\n");
 800277c:	48a0      	ldr	r0, [pc, #640]	@ (8002a00 <main+0x2ac>)
 800277e:	f003 fc07 	bl	8005f90 <puts>
  printf("Features: Cabin Calls + Photo Sensor + RS485 + Door Control\r\n\r\n");
 8002782:	48a0      	ldr	r0, [pc, #640]	@ (8002a04 <main+0x2b0>)
 8002784:	f003 fc04 	bl	8005f90 <puts>
  
  /* 初始化RS485通信 */
  rs485_init();
 8002788:	f7fe fc70 	bl	800106c <rs485_init>
  printf("[RS485] Initialized on USART2\r\n");
 800278c:	489e      	ldr	r0, [pc, #632]	@ (8002a08 <main+0x2b4>)
 800278e:	f003 fbff 	bl	8005f90 <puts>
  
  /* 初始化键盘 - 中断模式 */
  Keyboard_Init();
 8002792:	f7fe fe9d 	bl	80014d0 <Keyboard_Init>
  printf("[KEYBOARD] Initialized (PA11 EXTI)\r\n");
 8002796:	489d      	ldr	r0, [pc, #628]	@ (8002a0c <main+0x2b8>)
 8002798:	f003 fbfa 	bl	8005f90 <puts>
  printf("  S16 (PA4)  -> Floor 1 (Cabin Call)\r\n");
 800279c:	489c      	ldr	r0, [pc, #624]	@ (8002a10 <main+0x2bc>)
 800279e:	f003 fbf7 	bl	8005f90 <puts>
  printf("  S15 (PA8)  -> Floor 2 (Cabin Call)\r\n");
 80027a2:	489c      	ldr	r0, [pc, #624]	@ (8002a14 <main+0x2c0>)
 80027a4:	f003 fbf4 	bl	8005f90 <puts>
  printf("  S14 (PA5)  -> Floor 3 (Cabin Call)\r\n");
 80027a8:	489b      	ldr	r0, [pc, #620]	@ (8002a18 <main+0x2c4>)
 80027aa:	f003 fbf1 	bl	8005f90 <puts>
  printf("  S13 (PA12) -> Not Used\r\n\r\n");
 80027ae:	489b      	ldr	r0, [pc, #620]	@ (8002a1c <main+0x2c8>)
 80027b0:	f003 fbee 	bl	8005f90 <puts>
  
  /* 初始化光电传感器 - 中断模式 */
  PhotoSensor_Init();
 80027b4:	f7ff f910 	bl	80019d8 <PhotoSensor_Init>
  photo_sensor_state_t initial_state = PhotoSensor_GetState();
 80027b8:	f7ff f94c 	bl	8001a54 <PhotoSensor_GetState>
 80027bc:	4603      	mov	r3, r0
 80027be:	74fb      	strb	r3, [r7, #19]
  last_sensor_state = initial_state;
 80027c0:	4a97      	ldr	r2, [pc, #604]	@ (8002a20 <main+0x2cc>)
 80027c2:	7cfb      	ldrb	r3, [r7, #19]
 80027c4:	7013      	strb	r3, [r2, #0]
  printf("[PHOTO] Initialized (PB5 EXTI) - State: %s\r\n", 
 80027c6:	7cfb      	ldrb	r3, [r7, #19]
 80027c8:	2b00      	cmp	r3, #0
 80027ca:	d101      	bne.n	80027d0 <main+0x7c>
 80027cc:	4b95      	ldr	r3, [pc, #596]	@ (8002a24 <main+0x2d0>)
 80027ce:	e000      	b.n	80027d2 <main+0x7e>
 80027d0:	4b95      	ldr	r3, [pc, #596]	@ (8002a28 <main+0x2d4>)
 80027d2:	4619      	mov	r1, r3
 80027d4:	4895      	ldr	r0, [pc, #596]	@ (8002a2c <main+0x2d8>)
 80027d6:	f003 fb73 	bl	8005ec0 <iprintf>
         initial_state == PHOTO_SENSOR_BLOCKED ? "BLOCKED" : "CLEAR");
  
  /* 验证初始状态 */
  if (initial_state != PHOTO_SENSOR_BLOCKED) {
 80027da:	7cfb      	ldrb	r3, [r7, #19]
 80027dc:	2b00      	cmp	r3, #0
 80027de:	d005      	beq.n	80027ec <main+0x98>
      printf("[WARNING] Photo sensor should be BLOCKED at floor 1!\r\n");
 80027e0:	4893      	ldr	r0, [pc, #588]	@ (8002a30 <main+0x2dc>)
 80027e2:	f003 fbd5 	bl	8005f90 <puts>
      printf("         Please check elevator position.\r\n");
 80027e6:	4893      	ldr	r0, [pc, #588]	@ (8002a34 <main+0x2e0>)
 80027e8:	f003 fbd2 	bl	8005f90 <puts>
  }
  
  /* 初始化舵机门控系统 */
  printf("[SERVO] Initializing servo communication...\r\n");
 80027ec:	4892      	ldr	r0, [pc, #584]	@ (8002a38 <main+0x2e4>)
 80027ee:	f003 fbcf 	bl	8005f90 <puts>
  servo_init(&huart3);
 80027f2:	4892      	ldr	r0, [pc, #584]	@ (8002a3c <main+0x2e8>)
 80027f4:	f7ff fcf4 	bl	80021e0 <servo_init>
  HAL_Delay(100);
 80027f8:	2064      	movs	r0, #100	@ 0x64
 80027fa:	f000 ff93 	bl	8003724 <HAL_Delay>
  
  /* 舵机通信测试 */
  printf("\r\n=== SERVO COMMUNICATION TEST ===\r\n");
 80027fe:	4890      	ldr	r0, [pc, #576]	@ (8002a40 <main+0x2ec>)
 8002800:	f003 fbc6 	bl	8005f90 <puts>
  
  /* 测试1: PING */
  printf("1. Testing PING...\r\n");
 8002804:	488f      	ldr	r0, [pc, #572]	@ (8002a44 <main+0x2f0>)
 8002806:	f003 fbc3 	bl	8005f90 <puts>
  if (servo_ping(1)) {
 800280a:	2001      	movs	r0, #1
 800280c:	f7ff fcfe 	bl	800220c <servo_ping>
 8002810:	4603      	mov	r3, r0
 8002812:	2b00      	cmp	r3, #0
 8002814:	d003      	beq.n	800281e <main+0xca>
      printf("   SUCCESS: Servo responded to PING\r\n");
 8002816:	488c      	ldr	r0, [pc, #560]	@ (8002a48 <main+0x2f4>)
 8002818:	f003 fbba 	bl	8005f90 <puts>
 800281c:	e002      	b.n	8002824 <main+0xd0>
  } else {
      printf("   FAILED: No response to PING\r\n");
 800281e:	488b      	ldr	r0, [pc, #556]	@ (8002a4c <main+0x2f8>)
 8002820:	f003 fbb6 	bl	8005f90 <puts>
  }
  
  /* 测试2: 读取位置 */
  printf("2. Reading position (0x38)...\r\n");
 8002824:	488a      	ldr	r0, [pc, #552]	@ (8002a50 <main+0x2fc>)
 8002826:	f003 fbb3 	bl	8005f90 <puts>
  uint8_t pos_data[2];
  for(int i = 0; i < 3; i++) {
 800282a:	2300      	movs	r3, #0
 800282c:	61fb      	str	r3, [r7, #28]
 800282e:	e026      	b.n	800287e <main+0x12a>
      if (servo_read_reg(1, 0x38, 2, pos_data) == 1) {
 8002830:	f107 0308 	add.w	r3, r7, #8
 8002834:	2202      	movs	r2, #2
 8002836:	2138      	movs	r1, #56	@ 0x38
 8002838:	2001      	movs	r0, #1
 800283a:	f7ff fde6 	bl	800240a <servo_read_reg>
 800283e:	4603      	mov	r3, r0
 8002840:	2b01      	cmp	r3, #1
 8002842:	d110      	bne.n	8002866 <main+0x112>
          uint16_t pos = pos_data[0] | (pos_data[1] << 8);
 8002844:	7a3b      	ldrb	r3, [r7, #8]
 8002846:	b21a      	sxth	r2, r3
 8002848:	7a7b      	ldrb	r3, [r7, #9]
 800284a:	b21b      	sxth	r3, r3
 800284c:	021b      	lsls	r3, r3, #8
 800284e:	b21b      	sxth	r3, r3
 8002850:	4313      	orrs	r3, r2
 8002852:	b21b      	sxth	r3, r3
 8002854:	817b      	strh	r3, [r7, #10]
          printf("   Try %d: SUCCESS, Position = %u\r\n", i+1, pos);
 8002856:	69fb      	ldr	r3, [r7, #28]
 8002858:	3301      	adds	r3, #1
 800285a:	897a      	ldrh	r2, [r7, #10]
 800285c:	4619      	mov	r1, r3
 800285e:	487d      	ldr	r0, [pc, #500]	@ (8002a54 <main+0x300>)
 8002860:	f003 fb2e 	bl	8005ec0 <iprintf>
 8002864:	e005      	b.n	8002872 <main+0x11e>
      } else {
          printf("   Try %d: FAILED\r\n", i+1);
 8002866:	69fb      	ldr	r3, [r7, #28]
 8002868:	3301      	adds	r3, #1
 800286a:	4619      	mov	r1, r3
 800286c:	487a      	ldr	r0, [pc, #488]	@ (8002a58 <main+0x304>)
 800286e:	f003 fb27 	bl	8005ec0 <iprintf>
      }
      HAL_Delay(50);
 8002872:	2032      	movs	r0, #50	@ 0x32
 8002874:	f000 ff56 	bl	8003724 <HAL_Delay>
  for(int i = 0; i < 3; i++) {
 8002878:	69fb      	ldr	r3, [r7, #28]
 800287a:	3301      	adds	r3, #1
 800287c:	61fb      	str	r3, [r7, #28]
 800287e:	69fb      	ldr	r3, [r7, #28]
 8002880:	2b02      	cmp	r3, #2
 8002882:	ddd5      	ble.n	8002830 <main+0xdc>
  }
  
  /* 测试3: 读取移动标志 */
  printf("3. Reading moving flag (0x42)...\r\n");
 8002884:	4875      	ldr	r0, [pc, #468]	@ (8002a5c <main+0x308>)
 8002886:	f003 fb83 	bl	8005f90 <puts>
  uint8_t moving_flag;
  for(int i = 0; i < 3; i++) {
 800288a:	2300      	movs	r3, #0
 800288c:	61bb      	str	r3, [r7, #24]
 800288e:	e01c      	b.n	80028ca <main+0x176>
      if (servo_read_reg(1, 0x42, 1, &moving_flag) == 1) {
 8002890:	1dfb      	adds	r3, r7, #7
 8002892:	2201      	movs	r2, #1
 8002894:	2142      	movs	r1, #66	@ 0x42
 8002896:	2001      	movs	r0, #1
 8002898:	f7ff fdb7 	bl	800240a <servo_read_reg>
 800289c:	4603      	mov	r3, r0
 800289e:	2b01      	cmp	r3, #1
 80028a0:	d107      	bne.n	80028b2 <main+0x15e>
          printf("   Try %d: SUCCESS, Moving = %d\r\n", i+1, moving_flag);
 80028a2:	69bb      	ldr	r3, [r7, #24]
 80028a4:	3301      	adds	r3, #1
 80028a6:	79fa      	ldrb	r2, [r7, #7]
 80028a8:	4619      	mov	r1, r3
 80028aa:	486d      	ldr	r0, [pc, #436]	@ (8002a60 <main+0x30c>)
 80028ac:	f003 fb08 	bl	8005ec0 <iprintf>
 80028b0:	e005      	b.n	80028be <main+0x16a>
      } else {
          printf("   Try %d: FAILED\r\n", i+1);
 80028b2:	69bb      	ldr	r3, [r7, #24]
 80028b4:	3301      	adds	r3, #1
 80028b6:	4619      	mov	r1, r3
 80028b8:	4867      	ldr	r0, [pc, #412]	@ (8002a58 <main+0x304>)
 80028ba:	f003 fb01 	bl	8005ec0 <iprintf>
      }
      HAL_Delay(50);
 80028be:	2032      	movs	r0, #50	@ 0x32
 80028c0:	f000 ff30 	bl	8003724 <HAL_Delay>
  for(int i = 0; i < 3; i++) {
 80028c4:	69bb      	ldr	r3, [r7, #24]
 80028c6:	3301      	adds	r3, #1
 80028c8:	61bb      	str	r3, [r7, #24]
 80028ca:	69bb      	ldr	r3, [r7, #24]
 80028cc:	2b02      	cmp	r3, #2
 80028ce:	dddf      	ble.n	8002890 <main+0x13c>
  }
  
  /* 测试4: 读取电压 */
  printf("4. Reading voltage (0x3E)...\r\n");
 80028d0:	4864      	ldr	r0, [pc, #400]	@ (8002a64 <main+0x310>)
 80028d2:	f003 fb5d 	bl	8005f90 <puts>
  uint8_t voltage;
  if (servo_read_reg(1, 0x3E, 1, &voltage) == 1) {
 80028d6:	1dbb      	adds	r3, r7, #6
 80028d8:	2201      	movs	r2, #1
 80028da:	213e      	movs	r1, #62	@ 0x3e
 80028dc:	2001      	movs	r0, #1
 80028de:	f7ff fd94 	bl	800240a <servo_read_reg>
 80028e2:	4603      	mov	r3, r0
 80028e4:	2b01      	cmp	r3, #1
 80028e6:	d112      	bne.n	800290e <main+0x1ba>
      printf("   SUCCESS: Voltage = %.1fV\r\n", voltage * 0.1f);
 80028e8:	79bb      	ldrb	r3, [r7, #6]
 80028ea:	4618      	mov	r0, r3
 80028ec:	f7fd fea4 	bl	8000638 <__aeabi_i2f>
 80028f0:	4603      	mov	r3, r0
 80028f2:	495d      	ldr	r1, [pc, #372]	@ (8002a68 <main+0x314>)
 80028f4:	4618      	mov	r0, r3
 80028f6:	f7fd fef3 	bl	80006e0 <__aeabi_fmul>
 80028fa:	4603      	mov	r3, r0
 80028fc:	4618      	mov	r0, r3
 80028fe:	f7fd fd89 	bl	8000414 <__aeabi_f2d>
 8002902:	4602      	mov	r2, r0
 8002904:	460b      	mov	r3, r1
 8002906:	4859      	ldr	r0, [pc, #356]	@ (8002a6c <main+0x318>)
 8002908:	f003 fada 	bl	8005ec0 <iprintf>
 800290c:	e002      	b.n	8002914 <main+0x1c0>
  } else {
      printf("   FAILED\r\n");
 800290e:	4858      	ldr	r0, [pc, #352]	@ (8002a70 <main+0x31c>)
 8002910:	f003 fb3e 	bl	8005f90 <puts>
  }
  
  /* 测试5: 读取温度 */
  printf("5. Reading temperature (0x3F)...\r\n");
 8002914:	4857      	ldr	r0, [pc, #348]	@ (8002a74 <main+0x320>)
 8002916:	f003 fb3b 	bl	8005f90 <puts>
  uint8_t temp;
  if (servo_read_reg(1, 0x3F, 1, &temp) == 1) {
 800291a:	1d7b      	adds	r3, r7, #5
 800291c:	2201      	movs	r2, #1
 800291e:	213f      	movs	r1, #63	@ 0x3f
 8002920:	2001      	movs	r0, #1
 8002922:	f7ff fd72 	bl	800240a <servo_read_reg>
 8002926:	4603      	mov	r3, r0
 8002928:	2b01      	cmp	r3, #1
 800292a:	d105      	bne.n	8002938 <main+0x1e4>
      printf("   SUCCESS: Temperature = %d°C\r\n", temp);
 800292c:	797b      	ldrb	r3, [r7, #5]
 800292e:	4619      	mov	r1, r3
 8002930:	4851      	ldr	r0, [pc, #324]	@ (8002a78 <main+0x324>)
 8002932:	f003 fac5 	bl	8005ec0 <iprintf>
 8002936:	e002      	b.n	800293e <main+0x1ea>
  } else {
      printf("   FAILED\r\n");
 8002938:	484d      	ldr	r0, [pc, #308]	@ (8002a70 <main+0x31c>)
 800293a:	f003 fb29 	bl	8005f90 <puts>
  }
  
  printf("=== TEST COMPLETE ===\r\n\r\n");
 800293e:	484f      	ldr	r0, [pc, #316]	@ (8002a7c <main+0x328>)
 8002940:	f003 fb26 	bl	8005f90 <puts>
  
  /* 继续正常初始化 */
  DoorControl_Init(&door_controller, 1);  // 使用舵机ID 1
 8002944:	2101      	movs	r1, #1
 8002946:	484e      	ldr	r0, [pc, #312]	@ (8002a80 <main+0x32c>)
 8002948:	f7ff f8b8 	bl	8001abc <DoorControl_Init>
  
  /* 初始化Local Blackboard - 中央事件管理 */
  LocalBB_Init();
 800294c:	f7fe f818 	bl	8000980 <LocalBB_Init>
  printf("[LocalBB] Initialized - Event queue ready\r\n");
 8002950:	484c      	ldr	r0, [pc, #304]	@ (8002a84 <main+0x330>)
 8002952:	f003 fb1d 	bl	8005f90 <puts>
  
  printf("\r\nSystem ready. Waiting for commands...\r\n\r\n");
 8002956:	484c      	ldr	r0, [pc, #304]	@ (8002a88 <main+0x334>)
 8002958:	f003 fb1a 	bl	8005f90 <puts>
  
  /* USER CODE END 2 */

  /* Infinite loop */
  /* USER CODE BEGIN WHILE */
  uint32_t last_status_time = 0;
 800295c:	2300      	movs	r3, #0
 800295e:	617b      	str	r3, [r7, #20]
  
  while (1)
  {
    uint32_t current_time = HAL_GetTick();
 8002960:	f000 fed6 	bl	8003710 <HAL_GetTick>
 8002964:	60f8      	str	r0, [r7, #12]
    
    /* 测试模式已禁用，使用按键测试 */
    
    /* 处理键盘输入 */
    ProcessKeyboard();
 8002966:	f000 f8e9 	bl	8002b3c <ProcessKeyboard>
    
    /* 处理光电传感器 */
    ProcessPhotoSensor();
 800296a:	f000 f949 	bl	8002c00 <ProcessPhotoSensor>
    
    /* 处理RS485接收 */
    ProcessRS485();
 800296e:	f000 f9cd 	bl	8002d0c <ProcessRS485>
    
    /* 处理门控（每50ms更新） */
    static uint32_t last_door_update = 0;
    if (current_time - last_door_update >= 50) {
 8002972:	4b46      	ldr	r3, [pc, #280]	@ (8002a8c <main+0x338>)
 8002974:	681b      	ldr	r3, [r3, #0]
 8002976:	68fa      	ldr	r2, [r7, #12]
 8002978:	1ad3      	subs	r3, r2, r3
 800297a:	2b31      	cmp	r3, #49	@ 0x31
 800297c:	d904      	bls.n	8002988 <main+0x234>
        last_door_update = current_time;
 800297e:	4a43      	ldr	r2, [pc, #268]	@ (8002a8c <main+0x338>)
 8002980:	68fb      	ldr	r3, [r7, #12]
 8002982:	6013      	str	r3, [r2, #0]
        ProcessDoorControl();
 8002984:	f000 fa84 	bl	8002e90 <ProcessDoorControl>
    }
    
    /* 处理LocalBB事件队列 */
    LocalBB_Process();
 8002988:	f7fe fa3e 	bl	8000e08 <LocalBB_Process>
    
    /* 每5秒打印一次状态 */
    if (current_time - last_status_time >= 5000) {
 800298c:	68fa      	ldr	r2, [r7, #12]
 800298e:	697b      	ldr	r3, [r7, #20]
 8002990:	1ad3      	subs	r3, r2, r3
 8002992:	f241 3287 	movw	r2, #4999	@ 0x1387
 8002996:	4293      	cmp	r3, r2
 8002998:	d9e2      	bls.n	8002960 <main+0x20c>
        last_status_time = current_time;
 800299a:	68fb      	ldr	r3, [r7, #12]
 800299c:	617b      	str	r3, [r7, #20]
        printf("[STATUS] Floor=%d, Dir=%s, Door=%s\r\n",
               system_state.current_floor,
 800299e:	4b3c      	ldr	r3, [pc, #240]	@ (8002a90 <main+0x33c>)
 80029a0:	781b      	ldrb	r3, [r3, #0]
        printf("[STATUS] Floor=%d, Dir=%s, Door=%s\r\n",
 80029a2:	4619      	mov	r1, r3
               system_state.direction == DIR_UP ? "UP" : 
 80029a4:	4b3a      	ldr	r3, [pc, #232]	@ (8002a90 <main+0x33c>)
 80029a6:	785b      	ldrb	r3, [r3, #1]
        printf("[STATUS] Floor=%d, Dir=%s, Door=%s\r\n",
 80029a8:	2b01      	cmp	r3, #1
 80029aa:	d007      	beq.n	80029bc <main+0x268>
               system_state.direction == DIR_DOWN ? "DN" : "STOP",
 80029ac:	4b38      	ldr	r3, [pc, #224]	@ (8002a90 <main+0x33c>)
 80029ae:	785b      	ldrb	r3, [r3, #1]
 80029b0:	2b02      	cmp	r3, #2
 80029b2:	d101      	bne.n	80029b8 <main+0x264>
 80029b4:	4a37      	ldr	r2, [pc, #220]	@ (8002a94 <main+0x340>)
 80029b6:	e002      	b.n	80029be <main+0x26a>
 80029b8:	4a37      	ldr	r2, [pc, #220]	@ (8002a98 <main+0x344>)
 80029ba:	e000      	b.n	80029be <main+0x26a>
        printf("[STATUS] Floor=%d, Dir=%s, Door=%s\r\n",
 80029bc:	4a37      	ldr	r2, [pc, #220]	@ (8002a9c <main+0x348>)
               system_state.door_is_open ? "OPEN" : "CLOSED");
 80029be:	4b34      	ldr	r3, [pc, #208]	@ (8002a90 <main+0x33c>)
 80029c0:	78db      	ldrb	r3, [r3, #3]
        printf("[STATUS] Floor=%d, Dir=%s, Door=%s\r\n",
 80029c2:	2b00      	cmp	r3, #0
 80029c4:	d001      	beq.n	80029ca <main+0x276>
 80029c6:	4b36      	ldr	r3, [pc, #216]	@ (8002aa0 <main+0x34c>)
 80029c8:	e000      	b.n	80029cc <main+0x278>
 80029ca:	4b36      	ldr	r3, [pc, #216]	@ (8002aa4 <main+0x350>)
 80029cc:	4836      	ldr	r0, [pc, #216]	@ (8002aa8 <main+0x354>)
 80029ce:	f003 fa77 	bl	8005ec0 <iprintf>
        printf("  Keyboard=%lu, Photo=%lu, RS485_RX=%lu, TX=%lu, DoorCmd=%lu\r\n",
 80029d2:	4b2f      	ldr	r3, [pc, #188]	@ (8002a90 <main+0x33c>)
 80029d4:	6859      	ldr	r1, [r3, #4]
 80029d6:	4b2e      	ldr	r3, [pc, #184]	@ (8002a90 <main+0x33c>)
 80029d8:	6898      	ldr	r0, [r3, #8]
 80029da:	4b2d      	ldr	r3, [pc, #180]	@ (8002a90 <main+0x33c>)
 80029dc:	68dc      	ldr	r4, [r3, #12]
 80029de:	4b2c      	ldr	r3, [pc, #176]	@ (8002a90 <main+0x33c>)
 80029e0:	691b      	ldr	r3, [r3, #16]
 80029e2:	4a2b      	ldr	r2, [pc, #172]	@ (8002a90 <main+0x33c>)
 80029e4:	6952      	ldr	r2, [r2, #20]
 80029e6:	9201      	str	r2, [sp, #4]
 80029e8:	9300      	str	r3, [sp, #0]
 80029ea:	4623      	mov	r3, r4
 80029ec:	4602      	mov	r2, r0
 80029ee:	482f      	ldr	r0, [pc, #188]	@ (8002aac <main+0x358>)
 80029f0:	f003 fa66 	bl	8005ec0 <iprintf>
               system_state.keyboard_count,
               system_state.photo_count,
               system_state.rs485_rx_count,
               system_state.rs485_tx_count,
               system_state.door_cmd_count);
        LocalBB_PrintStatus();
 80029f4:	f7fe fac4 	bl	8000f80 <LocalBB_PrintStatus>
  {
 80029f8:	e7b2      	b.n	8002960 <main+0x20c>
 80029fa:	bf00      	nop
 80029fc:	08007974 	.word	0x08007974
 8002a00:	080079a4 	.word	0x080079a4
 8002a04:	080079cc 	.word	0x080079cc
 8002a08:	08007a0c 	.word	0x08007a0c
 8002a0c:	08007a2c 	.word	0x08007a2c
 8002a10:	08007a50 	.word	0x08007a50
 8002a14:	08007a78 	.word	0x08007a78
 8002a18:	08007aa0 	.word	0x08007aa0
 8002a1c:	08007ac8 	.word	0x08007ac8
 8002a20:	20000020 	.word	0x20000020
 8002a24:	08007ae4 	.word	0x08007ae4
 8002a28:	08007aec 	.word	0x08007aec
 8002a2c:	08007af4 	.word	0x08007af4
 8002a30:	08007b24 	.word	0x08007b24
 8002a34:	08007b5c 	.word	0x08007b5c
 8002a38:	08007b88 	.word	0x08007b88
 8002a3c:	200007a4 	.word	0x200007a4
 8002a40:	08007bb8 	.word	0x08007bb8
 8002a44:	08007bdc 	.word	0x08007bdc
 8002a48:	08007bf0 	.word	0x08007bf0
 8002a4c:	08007c18 	.word	0x08007c18
 8002a50:	08007c38 	.word	0x08007c38
 8002a54:	08007c58 	.word	0x08007c58
 8002a58:	08007c7c 	.word	0x08007c7c
 8002a5c:	08007c90 	.word	0x08007c90
 8002a60:	08007cb4 	.word	0x08007cb4
 8002a64:	08007cd8 	.word	0x08007cd8
 8002a68:	3dcccccd 	.word	0x3dcccccd
 8002a6c:	08007cf8 	.word	0x08007cf8
 8002a70:	08007d18 	.word	0x08007d18
 8002a74:	08007d24 	.word	0x08007d24
 8002a78:	08007d48 	.word	0x08007d48
 8002a7c:	08007d6c 	.word	0x08007d6c
 8002a80:	200006fc 	.word	0x200006fc
 8002a84:	08007d88 	.word	0x08007d88
 8002a88:	08007db4 	.word	0x08007db4
 8002a8c:	20000708 	.word	0x20000708
 8002a90:	20000004 	.word	0x20000004
 8002a94:	08007de0 	.word	0x08007de0
 8002a98:	08007de4 	.word	0x08007de4
 8002a9c:	08007dec 	.word	0x08007dec
 8002aa0:	08007df0 	.word	0x08007df0
 8002aa4:	08007df8 	.word	0x08007df8
 8002aa8:	08007e00 	.word	0x08007e00
 8002aac:	08007e28 	.word	0x08007e28

08002ab0 <SystemClock_Config>:
/**
  * @brief System Clock Configuration
  * @retval None
  */
void SystemClock_Config(void)
{
 8002ab0:	b580      	push	{r7, lr}
 8002ab2:	b090      	sub	sp, #64	@ 0x40
 8002ab4:	af00      	add	r7, sp, #0
  RCC_OscInitTypeDef RCC_OscInitStruct = {0};
 8002ab6:	f107 0318 	add.w	r3, r7, #24
 8002aba:	2228      	movs	r2, #40	@ 0x28
 8002abc:	2100      	movs	r1, #0
 8002abe:	4618      	mov	r0, r3
 8002ac0:	f003 fb68 	bl	8006194 <memset>
  RCC_ClkInitTypeDef RCC_ClkInitStruct = {0};
 8002ac4:	1d3b      	adds	r3, r7, #4
 8002ac6:	2200      	movs	r2, #0
 8002ac8:	601a      	str	r2, [r3, #0]
 8002aca:	605a      	str	r2, [r3, #4]
 8002acc:	609a      	str	r2, [r3, #8]
 8002ace:	60da      	str	r2, [r3, #12]
 8002ad0:	611a      	str	r2, [r3, #16]

  /** Initializes the RCC Oscillators according to the specified parameters
  * in the RCC_OscInitTypeDef structure.
  */
  RCC_OscInitStruct.OscillatorType = RCC_OSCILLATORTYPE_HSE;
 8002ad2:	2301      	movs	r3, #1
 8002ad4:	61bb      	str	r3, [r7, #24]
  RCC_OscInitStruct.HSEState = RCC_HSE_ON;
 8002ad6:	f44f 3380 	mov.w	r3, #65536	@ 0x10000
 8002ada:	61fb      	str	r3, [r7, #28]
  RCC_OscInitStruct.HSEPredivValue = RCC_HSE_PREDIV_DIV1;
 8002adc:	2300      	movs	r3, #0
 8002ade:	623b      	str	r3, [r7, #32]
  RCC_OscInitStruct.HSIState = RCC_HSI_ON;
 8002ae0:	2301      	movs	r3, #1
 8002ae2:	62bb      	str	r3, [r7, #40]	@ 0x28
  RCC_OscInitStruct.PLL.PLLState = RCC_PLL_ON;
 8002ae4:	2302      	movs	r3, #2
 8002ae6:	637b      	str	r3, [r7, #52]	@ 0x34
  RCC_OscInitStruct.PLL.PLLSource = RCC_PLLSOURCE_HSE;
 8002ae8:	f44f 3380 	mov.w	r3, #65536	@ 0x10000
 8002aec:	63bb      	str	r3, [r7, #56]	@ 0x38
  RCC_OscInitStruct.PLL.PLLMUL = RCC_PLL_MUL9;
 8002aee:	f44f 13e0 	mov.w	r3, #1835008	@ 0x1c0000
 8002af2:	63fb      	str	r3, [r7, #60]	@ 0x3c
  if (HAL_RCC_OscConfig(&RCC_OscInitStruct) != HAL_OK)
 8002af4:	f107 0318 	add.w	r3, r7, #24
 8002af8:	4618      	mov	r0, r3
 8002afa:	f001 fbb3 	bl	8004264 <HAL_RCC_OscConfig>
 8002afe:	4603      	mov	r3, r0
 8002b00:	2b00      	cmp	r3, #0
 8002b02:	d001      	beq.n	8002b08 <SystemClock_Config+0x58>
  {
    Error_Handler();
 8002b04:	f000 fab1 	bl	800306a <Error_Handler>
  }

  /** Initializes the CPU, AHB and APB buses clocks
  */
  RCC_ClkInitStruct.ClockType = RCC_CLOCKTYPE_HCLK|RCC_CLOCKTYPE_SYSCLK
 8002b08:	230f      	movs	r3, #15
 8002b0a:	607b      	str	r3, [r7, #4]
                              |RCC_CLOCKTYPE_PCLK1|RCC_CLOCKTYPE_PCLK2;
  RCC_ClkInitStruct.SYSCLKSource = RCC_SYSCLKSOURCE_PLLCLK;
 8002b0c:	2302      	movs	r3, #2
 8002b0e:	60bb      	str	r3, [r7, #8]
  RCC_ClkInitStruct.AHBCLKDivider = RCC_SYSCLK_DIV1;
 8002b10:	2300      	movs	r3, #0
 8002b12:	60fb      	str	r3, [r7, #12]
  RCC_ClkInitStruct.APB1CLKDivider = RCC_HCLK_DIV2;
 8002b14:	f44f 6380 	mov.w	r3, #1024	@ 0x400
 8002b18:	613b      	str	r3, [r7, #16]
  RCC_ClkInitStruct.APB2CLKDivider = RCC_HCLK_DIV1;
 8002b1a:	2300      	movs	r3, #0
 8002b1c:	617b      	str	r3, [r7, #20]

  if (HAL_RCC_ClockConfig(&RCC_ClkInitStruct, FLASH_LATENCY_2) != HAL_OK)
 8002b1e:	1d3b      	adds	r3, r7, #4
 8002b20:	2102      	movs	r1, #2
 8002b22:	4618      	mov	r0, r3
 8002b24:	f001 fe20 	bl	8004768 <HAL_RCC_ClockConfig>
 8002b28:	4603      	mov	r3, r0
 8002b2a:	2b00      	cmp	r3, #0
 8002b2c:	d001      	beq.n	8002b32 <SystemClock_Config+0x82>
  {
    Error_Handler();
 8002b2e:	f000 fa9c 	bl	800306a <Error_Handler>
  }
}
 8002b32:	bf00      	nop
 8002b34:	3740      	adds	r7, #64	@ 0x40
 8002b36:	46bd      	mov	sp, r7
 8002b38:	bd80      	pop	{r7, pc}
	...

08002b3c <ProcessKeyboard>:
/* USER CODE BEGIN 4 */

/**
  * @brief  处理键盘输入
  */
void ProcessKeyboard(void) {
 8002b3c:	b580      	push	{r7, lr}
 8002b3e:	b082      	sub	sp, #8
 8002b40:	af00      	add	r7, sp, #0
    Keyboard_Handler();
 8002b42:	f7fe fcef 	bl	8001524 <Keyboard_Handler>
    
    uint8_t key;
    if (Keyboard_PopKey(&key)) {
 8002b46:	1dfb      	adds	r3, r7, #7
 8002b48:	4618      	mov	r0, r3
 8002b4a:	f7fe fec3 	bl	80018d4 <Keyboard_PopKey>
 8002b4e:	4603      	mov	r3, r0
 8002b50:	2b00      	cmp	r3, #0
 8002b52:	d03f      	beq.n	8002bd4 <ProcessKeyboard+0x98>
        system_state.keyboard_count++;
 8002b54:	4b21      	ldr	r3, [pc, #132]	@ (8002bdc <ProcessKeyboard+0xa0>)
 8002b56:	685b      	ldr	r3, [r3, #4]
 8002b58:	3301      	adds	r3, #1
 8002b5a:	4a20      	ldr	r2, [pc, #128]	@ (8002bdc <ProcessKeyboard+0xa0>)
 8002b5c:	6053      	str	r3, [r2, #4]
        
        printf("\r\n========================================\r\n");
 8002b5e:	4820      	ldr	r0, [pc, #128]	@ (8002be0 <ProcessKeyboard+0xa4>)
 8002b60:	f003 fa16 	bl	8005f90 <puts>
        printf("[KEYBOARD #%lu] Key detected: 0x%02X\r\n", system_state.keyboard_count, key);
 8002b64:	4b1d      	ldr	r3, [pc, #116]	@ (8002bdc <ProcessKeyboard+0xa0>)
 8002b66:	685b      	ldr	r3, [r3, #4]
 8002b68:	79fa      	ldrb	r2, [r7, #7]
 8002b6a:	4619      	mov	r1, r3
 8002b6c:	481d      	ldr	r0, [pc, #116]	@ (8002be4 <ProcessKeyboard+0xa8>)
 8002b6e:	f003 f9a7 	bl	8005ec0 <iprintf>
        
        switch(key) {
 8002b72:	79fb      	ldrb	r3, [r7, #7]
 8002b74:	3b0d      	subs	r3, #13
 8002b76:	2b03      	cmp	r3, #3
 8002b78:	d823      	bhi.n	8002bc2 <ProcessKeyboard+0x86>
 8002b7a:	a201      	add	r2, pc, #4	@ (adr r2, 8002b80 <ProcessKeyboard+0x44>)
 8002b7c:	f852 f023 	ldr.w	pc, [r2, r3, lsl #2]
 8002b80:	08002bbb 	.word	0x08002bbb
 8002b84:	08002bad 	.word	0x08002bad
 8002b88:	08002b9f 	.word	0x08002b9f
 8002b8c:	08002b91 	.word	0x08002b91
            case KEY_S16:  // Floor 1
                printf("S16 -> Floor 1 call\r\n");
 8002b90:	4815      	ldr	r0, [pc, #84]	@ (8002be8 <ProcessKeyboard+0xac>)
 8002b92:	f003 f9fd 	bl	8005f90 <puts>
                // 只使用LocalBB处理，避免重复发送
                LocalBB_AddCabinCall(1);
 8002b96:	2001      	movs	r0, #1
 8002b98:	f7fd fff0 	bl	8000b7c <LocalBB_AddCabinCall>
                break;
 8002b9c:	e017      	b.n	8002bce <ProcessKeyboard+0x92>
                
            case KEY_S15:  // Floor 2
                printf("S15 -> Floor 2 call\r\n");
 8002b9e:	4813      	ldr	r0, [pc, #76]	@ (8002bec <ProcessKeyboard+0xb0>)
 8002ba0:	f003 f9f6 	bl	8005f90 <puts>
                // 只使用LocalBB处理，避免重复发送
                LocalBB_AddCabinCall(2);
 8002ba4:	2002      	movs	r0, #2
 8002ba6:	f7fd ffe9 	bl	8000b7c <LocalBB_AddCabinCall>
                break;
 8002baa:	e010      	b.n	8002bce <ProcessKeyboard+0x92>
                
            case KEY_S14:  // Floor 3
                printf("S14 -> Floor 3 call\r\n");
 8002bac:	4810      	ldr	r0, [pc, #64]	@ (8002bf0 <ProcessKeyboard+0xb4>)
 8002bae:	f003 f9ef 	bl	8005f90 <puts>
                // 只使用LocalBB处理，避免重复发送
                LocalBB_AddCabinCall(3);
 8002bb2:	2003      	movs	r0, #3
 8002bb4:	f7fd ffe2 	bl	8000b7c <LocalBB_AddCabinCall>
                break;
 8002bb8:	e009      	b.n	8002bce <ProcessKeyboard+0x92>
                
            case KEY_S13:  // Not used
                printf("S13 pressed (not used)\r\n");
 8002bba:	480e      	ldr	r0, [pc, #56]	@ (8002bf4 <ProcessKeyboard+0xb8>)
 8002bbc:	f003 f9e8 	bl	8005f90 <puts>
                break;
 8002bc0:	e005      	b.n	8002bce <ProcessKeyboard+0x92>
                
            default:
                printf("Unknown key (0x%02X)\r\n", key);
 8002bc2:	79fb      	ldrb	r3, [r7, #7]
 8002bc4:	4619      	mov	r1, r3
 8002bc6:	480c      	ldr	r0, [pc, #48]	@ (8002bf8 <ProcessKeyboard+0xbc>)
 8002bc8:	f003 f97a 	bl	8005ec0 <iprintf>
                break;
 8002bcc:	bf00      	nop
        }
        printf("========================================\r\n");
 8002bce:	480b      	ldr	r0, [pc, #44]	@ (8002bfc <ProcessKeyboard+0xc0>)
 8002bd0:	f003 f9de 	bl	8005f90 <puts>
    }
}
 8002bd4:	bf00      	nop
 8002bd6:	3708      	adds	r7, #8
 8002bd8:	46bd      	mov	sp, r7
 8002bda:	bd80      	pop	{r7, pc}
 8002bdc:	20000004 	.word	0x20000004
 8002be0:	08007e68 	.word	0x08007e68
 8002be4:	08007e94 	.word	0x08007e94
 8002be8:	08007ebc 	.word	0x08007ebc
 8002bec:	08007ed4 	.word	0x08007ed4
 8002bf0:	08007eec 	.word	0x08007eec
 8002bf4:	08007f04 	.word	0x08007f04
 8002bf8:	08007f1c 	.word	0x08007f1c
 8002bfc:	08007f34 	.word	0x08007f34

08002c00 <ProcessPhotoSensor>:

/**
  * @brief  处理光电传感器 - 增强版带防抖和智能楼层检测
  */
void ProcessPhotoSensor(void) {
 8002c00:	b580      	push	{r7, lr}
 8002c02:	b086      	sub	sp, #24
 8002c04:	af02      	add	r7, sp, #8
    uint32_t current_time = HAL_GetTick();
 8002c06:	f000 fd83 	bl	8003710 <HAL_GetTick>
 8002c0a:	60b8      	str	r0, [r7, #8]
    
    if (sensor_triggered) {
 8002c0c:	4b37      	ldr	r3, [pc, #220]	@ (8002cec <ProcessPhotoSensor+0xec>)
 8002c0e:	781b      	ldrb	r3, [r3, #0]
 8002c10:	b2db      	uxtb	r3, r3
 8002c12:	2b00      	cmp	r3, #0
 8002c14:	d067      	beq.n	8002ce6 <ProcessPhotoSensor+0xe6>
        sensor_triggered = false;
 8002c16:	4b35      	ldr	r3, [pc, #212]	@ (8002cec <ProcessPhotoSensor+0xec>)
 8002c18:	2200      	movs	r2, #0
 8002c1a:	701a      	strb	r2, [r3, #0]
        
        /* 防抖处理 */
        if (current_time - system_state.last_photo_time < PHOTO_SENSOR_DEBOUNCE_MS) {
 8002c1c:	4b34      	ldr	r3, [pc, #208]	@ (8002cf0 <ProcessPhotoSensor+0xf0>)
 8002c1e:	699b      	ldr	r3, [r3, #24]
 8002c20:	68ba      	ldr	r2, [r7, #8]
 8002c22:	1ad3      	subs	r3, r2, r3
 8002c24:	2bc7      	cmp	r3, #199	@ 0xc7
 8002c26:	d95d      	bls.n	8002ce4 <ProcessPhotoSensor+0xe4>
            return;  // 忽略抖动
        }
        system_state.last_photo_time = current_time;
 8002c28:	4a31      	ldr	r2, [pc, #196]	@ (8002cf0 <ProcessPhotoSensor+0xf0>)
 8002c2a:	68bb      	ldr	r3, [r7, #8]
 8002c2c:	6193      	str	r3, [r2, #24]
        
        photo_sensor_state_t current_state = PhotoSensor_GetState();
 8002c2e:	f7fe ff11 	bl	8001a54 <PhotoSensor_GetState>
 8002c32:	4603      	mov	r3, r0
 8002c34:	71fb      	strb	r3, [r7, #7]
        
        /* 只在状态从CLEAR变为BLOCKED时触发（到达楼层） */
        if (current_state == PHOTO_SENSOR_BLOCKED && 
 8002c36:	79fb      	ldrb	r3, [r7, #7]
 8002c38:	2b00      	cmp	r3, #0
 8002c3a:	d14f      	bne.n	8002cdc <ProcessPhotoSensor+0xdc>
            last_sensor_state == PHOTO_SENSOR_CLEAR) {
 8002c3c:	4b2d      	ldr	r3, [pc, #180]	@ (8002cf4 <ProcessPhotoSensor+0xf4>)
 8002c3e:	781b      	ldrb	r3, [r3, #0]
        if (current_state == PHOTO_SENSOR_BLOCKED && 
 8002c40:	2b01      	cmp	r3, #1
 8002c42:	d14b      	bne.n	8002cdc <ProcessPhotoSensor+0xdc>
            
            system_state.photo_count++;
 8002c44:	4b2a      	ldr	r3, [pc, #168]	@ (8002cf0 <ProcessPhotoSensor+0xf0>)
 8002c46:	689b      	ldr	r3, [r3, #8]
 8002c48:	3301      	adds	r3, #1
 8002c4a:	4a29      	ldr	r2, [pc, #164]	@ (8002cf0 <ProcessPhotoSensor+0xf0>)
 8002c4c:	6093      	str	r3, [r2, #8]
            
            /* 智能楼层检测 - 基于方向和当前楼层 */
            uint8_t detected_floor = system_state.current_floor;
 8002c4e:	4b28      	ldr	r3, [pc, #160]	@ (8002cf0 <ProcessPhotoSensor+0xf0>)
 8002c50:	781b      	ldrb	r3, [r3, #0]
 8002c52:	73fb      	strb	r3, [r7, #15]
            
            if (system_state.direction == DIR_UP) {
 8002c54:	4b26      	ldr	r3, [pc, #152]	@ (8002cf0 <ProcessPhotoSensor+0xf0>)
 8002c56:	785b      	ldrb	r3, [r3, #1]
 8002c58:	2b01      	cmp	r3, #1
 8002c5a:	d109      	bne.n	8002c70 <ProcessPhotoSensor+0x70>
                /* 上行：检测到的是下一个楼层 */
                detected_floor = system_state.current_floor + 1;
 8002c5c:	4b24      	ldr	r3, [pc, #144]	@ (8002cf0 <ProcessPhotoSensor+0xf0>)
 8002c5e:	781b      	ldrb	r3, [r3, #0]
 8002c60:	3301      	adds	r3, #1
 8002c62:	73fb      	strb	r3, [r7, #15]
                if (detected_floor > MAX_FLOORS) {
 8002c64:	7bfb      	ldrb	r3, [r7, #15]
 8002c66:	2b03      	cmp	r3, #3
 8002c68:	d90f      	bls.n	8002c8a <ProcessPhotoSensor+0x8a>
                    detected_floor = MAX_FLOORS;
 8002c6a:	2303      	movs	r3, #3
 8002c6c:	73fb      	strb	r3, [r7, #15]
 8002c6e:	e00c      	b.n	8002c8a <ProcessPhotoSensor+0x8a>
                }
            }
            else if (system_state.direction == DIR_DOWN) {
 8002c70:	4b1f      	ldr	r3, [pc, #124]	@ (8002cf0 <ProcessPhotoSensor+0xf0>)
 8002c72:	785b      	ldrb	r3, [r3, #1]
 8002c74:	2b02      	cmp	r3, #2
 8002c76:	d108      	bne.n	8002c8a <ProcessPhotoSensor+0x8a>
                /* 下行：检测到的是下一个楼层 */
                detected_floor = system_state.current_floor - 1;
 8002c78:	4b1d      	ldr	r3, [pc, #116]	@ (8002cf0 <ProcessPhotoSensor+0xf0>)
 8002c7a:	781b      	ldrb	r3, [r3, #0]
 8002c7c:	3b01      	subs	r3, #1
 8002c7e:	73fb      	strb	r3, [r7, #15]
                if (detected_floor < 1) {
 8002c80:	7bfb      	ldrb	r3, [r7, #15]
 8002c82:	2b00      	cmp	r3, #0
 8002c84:	d101      	bne.n	8002c8a <ProcessPhotoSensor+0x8a>
                    detected_floor = 1;
 8002c86:	2301      	movs	r3, #1
 8002c88:	73fb      	strb	r3, [r7, #15]
                }
            }
            /* 如果静止，保持当前楼层不变 */
            
            printf("[PHOTO #%lu] Floor %d detected (Dir=%s, Prev=%d)\r\n",
 8002c8a:	4b19      	ldr	r3, [pc, #100]	@ (8002cf0 <ProcessPhotoSensor+0xf0>)
 8002c8c:	6899      	ldr	r1, [r3, #8]
 8002c8e:	7bfa      	ldrb	r2, [r7, #15]
                   system_state.photo_count, detected_floor,
                   system_state.direction == DIR_UP ? "UP" :
 8002c90:	4b17      	ldr	r3, [pc, #92]	@ (8002cf0 <ProcessPhotoSensor+0xf0>)
 8002c92:	785b      	ldrb	r3, [r3, #1]
            printf("[PHOTO #%lu] Floor %d detected (Dir=%s, Prev=%d)\r\n",
 8002c94:	2b01      	cmp	r3, #1
 8002c96:	d007      	beq.n	8002ca8 <ProcessPhotoSensor+0xa8>
                   system_state.direction == DIR_DOWN ? "DN" : "STOP",
 8002c98:	4b15      	ldr	r3, [pc, #84]	@ (8002cf0 <ProcessPhotoSensor+0xf0>)
 8002c9a:	785b      	ldrb	r3, [r3, #1]
 8002c9c:	2b02      	cmp	r3, #2
 8002c9e:	d101      	bne.n	8002ca4 <ProcessPhotoSensor+0xa4>
 8002ca0:	4b15      	ldr	r3, [pc, #84]	@ (8002cf8 <ProcessPhotoSensor+0xf8>)
 8002ca2:	e002      	b.n	8002caa <ProcessPhotoSensor+0xaa>
 8002ca4:	4b15      	ldr	r3, [pc, #84]	@ (8002cfc <ProcessPhotoSensor+0xfc>)
 8002ca6:	e000      	b.n	8002caa <ProcessPhotoSensor+0xaa>
            printf("[PHOTO #%lu] Floor %d detected (Dir=%s, Prev=%d)\r\n",
 8002ca8:	4b15      	ldr	r3, [pc, #84]	@ (8002d00 <ProcessPhotoSensor+0x100>)
                   system_state.current_floor);
 8002caa:	4811      	ldr	r0, [pc, #68]	@ (8002cf0 <ProcessPhotoSensor+0xf0>)
 8002cac:	7800      	ldrb	r0, [r0, #0]
            printf("[PHOTO #%lu] Floor %d detected (Dir=%s, Prev=%d)\r\n",
 8002cae:	9000      	str	r0, [sp, #0]
 8002cb0:	4814      	ldr	r0, [pc, #80]	@ (8002d04 <ProcessPhotoSensor+0x104>)
 8002cb2:	f003 f905 	bl	8005ec0 <iprintf>
            
            /* 立即发送光电传感器事件给Master */
            SendPhotoSensorEvent(detected_floor);
 8002cb6:	7bfb      	ldrb	r3, [r7, #15]
 8002cb8:	4618      	mov	r0, r3
 8002cba:	f000 f975 	bl	8002fa8 <SendPhotoSensorEvent>
            
            /* 更新当前楼层 */
            system_state.current_floor = detected_floor;
 8002cbe:	4a0c      	ldr	r2, [pc, #48]	@ (8002cf0 <ProcessPhotoSensor+0xf0>)
 8002cc0:	7bfb      	ldrb	r3, [r7, #15]
 8002cc2:	7013      	strb	r3, [r2, #0]
            
            /* 如果到达目标楼层，更新状态 */
            if (detected_floor == system_state.target_floor) {
 8002cc4:	4b0a      	ldr	r3, [pc, #40]	@ (8002cf0 <ProcessPhotoSensor+0xf0>)
 8002cc6:	789b      	ldrb	r3, [r3, #2]
 8002cc8:	7bfa      	ldrb	r2, [r7, #15]
 8002cca:	429a      	cmp	r2, r3
 8002ccc:	d104      	bne.n	8002cd8 <ProcessPhotoSensor+0xd8>
                printf("[PHOTO] Target floor %d reached!\r\n", detected_floor);
 8002cce:	7bfb      	ldrb	r3, [r7, #15]
 8002cd0:	4619      	mov	r1, r3
 8002cd2:	480d      	ldr	r0, [pc, #52]	@ (8002d08 <ProcessPhotoSensor+0x108>)
 8002cd4:	f003 f8f4 	bl	8005ec0 <iprintf>
                /* Master会处理停止，Slave只报告 */
            }
            
            /* 通过LocalBB处理 */
            LocalBB_AddPhotoSensor();
 8002cd8:	f7fd ffba 	bl	8000c50 <LocalBB_AddPhotoSensor>
        }
        
        last_sensor_state = current_state;
 8002cdc:	4a05      	ldr	r2, [pc, #20]	@ (8002cf4 <ProcessPhotoSensor+0xf4>)
 8002cde:	79fb      	ldrb	r3, [r7, #7]
 8002ce0:	7013      	strb	r3, [r2, #0]
 8002ce2:	e000      	b.n	8002ce6 <ProcessPhotoSensor+0xe6>
            return;  // 忽略抖动
 8002ce4:	bf00      	nop
    }
}
 8002ce6:	3710      	adds	r7, #16
 8002ce8:	46bd      	mov	sp, r7
 8002cea:	bd80      	pop	{r7, pc}
 8002cec:	200006f8 	.word	0x200006f8
 8002cf0:	20000004 	.word	0x20000004
 8002cf4:	20000020 	.word	0x20000020
 8002cf8:	08007de0 	.word	0x08007de0
 8002cfc:	08007de4 	.word	0x08007de4
 8002d00:	08007dec 	.word	0x08007dec
 8002d04:	08007f60 	.word	0x08007f60
 8002d08:	08007f94 	.word	0x08007f94

08002d0c <ProcessRS485>:

/**
  * @brief  处理RS485接收
  */
void ProcessRS485(void) {
 8002d0c:	b5b0      	push	{r4, r5, r7, lr}
 8002d0e:	b098      	sub	sp, #96	@ 0x60
 8002d10:	af04      	add	r7, sp, #16
    uint8_t rx_buffer[64];
    uint16_t rx_len = rs485_receive_packet(rx_buffer, sizeof(rx_buffer));
 8002d12:	f107 0308 	add.w	r3, r7, #8
 8002d16:	2140      	movs	r1, #64	@ 0x40
 8002d18:	4618      	mov	r0, r3
 8002d1a:	f7fe fa41 	bl	80011a0 <rs485_receive_packet>
 8002d1e:	4603      	mov	r3, r0
 8002d20:	f8a7 304e 	strh.w	r3, [r7, #78]	@ 0x4e
    
    if (rx_len > 0) {
 8002d24:	f8b7 304e 	ldrh.w	r3, [r7, #78]	@ 0x4e
 8002d28:	2b00      	cmp	r3, #0
 8002d2a:	f000 809b 	beq.w	8002e64 <ProcessRS485+0x158>
        system_state.rs485_rx_count++;
 8002d2e:	4b4f      	ldr	r3, [pc, #316]	@ (8002e6c <ProcessRS485+0x160>)
 8002d30:	68db      	ldr	r3, [r3, #12]
 8002d32:	3301      	adds	r3, #1
 8002d34:	4a4d      	ldr	r2, [pc, #308]	@ (8002e6c <ProcessRS485+0x160>)
 8002d36:	60d3      	str	r3, [r2, #12]
        
        /* 调试：打印所有接收到的命令 */
        printf("[RS485 DEBUG] Received CMD=0x%02X, len=%d, data=[%02X %02X %02X %02X]\r\n", 
               rx_buffer[0], rx_len, 
 8002d38:	7a3b      	ldrb	r3, [r7, #8]
        printf("[RS485 DEBUG] Received CMD=0x%02X, len=%d, data=[%02X %02X %02X %02X]\r\n", 
 8002d3a:	461c      	mov	r4, r3
 8002d3c:	f8b7 204e 	ldrh.w	r2, [r7, #78]	@ 0x4e
               rx_buffer[0], rx_buffer[1], rx_buffer[2], rx_buffer[3]);
 8002d40:	7a3b      	ldrb	r3, [r7, #8]
        printf("[RS485 DEBUG] Received CMD=0x%02X, len=%d, data=[%02X %02X %02X %02X]\r\n", 
 8002d42:	461d      	mov	r5, r3
               rx_buffer[0], rx_buffer[1], rx_buffer[2], rx_buffer[3]);
 8002d44:	7a7b      	ldrb	r3, [r7, #9]
 8002d46:	7ab9      	ldrb	r1, [r7, #10]
 8002d48:	7af8      	ldrb	r0, [r7, #11]
        printf("[RS485 DEBUG] Received CMD=0x%02X, len=%d, data=[%02X %02X %02X %02X]\r\n", 
 8002d4a:	9002      	str	r0, [sp, #8]
 8002d4c:	9101      	str	r1, [sp, #4]
 8002d4e:	9300      	str	r3, [sp, #0]
 8002d50:	462b      	mov	r3, r5
 8002d52:	4621      	mov	r1, r4
 8002d54:	4846      	ldr	r0, [pc, #280]	@ (8002e70 <ProcessRS485+0x164>)
 8002d56:	f003 f8b3 	bl	8005ec0 <iprintf>
        
        /* 方向设置命令 */
        if (rx_buffer[0] == CMD_DIRECTION_SET && rx_len >= 4) {
 8002d5a:	7a3b      	ldrb	r3, [r7, #8]
 8002d5c:	2b40      	cmp	r3, #64	@ 0x40
 8002d5e:	d137      	bne.n	8002dd0 <ProcessRS485+0xc4>
 8002d60:	f8b7 304e 	ldrh.w	r3, [r7, #78]	@ 0x4e
 8002d64:	2b03      	cmp	r3, #3
 8002d66:	d933      	bls.n	8002dd0 <ProcessRS485+0xc4>
            uint8_t dir = rx_buffer[1];
 8002d68:	7a7b      	ldrb	r3, [r7, #9]
 8002d6a:	f887 304d 	strb.w	r3, [r7, #77]	@ 0x4d
            uint8_t cur = rx_buffer[2];
 8002d6e:	7abb      	ldrb	r3, [r7, #10]
 8002d70:	f887 304c 	strb.w	r3, [r7, #76]	@ 0x4c
            uint8_t target = rx_buffer[3];
 8002d74:	7afb      	ldrb	r3, [r7, #11]
 8002d76:	f887 304b 	strb.w	r3, [r7, #75]	@ 0x4b
            
            system_state.direction = dir;
 8002d7a:	4a3c      	ldr	r2, [pc, #240]	@ (8002e6c <ProcessRS485+0x160>)
 8002d7c:	f897 304d 	ldrb.w	r3, [r7, #77]	@ 0x4d
 8002d80:	7053      	strb	r3, [r2, #1]
            system_state.current_floor = cur;
 8002d82:	4a3a      	ldr	r2, [pc, #232]	@ (8002e6c <ProcessRS485+0x160>)
 8002d84:	f897 304c 	ldrb.w	r3, [r7, #76]	@ 0x4c
 8002d88:	7013      	strb	r3, [r2, #0]
            system_state.target_floor = target;
 8002d8a:	4a38      	ldr	r2, [pc, #224]	@ (8002e6c <ProcessRS485+0x160>)
 8002d8c:	f897 304b 	ldrb.w	r3, [r7, #75]	@ 0x4b
 8002d90:	7093      	strb	r3, [r2, #2]
            
            printf("[RS485 RX] Direction=%s, F%d->F%d\r\n",
 8002d92:	f897 304d 	ldrb.w	r3, [r7, #77]	@ 0x4d
 8002d96:	2b01      	cmp	r3, #1
 8002d98:	d007      	beq.n	8002daa <ProcessRS485+0x9e>
                   dir == DIR_UP ? "UP" : dir == DIR_DOWN ? "DN" : "STOP",
 8002d9a:	f897 304d 	ldrb.w	r3, [r7, #77]	@ 0x4d
 8002d9e:	2b02      	cmp	r3, #2
 8002da0:	d101      	bne.n	8002da6 <ProcessRS485+0x9a>
 8002da2:	4934      	ldr	r1, [pc, #208]	@ (8002e74 <ProcessRS485+0x168>)
 8002da4:	e002      	b.n	8002dac <ProcessRS485+0xa0>
 8002da6:	4934      	ldr	r1, [pc, #208]	@ (8002e78 <ProcessRS485+0x16c>)
 8002da8:	e000      	b.n	8002dac <ProcessRS485+0xa0>
            printf("[RS485 RX] Direction=%s, F%d->F%d\r\n",
 8002daa:	4934      	ldr	r1, [pc, #208]	@ (8002e7c <ProcessRS485+0x170>)
 8002dac:	f897 204c 	ldrb.w	r2, [r7, #76]	@ 0x4c
 8002db0:	f897 304b 	ldrb.w	r3, [r7, #75]	@ 0x4b
 8002db4:	4832      	ldr	r0, [pc, #200]	@ (8002e80 <ProcessRS485+0x174>)
 8002db6:	f003 f883 	bl	8005ec0 <iprintf>
                   cur, target);
            
            /* 通过LocalBB处理 */
            LocalBB_SetDirection(dir, cur, target);
 8002dba:	f897 204b 	ldrb.w	r2, [r7, #75]	@ 0x4b
 8002dbe:	f897 104c 	ldrb.w	r1, [r7, #76]	@ 0x4c
 8002dc2:	f897 304d 	ldrb.w	r3, [r7, #77]	@ 0x4d
 8002dc6:	4618      	mov	r0, r3
 8002dc8:	f7fd ff92 	bl	8000cf0 <LocalBB_SetDirection>
        if (rx_buffer[0] == CMD_DIRECTION_SET && rx_len >= 4) {
 8002dcc:	bf00      	nop
            tx_buffer[3] = system_state.door_is_open ? 1 : 0;
            rs485_send_packet_dma(tx_buffer, 4);
            system_state.rs485_tx_count++;
        }
    }
}
 8002dce:	e049      	b.n	8002e64 <ProcessRS485+0x158>
        else if (rx_buffer[0] == CMD_DOOR_OPEN) {
 8002dd0:	7a3b      	ldrb	r3, [r7, #8]
 8002dd2:	2b20      	cmp	r3, #32
 8002dd4:	d115      	bne.n	8002e02 <ProcessRS485+0xf6>
            printf("\r\n[RS485 RX] Door OPEN command received at tick %lu\r\n", HAL_GetTick());
 8002dd6:	f000 fc9b 	bl	8003710 <HAL_GetTick>
 8002dda:	4603      	mov	r3, r0
 8002ddc:	4619      	mov	r1, r3
 8002dde:	4829      	ldr	r0, [pc, #164]	@ (8002e84 <ProcessRS485+0x178>)
 8002de0:	f003 f86e 	bl	8005ec0 <iprintf>
            LocalBB_AddDoorCommand(true);
 8002de4:	2001      	movs	r0, #1
 8002de6:	f7fd ffdd 	bl	8000da4 <LocalBB_AddDoorCommand>
            system_state.door_cmd_count++;
 8002dea:	4b20      	ldr	r3, [pc, #128]	@ (8002e6c <ProcessRS485+0x160>)
 8002dec:	695b      	ldr	r3, [r3, #20]
 8002dee:	3301      	adds	r3, #1
 8002df0:	4a1e      	ldr	r2, [pc, #120]	@ (8002e6c <ProcessRS485+0x160>)
 8002df2:	6153      	str	r3, [r2, #20]
            printf("[RS485 RX] Total door commands: %lu\r\n", system_state.door_cmd_count);
 8002df4:	4b1d      	ldr	r3, [pc, #116]	@ (8002e6c <ProcessRS485+0x160>)
 8002df6:	695b      	ldr	r3, [r3, #20]
 8002df8:	4619      	mov	r1, r3
 8002dfa:	4823      	ldr	r0, [pc, #140]	@ (8002e88 <ProcessRS485+0x17c>)
 8002dfc:	f003 f860 	bl	8005ec0 <iprintf>
}
 8002e00:	e030      	b.n	8002e64 <ProcessRS485+0x158>
        else if (rx_buffer[0] == CMD_DOOR_CLOSE) {
 8002e02:	7a3b      	ldrb	r3, [r7, #8]
 8002e04:	2b21      	cmp	r3, #33	@ 0x21
 8002e06:	d115      	bne.n	8002e34 <ProcessRS485+0x128>
            printf("\r\n[RS485 RX] Door CLOSE command received at tick %lu\r\n", HAL_GetTick());
 8002e08:	f000 fc82 	bl	8003710 <HAL_GetTick>
 8002e0c:	4603      	mov	r3, r0
 8002e0e:	4619      	mov	r1, r3
 8002e10:	481e      	ldr	r0, [pc, #120]	@ (8002e8c <ProcessRS485+0x180>)
 8002e12:	f003 f855 	bl	8005ec0 <iprintf>
            LocalBB_AddDoorCommand(false);
 8002e16:	2000      	movs	r0, #0
 8002e18:	f7fd ffc4 	bl	8000da4 <LocalBB_AddDoorCommand>
            system_state.door_cmd_count++;
 8002e1c:	4b13      	ldr	r3, [pc, #76]	@ (8002e6c <ProcessRS485+0x160>)
 8002e1e:	695b      	ldr	r3, [r3, #20]
 8002e20:	3301      	adds	r3, #1
 8002e22:	4a12      	ldr	r2, [pc, #72]	@ (8002e6c <ProcessRS485+0x160>)
 8002e24:	6153      	str	r3, [r2, #20]
            printf("[RS485 RX] Total door commands: %lu\r\n", system_state.door_cmd_count);
 8002e26:	4b11      	ldr	r3, [pc, #68]	@ (8002e6c <ProcessRS485+0x160>)
 8002e28:	695b      	ldr	r3, [r3, #20]
 8002e2a:	4619      	mov	r1, r3
 8002e2c:	4816      	ldr	r0, [pc, #88]	@ (8002e88 <ProcessRS485+0x17c>)
 8002e2e:	f003 f847 	bl	8005ec0 <iprintf>
}
 8002e32:	e017      	b.n	8002e64 <ProcessRS485+0x158>
        else if (rx_buffer[0] == CMD_STATUS_REQUEST) {
 8002e34:	7a3b      	ldrb	r3, [r7, #8]
 8002e36:	2b50      	cmp	r3, #80	@ 0x50
 8002e38:	d114      	bne.n	8002e64 <ProcessRS485+0x158>
            tx_buffer[0] = CMD_STATUS_RESPONSE;
 8002e3a:	2351      	movs	r3, #81	@ 0x51
 8002e3c:	713b      	strb	r3, [r7, #4]
            tx_buffer[1] = system_state.current_floor;
 8002e3e:	4b0b      	ldr	r3, [pc, #44]	@ (8002e6c <ProcessRS485+0x160>)
 8002e40:	781b      	ldrb	r3, [r3, #0]
 8002e42:	717b      	strb	r3, [r7, #5]
            tx_buffer[2] = system_state.direction;
 8002e44:	4b09      	ldr	r3, [pc, #36]	@ (8002e6c <ProcessRS485+0x160>)
 8002e46:	785b      	ldrb	r3, [r3, #1]
 8002e48:	71bb      	strb	r3, [r7, #6]
            tx_buffer[3] = system_state.door_is_open ? 1 : 0;
 8002e4a:	4b08      	ldr	r3, [pc, #32]	@ (8002e6c <ProcessRS485+0x160>)
 8002e4c:	78db      	ldrb	r3, [r3, #3]
 8002e4e:	71fb      	strb	r3, [r7, #7]
            rs485_send_packet_dma(tx_buffer, 4);
 8002e50:	1d3b      	adds	r3, r7, #4
 8002e52:	2104      	movs	r1, #4
 8002e54:	4618      	mov	r0, r3
 8002e56:	f7fe f953 	bl	8001100 <rs485_send_packet_dma>
            system_state.rs485_tx_count++;
 8002e5a:	4b04      	ldr	r3, [pc, #16]	@ (8002e6c <ProcessRS485+0x160>)
 8002e5c:	691b      	ldr	r3, [r3, #16]
 8002e5e:	3301      	adds	r3, #1
 8002e60:	4a02      	ldr	r2, [pc, #8]	@ (8002e6c <ProcessRS485+0x160>)
 8002e62:	6113      	str	r3, [r2, #16]
}
 8002e64:	bf00      	nop
 8002e66:	3750      	adds	r7, #80	@ 0x50
 8002e68:	46bd      	mov	sp, r7
 8002e6a:	bdb0      	pop	{r4, r5, r7, pc}
 8002e6c:	20000004 	.word	0x20000004
 8002e70:	08007fb8 	.word	0x08007fb8
 8002e74:	08007de0 	.word	0x08007de0
 8002e78:	08007de4 	.word	0x08007de4
 8002e7c:	08007dec 	.word	0x08007dec
 8002e80:	08008000 	.word	0x08008000
 8002e84:	08008024 	.word	0x08008024
 8002e88:	0800805c 	.word	0x0800805c
 8002e8c:	08008084 	.word	0x08008084

08002e90 <ProcessDoorControl>:

/**
  * @brief  处理门控制
  */
void ProcessDoorControl(void) {
 8002e90:	b580      	push	{r7, lr}
 8002e92:	b082      	sub	sp, #8
 8002e94:	af00      	add	r7, sp, #0
    /* 更新门控制器状态 */
    DoorControl_Update(&door_controller);
 8002e96:	4836      	ldr	r0, [pc, #216]	@ (8002f70 <ProcessDoorControl+0xe0>)
 8002e98:	f7fe ff96 	bl	8001dc8 <DoorControl_Update>
    
    /* 处理来自LocalBB的门控命令 */
    LocalBB_DoorCommand_t door_cmd = LocalBB_GetDoorCommand();
 8002e9c:	f7fe f8d0 	bl	8001040 <LocalBB_GetDoorCommand>
 8002ea0:	4603      	mov	r3, r0
 8002ea2:	71fb      	strb	r3, [r7, #7]
    if (door_cmd != DOOR_CMD_NONE) {
 8002ea4:	79fb      	ldrb	r3, [r7, #7]
 8002ea6:	2b00      	cmp	r3, #0
 8002ea8:	d02d      	beq.n	8002f06 <ProcessDoorControl+0x76>
        printf("\r\n========== DOOR COMMAND RECEIVED ==========\r\n");
 8002eaa:	4832      	ldr	r0, [pc, #200]	@ (8002f74 <ProcessDoorControl+0xe4>)
 8002eac:	f003 f870 	bl	8005f90 <puts>
        printf("[MAIN] Tick=%lu, Command=%s\r\n", 
 8002eb0:	f000 fc2e 	bl	8003710 <HAL_GetTick>
 8002eb4:	4601      	mov	r1, r0
 8002eb6:	79fb      	ldrb	r3, [r7, #7]
 8002eb8:	2b01      	cmp	r3, #1
 8002eba:	d101      	bne.n	8002ec0 <ProcessDoorControl+0x30>
 8002ebc:	4b2e      	ldr	r3, [pc, #184]	@ (8002f78 <ProcessDoorControl+0xe8>)
 8002ebe:	e000      	b.n	8002ec2 <ProcessDoorControl+0x32>
 8002ec0:	4b2e      	ldr	r3, [pc, #184]	@ (8002f7c <ProcessDoorControl+0xec>)
 8002ec2:	461a      	mov	r2, r3
 8002ec4:	482e      	ldr	r0, [pc, #184]	@ (8002f80 <ProcessDoorControl+0xf0>)
 8002ec6:	f002 fffb 	bl	8005ec0 <iprintf>
               HAL_GetTick(), door_cmd == DOOR_CMD_OPEN ? "OPEN" : "CLOSE");
        
        if (door_cmd == DOOR_CMD_OPEN) {
 8002eca:	79fb      	ldrb	r3, [r7, #7]
 8002ecc:	2b01      	cmp	r3, #1
 8002ece:	d109      	bne.n	8002ee4 <ProcessDoorControl+0x54>
            printf("[DOOR] Command: OPEN\r\n");
 8002ed0:	482c      	ldr	r0, [pc, #176]	@ (8002f84 <ProcessDoorControl+0xf4>)
 8002ed2:	f003 f85d 	bl	8005f90 <puts>
            DoorControl_Open(&door_controller);
 8002ed6:	4826      	ldr	r0, [pc, #152]	@ (8002f70 <ProcessDoorControl+0xe0>)
 8002ed8:	f7fe fe94 	bl	8001c04 <DoorControl_Open>
            system_state.door_is_open = true;
 8002edc:	4b2a      	ldr	r3, [pc, #168]	@ (8002f88 <ProcessDoorControl+0xf8>)
 8002ede:	2201      	movs	r2, #1
 8002ee0:	70da      	strb	r2, [r3, #3]
 8002ee2:	e00b      	b.n	8002efc <ProcessDoorControl+0x6c>
            // TIME BASED模式 - 不发送状态反馈
            // SendDoorStatus(DOOR_STATE_OPENING);
            // printf("[MAIN] Sent OPENING status to Master\r\n");
        } else if (door_cmd == DOOR_CMD_CLOSE) {
 8002ee4:	79fb      	ldrb	r3, [r7, #7]
 8002ee6:	2b02      	cmp	r3, #2
 8002ee8:	d108      	bne.n	8002efc <ProcessDoorControl+0x6c>
            printf("[DOOR] Command: CLOSE\r\n");
 8002eea:	4828      	ldr	r0, [pc, #160]	@ (8002f8c <ProcessDoorControl+0xfc>)
 8002eec:	f003 f850 	bl	8005f90 <puts>
            DoorControl_Close(&door_controller);
 8002ef0:	481f      	ldr	r0, [pc, #124]	@ (8002f70 <ProcessDoorControl+0xe0>)
 8002ef2:	f7fe fef5 	bl	8001ce0 <DoorControl_Close>
            system_state.door_is_open = false;
 8002ef6:	4b24      	ldr	r3, [pc, #144]	@ (8002f88 <ProcessDoorControl+0xf8>)
 8002ef8:	2200      	movs	r2, #0
 8002efa:	70da      	strb	r2, [r3, #3]
            // TIME BASED模式 - 不发送状态反馈
            // SendDoorStatus(DOOR_STATE_CLOSING);
            // printf("[MAIN] Sent CLOSING status to Master\r\n");
        }
        LocalBB_ClearDoorCommand();
 8002efc:	f7fe f8aa 	bl	8001054 <LocalBB_ClearDoorCommand>
        printf("============================================\r\n\r\n");
 8002f00:	4823      	ldr	r0, [pc, #140]	@ (8002f90 <ProcessDoorControl+0x100>)
 8002f02:	f003 f845 	bl	8005f90 <puts>
    }
    
    /* TIME BASED模式 - 不发送门状态反馈 */
    /* 但仍然更新本地状态用于调试 */
    DoorState_t door_state = DoorControl_GetState(&door_controller);
 8002f06:	481a      	ldr	r0, [pc, #104]	@ (8002f70 <ProcessDoorControl+0xe0>)
 8002f08:	f7ff f8e6 	bl	80020d8 <DoorControl_GetState>
 8002f0c:	4603      	mov	r3, r0
 8002f0e:	71bb      	strb	r3, [r7, #6]
    static DoorState_t last_door_state = DOOR_STATE_CLOSED;
    
    if (door_state != last_door_state) {
 8002f10:	4b20      	ldr	r3, [pc, #128]	@ (8002f94 <ProcessDoorControl+0x104>)
 8002f12:	781b      	ldrb	r3, [r3, #0]
 8002f14:	79ba      	ldrb	r2, [r7, #6]
 8002f16:	429a      	cmp	r2, r3
 8002f18:	d026      	beq.n	8002f68 <ProcessDoorControl+0xd8>
        last_door_state = door_state;
 8002f1a:	4a1e      	ldr	r2, [pc, #120]	@ (8002f94 <ProcessDoorControl+0x104>)
 8002f1c:	79bb      	ldrb	r3, [r7, #6]
 8002f1e:	7013      	strb	r3, [r2, #0]
        
        switch (door_state) {
 8002f20:	79bb      	ldrb	r3, [r7, #6]
 8002f22:	2b03      	cmp	r3, #3
 8002f24:	d820      	bhi.n	8002f68 <ProcessDoorControl+0xd8>
 8002f26:	a201      	add	r2, pc, #4	@ (adr r2, 8002f2c <ProcessDoorControl+0x9c>)
 8002f28:	f852 f023 	ldr.w	pc, [r2, r3, lsl #2]
 8002f2c:	08002f4b 	.word	0x08002f4b
 8002f30:	08002f59 	.word	0x08002f59
 8002f34:	08002f3d 	.word	0x08002f3d
 8002f38:	08002f61 	.word	0x08002f61
            case DOOR_STATE_OPEN:
                printf("[DOOR] Fully opened (local state)\r\n");
 8002f3c:	4816      	ldr	r0, [pc, #88]	@ (8002f98 <ProcessDoorControl+0x108>)
 8002f3e:	f003 f827 	bl	8005f90 <puts>
                system_state.door_is_open = true;
 8002f42:	4b11      	ldr	r3, [pc, #68]	@ (8002f88 <ProcessDoorControl+0xf8>)
 8002f44:	2201      	movs	r2, #1
 8002f46:	70da      	strb	r2, [r3, #3]
                // SendDoorStatus(DOOR_STATE_OPEN);
                break;
 8002f48:	e00e      	b.n	8002f68 <ProcessDoorControl+0xd8>
                
            case DOOR_STATE_CLOSED:
                printf("[DOOR] Fully closed (local state)\r\n");
 8002f4a:	4814      	ldr	r0, [pc, #80]	@ (8002f9c <ProcessDoorControl+0x10c>)
 8002f4c:	f003 f820 	bl	8005f90 <puts>
                system_state.door_is_open = false;
 8002f50:	4b0d      	ldr	r3, [pc, #52]	@ (8002f88 <ProcessDoorControl+0xf8>)
 8002f52:	2200      	movs	r2, #0
 8002f54:	70da      	strb	r2, [r3, #3]
                // SendDoorStatus(DOOR_STATE_CLOSED);
                break;
 8002f56:	e007      	b.n	8002f68 <ProcessDoorControl+0xd8>
                
            case DOOR_STATE_OPENING:
                printf("[DOOR] Opening (local state)\r\n");
 8002f58:	4811      	ldr	r0, [pc, #68]	@ (8002fa0 <ProcessDoorControl+0x110>)
 8002f5a:	f003 f819 	bl	8005f90 <puts>
                // SendDoorStatus(DOOR_STATE_OPENING);
                break;
 8002f5e:	e003      	b.n	8002f68 <ProcessDoorControl+0xd8>
            case DOOR_STATE_CLOSING:
                printf("[DOOR] Closing (local state)\r\n");
 8002f60:	4810      	ldr	r0, [pc, #64]	@ (8002fa4 <ProcessDoorControl+0x114>)
 8002f62:	f003 f815 	bl	8005f90 <puts>
                // SendDoorStatus(DOOR_STATE_CLOSING);
                break;
 8002f66:	bf00      	nop
        }
    }
}
 8002f68:	bf00      	nop
 8002f6a:	3708      	adds	r7, #8
 8002f6c:	46bd      	mov	sp, r7
 8002f6e:	bd80      	pop	{r7, pc}
 8002f70:	200006fc 	.word	0x200006fc
 8002f74:	080080bc 	.word	0x080080bc
 8002f78:	08007df0 	.word	0x08007df0
 8002f7c:	080080ec 	.word	0x080080ec
 8002f80:	080080f4 	.word	0x080080f4
 8002f84:	08008114 	.word	0x08008114
 8002f88:	20000004 	.word	0x20000004
 8002f8c:	0800812c 	.word	0x0800812c
 8002f90:	08008144 	.word	0x08008144
 8002f94:	2000070c 	.word	0x2000070c
 8002f98:	08008174 	.word	0x08008174
 8002f9c:	08008198 	.word	0x08008198
 8002fa0:	080081bc 	.word	0x080081bc
 8002fa4:	080081dc 	.word	0x080081dc

08002fa8 <SendPhotoSensorEvent>:

/**
  * @brief  发送光电传感器事件
  */
void SendPhotoSensorEvent(uint8_t floor) {
 8002fa8:	b580      	push	{r7, lr}
 8002faa:	b084      	sub	sp, #16
 8002fac:	af00      	add	r7, sp, #0
 8002fae:	4603      	mov	r3, r0
 8002fb0:	71fb      	strb	r3, [r7, #7]
    uint8_t tx_buffer[4];
    tx_buffer[0] = CMD_PHOTO_SENSOR;
 8002fb2:	2310      	movs	r3, #16
 8002fb4:	733b      	strb	r3, [r7, #12]
    tx_buffer[1] = floor;
 8002fb6:	79fb      	ldrb	r3, [r7, #7]
 8002fb8:	737b      	strb	r3, [r7, #13]
    tx_buffer[2] = 0;
 8002fba:	2300      	movs	r3, #0
 8002fbc:	73bb      	strb	r3, [r7, #14]
    tx_buffer[3] = 0;
 8002fbe:	2300      	movs	r3, #0
 8002fc0:	73fb      	strb	r3, [r7, #15]
    
    rs485_send_packet_dma(tx_buffer, 4);
 8002fc2:	f107 030c 	add.w	r3, r7, #12
 8002fc6:	2104      	movs	r1, #4
 8002fc8:	4618      	mov	r0, r3
 8002fca:	f7fe f899 	bl	8001100 <rs485_send_packet_dma>
    system_state.rs485_tx_count++;
 8002fce:	4b07      	ldr	r3, [pc, #28]	@ (8002fec <SendPhotoSensorEvent+0x44>)
 8002fd0:	691b      	ldr	r3, [r3, #16]
 8002fd2:	3301      	adds	r3, #1
 8002fd4:	4a05      	ldr	r2, [pc, #20]	@ (8002fec <SendPhotoSensorEvent+0x44>)
 8002fd6:	6113      	str	r3, [r2, #16]
    printf("[RS485 TX] Photo sensor floor %d\r\n", floor);
 8002fd8:	79fb      	ldrb	r3, [r7, #7]
 8002fda:	4619      	mov	r1, r3
 8002fdc:	4804      	ldr	r0, [pc, #16]	@ (8002ff0 <SendPhotoSensorEvent+0x48>)
 8002fde:	f002 ff6f 	bl	8005ec0 <iprintf>
}
 8002fe2:	bf00      	nop
 8002fe4:	3710      	adds	r7, #16
 8002fe6:	46bd      	mov	sp, r7
 8002fe8:	bd80      	pop	{r7, pc}
 8002fea:	bf00      	nop
 8002fec:	20000004 	.word	0x20000004
 8002ff0:	080081fc 	.word	0x080081fc

08002ff4 <PhotoSensor_TriggerCallback>:
/**
  * @brief  光电传感器触发回调
  * @note   在中断中被调用
  */
void PhotoSensor_TriggerCallback(void)
{
 8002ff4:	b480      	push	{r7}
 8002ff6:	af00      	add	r7, sp, #0
    sensor_triggered = true;
 8002ff8:	4b03      	ldr	r3, [pc, #12]	@ (8003008 <PhotoSensor_TriggerCallback+0x14>)
 8002ffa:	2201      	movs	r2, #1
 8002ffc:	701a      	strb	r2, [r3, #0]
}
 8002ffe:	bf00      	nop
 8003000:	46bd      	mov	sp, r7
 8003002:	bc80      	pop	{r7}
 8003004:	4770      	bx	lr
 8003006:	bf00      	nop
 8003008:	200006f8 	.word	0x200006f8

0800300c <HAL_GPIO_EXTI_Callback>:
  * @brief  HAL GPIO EXTI回调 - 统一处理所有GPIO中断
  * @param  GPIO_Pin: 触发中断的引脚
  * @note   这个函数覆盖HAL库的weak函数
  */
void HAL_GPIO_EXTI_Callback(uint16_t GPIO_Pin)
{
 800300c:	b580      	push	{r7, lr}
 800300e:	b082      	sub	sp, #8
 8003010:	af00      	add	r7, sp, #0
 8003012:	4603      	mov	r3, r0
 8003014:	80fb      	strh	r3, [r7, #6]
    if (GPIO_Pin == GPIO_PIN_11) {
 8003016:	88fb      	ldrh	r3, [r7, #6]
 8003018:	f5b3 6f00 	cmp.w	r3, #2048	@ 0x800
 800301c:	d102      	bne.n	8003024 <HAL_GPIO_EXTI_Callback+0x18>
        // PA11 中断 - 键盘按下
        Keyboard_IRQHandler();
 800301e:	f7fe fccd 	bl	80019bc <Keyboard_IRQHandler>
    }
    else if (GPIO_Pin == GPIO_PIN_5) {
        // PB5 中断 - 光电传感器
        PhotoSensor_IRQHandler();
    }
}
 8003022:	e004      	b.n	800302e <HAL_GPIO_EXTI_Callback+0x22>
    else if (GPIO_Pin == GPIO_PIN_5) {
 8003024:	88fb      	ldrh	r3, [r7, #6]
 8003026:	2b20      	cmp	r3, #32
 8003028:	d101      	bne.n	800302e <HAL_GPIO_EXTI_Callback+0x22>
        PhotoSensor_IRQHandler();
 800302a:	f7fe fd29 	bl	8001a80 <PhotoSensor_IRQHandler>
}
 800302e:	bf00      	nop
 8003030:	3708      	adds	r7, #8
 8003032:	46bd      	mov	sp, r7
 8003034:	bd80      	pop	{r7, pc}
	...

08003038 <HAL_UART_TxCpltCallback>:

/**
  * @brief  UART TX DMA完成回调
  */
void HAL_UART_TxCpltCallback(UART_HandleTypeDef *huart)
{
 8003038:	b580      	push	{r7, lr}
 800303a:	b082      	sub	sp, #8
 800303c:	af00      	add	r7, sp, #0
 800303e:	6078      	str	r0, [r7, #4]
    extern void rs485_tx_complete_callback(void);
    if (huart == &huart2) {
 8003040:	687b      	ldr	r3, [r7, #4]
 8003042:	4a04      	ldr	r2, [pc, #16]	@ (8003054 <HAL_UART_TxCpltCallback+0x1c>)
 8003044:	4293      	cmp	r3, r2
 8003046:	d101      	bne.n	800304c <HAL_UART_TxCpltCallback+0x14>
        rs485_tx_complete_callback();
 8003048:	f7fe f918 	bl	800127c <rs485_tx_complete_callback>
    }
}
 800304c:	bf00      	nop
 800304e:	3708      	adds	r7, #8
 8003050:	46bd      	mov	sp, r7
 8003052:	bd80      	pop	{r7, pc}
 8003054:	2000075c 	.word	0x2000075c

08003058 <HAL_UART_RxCpltCallback>:

/**
  * @brief  UART RX DMA完成回调  
  */
void HAL_UART_RxCpltCallback(UART_HandleTypeDef *huart)
{
 8003058:	b480      	push	{r7}
 800305a:	b083      	sub	sp, #12
 800305c:	af00      	add	r7, sp, #0
 800305e:	6078      	str	r0, [r7, #4]
    // DMA循环模式下不需要处理
}
 8003060:	bf00      	nop
 8003062:	370c      	adds	r7, #12
 8003064:	46bd      	mov	sp, r7
 8003066:	bc80      	pop	{r7}
 8003068:	4770      	bx	lr

0800306a <Error_Handler>:
/**
  * @brief  This function is executed in case of error occurrence.
  * @retval None
  */
void Error_Handler(void)
{
 800306a:	b480      	push	{r7}
 800306c:	af00      	add	r7, sp, #0
  __ASM volatile ("cpsid i" : : : "memory");
 800306e:	b672      	cpsid	i
}
 8003070:	bf00      	nop
  /* USER CODE BEGIN Error_Handler_Debug */
  /* User can add his own implementation to report the HAL error return state */
  __disable_irq();
  while (1)
 8003072:	bf00      	nop
 8003074:	e7fd      	b.n	8003072 <Error_Handler+0x8>
	...

08003078 <HAL_MspInit>:
/* USER CODE END 0 */
/**
  * Initializes the Global MSP.
  */
void HAL_MspInit(void)
{
 8003078:	b480      	push	{r7}
 800307a:	b085      	sub	sp, #20
 800307c:	af00      	add	r7, sp, #0

  /* USER CODE BEGIN MspInit 0 */

  /* USER CODE END MspInit 0 */

  __HAL_RCC_AFIO_CLK_ENABLE();
 800307e:	4b15      	ldr	r3, [pc, #84]	@ (80030d4 <HAL_MspInit+0x5c>)
 8003080:	699b      	ldr	r3, [r3, #24]
 8003082:	4a14      	ldr	r2, [pc, #80]	@ (80030d4 <HAL_MspInit+0x5c>)
 8003084:	f043 0301 	orr.w	r3, r3, #1
 8003088:	6193      	str	r3, [r2, #24]
 800308a:	4b12      	ldr	r3, [pc, #72]	@ (80030d4 <HAL_MspInit+0x5c>)
 800308c:	699b      	ldr	r3, [r3, #24]
 800308e:	f003 0301 	and.w	r3, r3, #1
 8003092:	60bb      	str	r3, [r7, #8]
 8003094:	68bb      	ldr	r3, [r7, #8]
  __HAL_RCC_PWR_CLK_ENABLE();
 8003096:	4b0f      	ldr	r3, [pc, #60]	@ (80030d4 <HAL_MspInit+0x5c>)
 8003098:	69db      	ldr	r3, [r3, #28]
 800309a:	4a0e      	ldr	r2, [pc, #56]	@ (80030d4 <HAL_MspInit+0x5c>)
 800309c:	f043 5380 	orr.w	r3, r3, #268435456	@ 0x10000000
 80030a0:	61d3      	str	r3, [r2, #28]
 80030a2:	4b0c      	ldr	r3, [pc, #48]	@ (80030d4 <HAL_MspInit+0x5c>)
 80030a4:	69db      	ldr	r3, [r3, #28]
 80030a6:	f003 5380 	and.w	r3, r3, #268435456	@ 0x10000000
 80030aa:	607b      	str	r3, [r7, #4]
 80030ac:	687b      	ldr	r3, [r7, #4]

  /* System interrupt init*/

  /** NOJTAG: JTAG-DP Disabled and SW-DP Enabled
  */
  __HAL_AFIO_REMAP_SWJ_NOJTAG();
 80030ae:	4b0a      	ldr	r3, [pc, #40]	@ (80030d8 <HAL_MspInit+0x60>)
 80030b0:	685b      	ldr	r3, [r3, #4]
 80030b2:	60fb      	str	r3, [r7, #12]
 80030b4:	68fb      	ldr	r3, [r7, #12]
 80030b6:	f023 63e0 	bic.w	r3, r3, #117440512	@ 0x7000000
 80030ba:	60fb      	str	r3, [r7, #12]
 80030bc:	68fb      	ldr	r3, [r7, #12]
 80030be:	f043 7300 	orr.w	r3, r3, #33554432	@ 0x2000000
 80030c2:	60fb      	str	r3, [r7, #12]
 80030c4:	4a04      	ldr	r2, [pc, #16]	@ (80030d8 <HAL_MspInit+0x60>)
 80030c6:	68fb      	ldr	r3, [r7, #12]
 80030c8:	6053      	str	r3, [r2, #4]

  /* USER CODE BEGIN MspInit 1 */

  /* USER CODE END MspInit 1 */
}
 80030ca:	bf00      	nop
 80030cc:	3714      	adds	r7, #20
 80030ce:	46bd      	mov	sp, r7
 80030d0:	bc80      	pop	{r7}
 80030d2:	4770      	bx	lr
 80030d4:	40021000 	.word	0x40021000
 80030d8:	40010000 	.word	0x40010000

080030dc <NMI_Handler>:
/******************************************************************************/
/**
  * @brief This function handles Non maskable interrupt.
  */
void NMI_Handler(void)
{
 80030dc:	b480      	push	{r7}
 80030de:	af00      	add	r7, sp, #0
  /* USER CODE BEGIN NonMaskableInt_IRQn 0 */

  /* USER CODE END NonMaskableInt_IRQn 0 */
  /* USER CODE BEGIN NonMaskableInt_IRQn 1 */
   while (1)
 80030e0:	bf00      	nop
 80030e2:	e7fd      	b.n	80030e0 <NMI_Handler+0x4>

080030e4 <HardFault_Handler>:

/**
  * @brief This function handles Hard fault interrupt.
  */
void HardFault_Handler(void)
{
 80030e4:	b480      	push	{r7}
 80030e6:	af00      	add	r7, sp, #0
  /* USER CODE BEGIN HardFault_IRQn 0 */

  /* USER CODE END HardFault_IRQn 0 */
  while (1)
 80030e8:	bf00      	nop
 80030ea:	e7fd      	b.n	80030e8 <HardFault_Handler+0x4>

080030ec <MemManage_Handler>:

/**
  * @brief This function handles Memory management fault.
  */
void MemManage_Handler(void)
{
 80030ec:	b480      	push	{r7}
 80030ee:	af00      	add	r7, sp, #0
  /* USER CODE BEGIN MemoryManagement_IRQn 0 */

  /* USER CODE END MemoryManagement_IRQn 0 */
  while (1)
 80030f0:	bf00      	nop
 80030f2:	e7fd      	b.n	80030f0 <MemManage_Handler+0x4>

080030f4 <BusFault_Handler>:

/**
  * @brief This function handles Prefetch fault, memory access fault.
  */
void BusFault_Handler(void)
{
 80030f4:	b480      	push	{r7}
 80030f6:	af00      	add	r7, sp, #0
  /* USER CODE BEGIN BusFault_IRQn 0 */

  /* USER CODE END BusFault_IRQn 0 */
  while (1)
 80030f8:	bf00      	nop
 80030fa:	e7fd      	b.n	80030f8 <BusFault_Handler+0x4>

080030fc <UsageFault_Handler>:

/**
  * @brief This function handles Undefined instruction or illegal state.
  */
void UsageFault_Handler(void)
{
 80030fc:	b480      	push	{r7}
 80030fe:	af00      	add	r7, sp, #0
  /* USER CODE BEGIN UsageFault_IRQn 0 */

  /* USER CODE END UsageFault_IRQn 0 */
  while (1)
 8003100:	bf00      	nop
 8003102:	e7fd      	b.n	8003100 <UsageFault_Handler+0x4>

08003104 <SVC_Handler>:

/**
  * @brief This function handles System service call via SWI instruction.
  */
void SVC_Handler(void)
{
 8003104:	b480      	push	{r7}
 8003106:	af00      	add	r7, sp, #0

  /* USER CODE END SVCall_IRQn 0 */
  /* USER CODE BEGIN SVCall_IRQn 1 */

  /* USER CODE END SVCall_IRQn 1 */
}
 8003108:	bf00      	nop
 800310a:	46bd      	mov	sp, r7
 800310c:	bc80      	pop	{r7}
 800310e:	4770      	bx	lr

08003110 <DebugMon_Handler>:

/**
  * @brief This function handles Debug monitor.
  */
void DebugMon_Handler(void)
{
 8003110:	b480      	push	{r7}
 8003112:	af00      	add	r7, sp, #0

  /* USER CODE END DebugMonitor_IRQn 0 */
  /* USER CODE BEGIN DebugMonitor_IRQn 1 */

  /* USER CODE END DebugMonitor_IRQn 1 */
}
 8003114:	bf00      	nop
 8003116:	46bd      	mov	sp, r7
 8003118:	bc80      	pop	{r7}
 800311a:	4770      	bx	lr

0800311c <PendSV_Handler>:

/**
  * @brief This function handles Pendable request for system service.
  */
void PendSV_Handler(void)
{
 800311c:	b480      	push	{r7}
 800311e:	af00      	add	r7, sp, #0

  /* USER CODE END PendSV_IRQn 0 */
  /* USER CODE BEGIN PendSV_IRQn 1 */

  /* USER CODE END PendSV_IRQn 1 */
}
 8003120:	bf00      	nop
 8003122:	46bd      	mov	sp, r7
 8003124:	bc80      	pop	{r7}
 8003126:	4770      	bx	lr

08003128 <SysTick_Handler>:

/**
  * @brief This function handles System tick timer.
  */
void SysTick_Handler(void)
{
 8003128:	b580      	push	{r7, lr}
 800312a:	af00      	add	r7, sp, #0
  /* USER CODE BEGIN SysTick_IRQn 0 */

  /* USER CODE END SysTick_IRQn 0 */
  HAL_IncTick();
 800312c:	f000 fade 	bl	80036ec <HAL_IncTick>
  /* USER CODE BEGIN SysTick_IRQn 1 */

  /* USER CODE END SysTick_IRQn 1 */
}
 8003130:	bf00      	nop
 8003132:	bd80      	pop	{r7, pc}

08003134 <DMA1_Channel6_IRQHandler>:

/**
  * @brief This function handles DMA1 channel6 global interrupt.
  */
void DMA1_Channel6_IRQHandler(void)
{
 8003134:	b580      	push	{r7, lr}
 8003136:	af00      	add	r7, sp, #0
  /* USER CODE BEGIN DMA1_Channel6_IRQn 0 */

  /* USER CODE END DMA1_Channel6_IRQn 0 */
  HAL_DMA_IRQHandler(&hdma_usart2_rx);
 8003138:	4802      	ldr	r0, [pc, #8]	@ (8003144 <DMA1_Channel6_IRQHandler+0x10>)
 800313a:	f000 fd93 	bl	8003c64 <HAL_DMA_IRQHandler>
  /* USER CODE BEGIN DMA1_Channel6_IRQn 1 */

  /* USER CODE END DMA1_Channel6_IRQn 1 */
}
 800313e:	bf00      	nop
 8003140:	bd80      	pop	{r7, pc}
 8003142:	bf00      	nop
 8003144:	200007ec 	.word	0x200007ec

08003148 <DMA1_Channel7_IRQHandler>:

/**
  * @brief This function handles DMA1 channel7 global interrupt.
  */
void DMA1_Channel7_IRQHandler(void)
{
 8003148:	b580      	push	{r7, lr}
 800314a:	af00      	add	r7, sp, #0
  /* USER CODE BEGIN DMA1_Channel7_IRQn 0 */

  /* USER CODE END DMA1_Channel7_IRQn 0 */
  HAL_DMA_IRQHandler(&hdma_usart2_tx);
 800314c:	4802      	ldr	r0, [pc, #8]	@ (8003158 <DMA1_Channel7_IRQHandler+0x10>)
 800314e:	f000 fd89 	bl	8003c64 <HAL_DMA_IRQHandler>
  /* USER CODE BEGIN DMA1_Channel7_IRQn 1 */

  /* USER CODE END DMA1_Channel7_IRQn 1 */
}
 8003152:	bf00      	nop
 8003154:	bd80      	pop	{r7, pc}
 8003156:	bf00      	nop
 8003158:	20000830 	.word	0x20000830

0800315c <USART2_IRQHandler>:

/**
  * @brief This function handles USART2 global interrupt.
  */
void USART2_IRQHandler(void)
{
 800315c:	b580      	push	{r7, lr}
 800315e:	af00      	add	r7, sp, #0
  /* USER CODE BEGIN USART2_IRQn 0 */
  /* Check for IDLE interrupt */
  if(__HAL_UART_GET_FLAG(&huart2, UART_FLAG_IDLE) != RESET)
 8003160:	4b06      	ldr	r3, [pc, #24]	@ (800317c <USART2_IRQHandler+0x20>)
 8003162:	681b      	ldr	r3, [r3, #0]
 8003164:	681b      	ldr	r3, [r3, #0]
 8003166:	f003 0310 	and.w	r3, r3, #16
 800316a:	2b10      	cmp	r3, #16
 800316c:	d101      	bne.n	8003172 <USART2_IRQHandler+0x16>
  {
    /* Call RS485 IDLE handler */
    extern void rs485_idle_interrupt_handler(void);
    rs485_idle_interrupt_handler();
 800316e:	f7fe f841 	bl	80011f4 <rs485_idle_interrupt_handler>
  }
  /* USER CODE END USART2_IRQn 0 */
  HAL_UART_IRQHandler(&huart2);
 8003172:	4802      	ldr	r0, [pc, #8]	@ (800317c <USART2_IRQHandler+0x20>)
 8003174:	f001 fe8e 	bl	8004e94 <HAL_UART_IRQHandler>
  /* USER CODE BEGIN USART2_IRQn 1 */

  /* USER CODE END USART2_IRQn 1 */
}
 8003178:	bf00      	nop
 800317a:	bd80      	pop	{r7, pc}
 800317c:	2000075c 	.word	0x2000075c

08003180 <EXTI9_5_IRQHandler>:

/**
  * @brief This function handles EXTI line[9:5] interrupts for PB5 (Photo Sensor).
  */
void EXTI9_5_IRQHandler(void)
{
 8003180:	b580      	push	{r7, lr}
 8003182:	af00      	add	r7, sp, #0
  /* USER CODE BEGIN EXTI9_5_IRQn 0 */
  
  /* USER CODE END EXTI9_5_IRQn 0 */
  HAL_GPIO_EXTI_IRQHandler(GPIO_PIN_5);
 8003184:	2020      	movs	r0, #32
 8003186:	f001 f855 	bl	8004234 <HAL_GPIO_EXTI_IRQHandler>
  /* USER CODE BEGIN EXTI9_5_IRQn 1 */

  /* USER CODE END EXTI9_5_IRQn 1 */
}
 800318a:	bf00      	nop
 800318c:	bd80      	pop	{r7, pc}

0800318e <EXTI15_10_IRQHandler>:

/**
  * @brief This function handles EXTI line[15:10] interrupts for PA11 (Keyboard).
  */
void EXTI15_10_IRQHandler(void)
{
 800318e:	b580      	push	{r7, lr}
 8003190:	af00      	add	r7, sp, #0
  /* USER CODE BEGIN EXTI15_10_IRQn 0 */
  
  /* USER CODE END EXTI15_10_IRQn 0 */
  HAL_GPIO_EXTI_IRQHandler(GPIO_PIN_11);
 8003192:	f44f 6000 	mov.w	r0, #2048	@ 0x800
 8003196:	f001 f84d 	bl	8004234 <HAL_GPIO_EXTI_IRQHandler>
  /* USER CODE BEGIN EXTI15_10_IRQn 1 */

  /* USER CODE END EXTI15_10_IRQn 1 */
}
 800319a:	bf00      	nop
 800319c:	bd80      	pop	{r7, pc}

0800319e <_read>:
  _kill(status, -1);
  while (1) {}    /* Make sure we hang here */
}

__attribute__((weak)) int _read(int file, char *ptr, int len)
{
 800319e:	b580      	push	{r7, lr}
 80031a0:	b086      	sub	sp, #24
 80031a2:	af00      	add	r7, sp, #0
 80031a4:	60f8      	str	r0, [r7, #12]
 80031a6:	60b9      	str	r1, [r7, #8]
 80031a8:	607a      	str	r2, [r7, #4]
  (void)file;
  int DataIdx;

  for (DataIdx = 0; DataIdx < len; DataIdx++)
 80031aa:	2300      	movs	r3, #0
 80031ac:	617b      	str	r3, [r7, #20]
 80031ae:	e00a      	b.n	80031c6 <_read+0x28>
  {
    *ptr++ = __io_getchar();
 80031b0:	f3af 8000 	nop.w
 80031b4:	4601      	mov	r1, r0
 80031b6:	68bb      	ldr	r3, [r7, #8]
 80031b8:	1c5a      	adds	r2, r3, #1
 80031ba:	60ba      	str	r2, [r7, #8]
 80031bc:	b2ca      	uxtb	r2, r1
 80031be:	701a      	strb	r2, [r3, #0]
  for (DataIdx = 0; DataIdx < len; DataIdx++)
 80031c0:	697b      	ldr	r3, [r7, #20]
 80031c2:	3301      	adds	r3, #1
 80031c4:	617b      	str	r3, [r7, #20]
 80031c6:	697a      	ldr	r2, [r7, #20]
 80031c8:	687b      	ldr	r3, [r7, #4]
 80031ca:	429a      	cmp	r2, r3
 80031cc:	dbf0      	blt.n	80031b0 <_read+0x12>
  }

  return len;
 80031ce:	687b      	ldr	r3, [r7, #4]
}
 80031d0:	4618      	mov	r0, r3
 80031d2:	3718      	adds	r7, #24
 80031d4:	46bd      	mov	sp, r7
 80031d6:	bd80      	pop	{r7, pc}

080031d8 <_close>:
  }
  return len;
}

int _close(int file)
{
 80031d8:	b480      	push	{r7}
 80031da:	b083      	sub	sp, #12
 80031dc:	af00      	add	r7, sp, #0
 80031de:	6078      	str	r0, [r7, #4]
  (void)file;
  return -1;
 80031e0:	f04f 33ff 	mov.w	r3, #4294967295
}
 80031e4:	4618      	mov	r0, r3
 80031e6:	370c      	adds	r7, #12
 80031e8:	46bd      	mov	sp, r7
 80031ea:	bc80      	pop	{r7}
 80031ec:	4770      	bx	lr

080031ee <_fstat>:


int _fstat(int file, struct stat *st)
{
 80031ee:	b480      	push	{r7}
 80031f0:	b083      	sub	sp, #12
 80031f2:	af00      	add	r7, sp, #0
 80031f4:	6078      	str	r0, [r7, #4]
 80031f6:	6039      	str	r1, [r7, #0]
  (void)file;
  st->st_mode = S_IFCHR;
 80031f8:	683b      	ldr	r3, [r7, #0]
 80031fa:	f44f 5200 	mov.w	r2, #8192	@ 0x2000
 80031fe:	605a      	str	r2, [r3, #4]
  return 0;
 8003200:	2300      	movs	r3, #0
}
 8003202:	4618      	mov	r0, r3
 8003204:	370c      	adds	r7, #12
 8003206:	46bd      	mov	sp, r7
 8003208:	bc80      	pop	{r7}
 800320a:	4770      	bx	lr

0800320c <_isatty>:

int _isatty(int file)
{
 800320c:	b480      	push	{r7}
 800320e:	b083      	sub	sp, #12
 8003210:	af00      	add	r7, sp, #0
 8003212:	6078      	str	r0, [r7, #4]
  (void)file;
  return 1;
 8003214:	2301      	movs	r3, #1
}
 8003216:	4618      	mov	r0, r3
 8003218:	370c      	adds	r7, #12
 800321a:	46bd      	mov	sp, r7
 800321c:	bc80      	pop	{r7}
 800321e:	4770      	bx	lr

08003220 <_lseek>:

int _lseek(int file, int ptr, int dir)
{
 8003220:	b480      	push	{r7}
 8003222:	b085      	sub	sp, #20
 8003224:	af00      	add	r7, sp, #0
 8003226:	60f8      	str	r0, [r7, #12]
 8003228:	60b9      	str	r1, [r7, #8]
 800322a:	607a      	str	r2, [r7, #4]
  (void)file;
  (void)ptr;
  (void)dir;
  return 0;
 800322c:	2300      	movs	r3, #0
}
 800322e:	4618      	mov	r0, r3
 8003230:	3714      	adds	r7, #20
 8003232:	46bd      	mov	sp, r7
 8003234:	bc80      	pop	{r7}
 8003236:	4770      	bx	lr

08003238 <_sbrk>:
 *
 * @param incr Memory size
 * @return Pointer to allocated memory
 */
void *_sbrk(ptrdiff_t incr)
{
 8003238:	b580      	push	{r7, lr}
 800323a:	b086      	sub	sp, #24
 800323c:	af00      	add	r7, sp, #0
 800323e:	6078      	str	r0, [r7, #4]
  extern uint8_t _end; /* Symbol defined in the linker script */
  extern uint8_t _estack; /* Symbol defined in the linker script */
  extern uint32_t _Min_Stack_Size; /* Symbol defined in the linker script */
  const uint32_t stack_limit = (uint32_t)&_estack - (uint32_t)&_Min_Stack_Size;
 8003240:	4a14      	ldr	r2, [pc, #80]	@ (8003294 <_sbrk+0x5c>)
 8003242:	4b15      	ldr	r3, [pc, #84]	@ (8003298 <_sbrk+0x60>)
 8003244:	1ad3      	subs	r3, r2, r3
 8003246:	617b      	str	r3, [r7, #20]
  const uint8_t *max_heap = (uint8_t *)stack_limit;
 8003248:	697b      	ldr	r3, [r7, #20]
 800324a:	613b      	str	r3, [r7, #16]
  uint8_t *prev_heap_end;

  /* Initialize heap end at first call */
  if (NULL == __sbrk_heap_end)
 800324c:	4b13      	ldr	r3, [pc, #76]	@ (800329c <_sbrk+0x64>)
 800324e:	681b      	ldr	r3, [r3, #0]
 8003250:	2b00      	cmp	r3, #0
 8003252:	d102      	bne.n	800325a <_sbrk+0x22>
  {
    __sbrk_heap_end = &_end;
 8003254:	4b11      	ldr	r3, [pc, #68]	@ (800329c <_sbrk+0x64>)
 8003256:	4a12      	ldr	r2, [pc, #72]	@ (80032a0 <_sbrk+0x68>)
 8003258:	601a      	str	r2, [r3, #0]
  }

  /* Protect heap from growing into the reserved MSP stack */
  if (__sbrk_heap_end + incr > max_heap)
 800325a:	4b10      	ldr	r3, [pc, #64]	@ (800329c <_sbrk+0x64>)
 800325c:	681a      	ldr	r2, [r3, #0]
 800325e:	687b      	ldr	r3, [r7, #4]
 8003260:	4413      	add	r3, r2
 8003262:	693a      	ldr	r2, [r7, #16]
 8003264:	429a      	cmp	r2, r3
 8003266:	d207      	bcs.n	8003278 <_sbrk+0x40>
  {
    errno = ENOMEM;
 8003268:	f002 ffe2 	bl	8006230 <__errno>
 800326c:	4603      	mov	r3, r0
 800326e:	220c      	movs	r2, #12
 8003270:	601a      	str	r2, [r3, #0]
    return (void *)-1;
 8003272:	f04f 33ff 	mov.w	r3, #4294967295
 8003276:	e009      	b.n	800328c <_sbrk+0x54>
  }

  prev_heap_end = __sbrk_heap_end;
 8003278:	4b08      	ldr	r3, [pc, #32]	@ (800329c <_sbrk+0x64>)
 800327a:	681b      	ldr	r3, [r3, #0]
 800327c:	60fb      	str	r3, [r7, #12]
  __sbrk_heap_end += incr;
 800327e:	4b07      	ldr	r3, [pc, #28]	@ (800329c <_sbrk+0x64>)
 8003280:	681a      	ldr	r2, [r3, #0]
 8003282:	687b      	ldr	r3, [r7, #4]
 8003284:	4413      	add	r3, r2
 8003286:	4a05      	ldr	r2, [pc, #20]	@ (800329c <_sbrk+0x64>)
 8003288:	6013      	str	r3, [r2, #0]

  return (void *)prev_heap_end;
 800328a:	68fb      	ldr	r3, [r7, #12]
}
 800328c:	4618      	mov	r0, r3
 800328e:	3718      	adds	r7, #24
 8003290:	46bd      	mov	sp, r7
 8003292:	bd80      	pop	{r7, pc}
 8003294:	20005000 	.word	0x20005000
 8003298:	00000400 	.word	0x00000400
 800329c:	20000710 	.word	0x20000710
 80032a0:	200009c8 	.word	0x200009c8

080032a4 <SystemInit>:
  * @note   This function should be used only after reset.
  * @param  None
  * @retval None
  */
void SystemInit (void)
{
 80032a4:	b480      	push	{r7}
 80032a6:	af00      	add	r7, sp, #0

  /* Configure the Vector Table location -------------------------------------*/
#if defined(USER_VECT_TAB_ADDRESS)
  SCB->VTOR = VECT_TAB_BASE_ADDRESS | VECT_TAB_OFFSET; /* Vector Table Relocation in Internal SRAM. */
#endif /* USER_VECT_TAB_ADDRESS */
}
 80032a8:	bf00      	nop
 80032aa:	46bd      	mov	sp, r7
 80032ac:	bc80      	pop	{r7}
 80032ae:	4770      	bx	lr

080032b0 <MX_USART1_UART_Init>:
DMA_HandleTypeDef hdma_usart2_tx;

/* USART1 init function */

void MX_USART1_UART_Init(void)
{
 80032b0:	b580      	push	{r7, lr}
 80032b2:	af00      	add	r7, sp, #0
  /* USER CODE END USART1_Init 0 */

  /* USER CODE BEGIN USART1_Init 1 */

  /* USER CODE END USART1_Init 1 */
  huart1.Instance = USART1;
 80032b4:	4b11      	ldr	r3, [pc, #68]	@ (80032fc <MX_USART1_UART_Init+0x4c>)
 80032b6:	4a12      	ldr	r2, [pc, #72]	@ (8003300 <MX_USART1_UART_Init+0x50>)
 80032b8:	601a      	str	r2, [r3, #0]
  huart1.Init.BaudRate = 115200;
 80032ba:	4b10      	ldr	r3, [pc, #64]	@ (80032fc <MX_USART1_UART_Init+0x4c>)
 80032bc:	f44f 32e1 	mov.w	r2, #115200	@ 0x1c200
 80032c0:	605a      	str	r2, [r3, #4]
  huart1.Init.WordLength = UART_WORDLENGTH_8B;
 80032c2:	4b0e      	ldr	r3, [pc, #56]	@ (80032fc <MX_USART1_UART_Init+0x4c>)
 80032c4:	2200      	movs	r2, #0
 80032c6:	609a      	str	r2, [r3, #8]
  huart1.Init.StopBits = UART_STOPBITS_1;
 80032c8:	4b0c      	ldr	r3, [pc, #48]	@ (80032fc <MX_USART1_UART_Init+0x4c>)
 80032ca:	2200      	movs	r2, #0
 80032cc:	60da      	str	r2, [r3, #12]
  huart1.Init.Parity = UART_PARITY_NONE;
 80032ce:	4b0b      	ldr	r3, [pc, #44]	@ (80032fc <MX_USART1_UART_Init+0x4c>)
 80032d0:	2200      	movs	r2, #0
 80032d2:	611a      	str	r2, [r3, #16]
  huart1.Init.Mode = UART_MODE_TX_RX;
 80032d4:	4b09      	ldr	r3, [pc, #36]	@ (80032fc <MX_USART1_UART_Init+0x4c>)
 80032d6:	220c      	movs	r2, #12
 80032d8:	615a      	str	r2, [r3, #20]
  huart1.Init.HwFlowCtl = UART_HWCONTROL_NONE;
 80032da:	4b08      	ldr	r3, [pc, #32]	@ (80032fc <MX_USART1_UART_Init+0x4c>)
 80032dc:	2200      	movs	r2, #0
 80032de:	619a      	str	r2, [r3, #24]
  huart1.Init.OverSampling = UART_OVERSAMPLING_16;
 80032e0:	4b06      	ldr	r3, [pc, #24]	@ (80032fc <MX_USART1_UART_Init+0x4c>)
 80032e2:	2200      	movs	r2, #0
 80032e4:	61da      	str	r2, [r3, #28]
  if (HAL_UART_Init(&huart1) != HAL_OK)
 80032e6:	4805      	ldr	r0, [pc, #20]	@ (80032fc <MX_USART1_UART_Init+0x4c>)
 80032e8:	f001 fbcc 	bl	8004a84 <HAL_UART_Init>
 80032ec:	4603      	mov	r3, r0
 80032ee:	2b00      	cmp	r3, #0
 80032f0:	d001      	beq.n	80032f6 <MX_USART1_UART_Init+0x46>
  {
    Error_Handler();
 80032f2:	f7ff feba 	bl	800306a <Error_Handler>
  }
  /* USER CODE BEGIN USART1_Init 2 */

  /* USER CODE END USART1_Init 2 */

}
 80032f6:	bf00      	nop
 80032f8:	bd80      	pop	{r7, pc}
 80032fa:	bf00      	nop
 80032fc:	20000714 	.word	0x20000714
 8003300:	40013800 	.word	0x40013800

08003304 <MX_USART2_UART_Init>:
/* USART2 init function */

void MX_USART2_UART_Init(void)
{
 8003304:	b580      	push	{r7, lr}
 8003306:	af00      	add	r7, sp, #0
  /* USER CODE END USART2_Init 0 */

  /* USER CODE BEGIN USART2_Init 1 */

  /* USER CODE END USART2_Init 1 */
  huart2.Instance = USART2;
 8003308:	4b11      	ldr	r3, [pc, #68]	@ (8003350 <MX_USART2_UART_Init+0x4c>)
 800330a:	4a12      	ldr	r2, [pc, #72]	@ (8003354 <MX_USART2_UART_Init+0x50>)
 800330c:	601a      	str	r2, [r3, #0]
  huart2.Init.BaudRate = 115200;
 800330e:	4b10      	ldr	r3, [pc, #64]	@ (8003350 <MX_USART2_UART_Init+0x4c>)
 8003310:	f44f 32e1 	mov.w	r2, #115200	@ 0x1c200
 8003314:	605a      	str	r2, [r3, #4]
  huart2.Init.WordLength = UART_WORDLENGTH_8B;
 8003316:	4b0e      	ldr	r3, [pc, #56]	@ (8003350 <MX_USART2_UART_Init+0x4c>)
 8003318:	2200      	movs	r2, #0
 800331a:	609a      	str	r2, [r3, #8]
  huart2.Init.StopBits = UART_STOPBITS_1;
 800331c:	4b0c      	ldr	r3, [pc, #48]	@ (8003350 <MX_USART2_UART_Init+0x4c>)
 800331e:	2200      	movs	r2, #0
 8003320:	60da      	str	r2, [r3, #12]
  huart2.Init.Parity = UART_PARITY_NONE;
 8003322:	4b0b      	ldr	r3, [pc, #44]	@ (8003350 <MX_USART2_UART_Init+0x4c>)
 8003324:	2200      	movs	r2, #0
 8003326:	611a      	str	r2, [r3, #16]
  huart2.Init.Mode = UART_MODE_TX_RX;
 8003328:	4b09      	ldr	r3, [pc, #36]	@ (8003350 <MX_USART2_UART_Init+0x4c>)
 800332a:	220c      	movs	r2, #12
 800332c:	615a      	str	r2, [r3, #20]
  huart2.Init.HwFlowCtl = UART_HWCONTROL_NONE;
 800332e:	4b08      	ldr	r3, [pc, #32]	@ (8003350 <MX_USART2_UART_Init+0x4c>)
 8003330:	2200      	movs	r2, #0
 8003332:	619a      	str	r2, [r3, #24]
  huart2.Init.OverSampling = UART_OVERSAMPLING_16;
 8003334:	4b06      	ldr	r3, [pc, #24]	@ (8003350 <MX_USART2_UART_Init+0x4c>)
 8003336:	2200      	movs	r2, #0
 8003338:	61da      	str	r2, [r3, #28]
  if (HAL_UART_Init(&huart2) != HAL_OK)
 800333a:	4805      	ldr	r0, [pc, #20]	@ (8003350 <MX_USART2_UART_Init+0x4c>)
 800333c:	f001 fba2 	bl	8004a84 <HAL_UART_Init>
 8003340:	4603      	mov	r3, r0
 8003342:	2b00      	cmp	r3, #0
 8003344:	d001      	beq.n	800334a <MX_USART2_UART_Init+0x46>
  {
    Error_Handler();
 8003346:	f7ff fe90 	bl	800306a <Error_Handler>
  }
  /* USER CODE BEGIN USART2_Init 2 */

  /* USER CODE END USART2_Init 2 */

}
 800334a:	bf00      	nop
 800334c:	bd80      	pop	{r7, pc}
 800334e:	bf00      	nop
 8003350:	2000075c 	.word	0x2000075c
 8003354:	40004400 	.word	0x40004400

08003358 <MX_USART3_UART_Init>:
/* USART3 init function */

void MX_USART3_UART_Init(void)
{
 8003358:	b580      	push	{r7, lr}
 800335a:	af00      	add	r7, sp, #0
  /* USER CODE END USART3_Init 0 */

  /* USER CODE BEGIN USART3_Init 1 */

  /* USER CODE END USART3_Init 1 */
  huart3.Instance = USART3;
 800335c:	4b10      	ldr	r3, [pc, #64]	@ (80033a0 <MX_USART3_UART_Init+0x48>)
 800335e:	4a11      	ldr	r2, [pc, #68]	@ (80033a4 <MX_USART3_UART_Init+0x4c>)
 8003360:	601a      	str	r2, [r3, #0]
  huart3.Init.BaudRate = 1000000;
 8003362:	4b0f      	ldr	r3, [pc, #60]	@ (80033a0 <MX_USART3_UART_Init+0x48>)
 8003364:	4a10      	ldr	r2, [pc, #64]	@ (80033a8 <MX_USART3_UART_Init+0x50>)
 8003366:	605a      	str	r2, [r3, #4]
  huart3.Init.WordLength = UART_WORDLENGTH_8B;
 8003368:	4b0d      	ldr	r3, [pc, #52]	@ (80033a0 <MX_USART3_UART_Init+0x48>)
 800336a:	2200      	movs	r2, #0
 800336c:	609a      	str	r2, [r3, #8]
  huart3.Init.StopBits = UART_STOPBITS_1;
 800336e:	4b0c      	ldr	r3, [pc, #48]	@ (80033a0 <MX_USART3_UART_Init+0x48>)
 8003370:	2200      	movs	r2, #0
 8003372:	60da      	str	r2, [r3, #12]
  huart3.Init.Parity = UART_PARITY_NONE;
 8003374:	4b0a      	ldr	r3, [pc, #40]	@ (80033a0 <MX_USART3_UART_Init+0x48>)
 8003376:	2200      	movs	r2, #0
 8003378:	611a      	str	r2, [r3, #16]
  huart3.Init.Mode = UART_MODE_TX_RX;
 800337a:	4b09      	ldr	r3, [pc, #36]	@ (80033a0 <MX_USART3_UART_Init+0x48>)
 800337c:	220c      	movs	r2, #12
 800337e:	615a      	str	r2, [r3, #20]
  huart3.Init.HwFlowCtl = UART_HWCONTROL_NONE;
 8003380:	4b07      	ldr	r3, [pc, #28]	@ (80033a0 <MX_USART3_UART_Init+0x48>)
 8003382:	2200      	movs	r2, #0
 8003384:	619a      	str	r2, [r3, #24]
  huart3.Init.OverSampling = UART_OVERSAMPLING_16;
 8003386:	4b06      	ldr	r3, [pc, #24]	@ (80033a0 <MX_USART3_UART_Init+0x48>)
 8003388:	2200      	movs	r2, #0
 800338a:	61da      	str	r2, [r3, #28]
  if (HAL_UART_Init(&huart3) != HAL_OK)
 800338c:	4804      	ldr	r0, [pc, #16]	@ (80033a0 <MX_USART3_UART_Init+0x48>)
 800338e:	f001 fb79 	bl	8004a84 <HAL_UART_Init>
 8003392:	4603      	mov	r3, r0
 8003394:	2b00      	cmp	r3, #0
 8003396:	d001      	beq.n	800339c <MX_USART3_UART_Init+0x44>
  {
    Error_Handler();
 8003398:	f7ff fe67 	bl	800306a <Error_Handler>
  }
  /* USER CODE BEGIN USART3_Init 2 */

  /* USER CODE END USART3_Init 2 */

}
 800339c:	bf00      	nop
 800339e:	bd80      	pop	{r7, pc}
 80033a0:	200007a4 	.word	0x200007a4
 80033a4:	40004800 	.word	0x40004800
 80033a8:	000f4240 	.word	0x000f4240

080033ac <HAL_UART_MspInit>:

void HAL_UART_MspInit(UART_HandleTypeDef* uartHandle)
{
 80033ac:	b580      	push	{r7, lr}
 80033ae:	b08c      	sub	sp, #48	@ 0x30
 80033b0:	af00      	add	r7, sp, #0
 80033b2:	6078      	str	r0, [r7, #4]

  GPIO_InitTypeDef GPIO_InitStruct = {0};
 80033b4:	f107 0320 	add.w	r3, r7, #32
 80033b8:	2200      	movs	r2, #0
 80033ba:	601a      	str	r2, [r3, #0]
 80033bc:	605a      	str	r2, [r3, #4]
 80033be:	609a      	str	r2, [r3, #8]
 80033c0:	60da      	str	r2, [r3, #12]
  if(uartHandle->Instance==USART1)
 80033c2:	687b      	ldr	r3, [r7, #4]
 80033c4:	681b      	ldr	r3, [r3, #0]
 80033c6:	4a7e      	ldr	r2, [pc, #504]	@ (80035c0 <HAL_UART_MspInit+0x214>)
 80033c8:	4293      	cmp	r3, r2
 80033ca:	d132      	bne.n	8003432 <HAL_UART_MspInit+0x86>
  {
  /* USER CODE BEGIN USART1_MspInit 0 */

  /* USER CODE END USART1_MspInit 0 */
    /* USART1 clock enable */
    __HAL_RCC_USART1_CLK_ENABLE();
 80033cc:	4b7d      	ldr	r3, [pc, #500]	@ (80035c4 <HAL_UART_MspInit+0x218>)
 80033ce:	699b      	ldr	r3, [r3, #24]
 80033d0:	4a7c      	ldr	r2, [pc, #496]	@ (80035c4 <HAL_UART_MspInit+0x218>)
 80033d2:	f443 4380 	orr.w	r3, r3, #16384	@ 0x4000
 80033d6:	6193      	str	r3, [r2, #24]
 80033d8:	4b7a      	ldr	r3, [pc, #488]	@ (80035c4 <HAL_UART_MspInit+0x218>)
 80033da:	699b      	ldr	r3, [r3, #24]
 80033dc:	f403 4380 	and.w	r3, r3, #16384	@ 0x4000
 80033e0:	61fb      	str	r3, [r7, #28]
 80033e2:	69fb      	ldr	r3, [r7, #28]

    __HAL_RCC_GPIOA_CLK_ENABLE();
 80033e4:	4b77      	ldr	r3, [pc, #476]	@ (80035c4 <HAL_UART_MspInit+0x218>)
 80033e6:	699b      	ldr	r3, [r3, #24]
 80033e8:	4a76      	ldr	r2, [pc, #472]	@ (80035c4 <HAL_UART_MspInit+0x218>)
 80033ea:	f043 0304 	orr.w	r3, r3, #4
 80033ee:	6193      	str	r3, [r2, #24]
 80033f0:	4b74      	ldr	r3, [pc, #464]	@ (80035c4 <HAL_UART_MspInit+0x218>)
 80033f2:	699b      	ldr	r3, [r3, #24]
 80033f4:	f003 0304 	and.w	r3, r3, #4
 80033f8:	61bb      	str	r3, [r7, #24]
 80033fa:	69bb      	ldr	r3, [r7, #24]
    /**USART1 GPIO Configuration
    PA9     ------> USART1_TX
    PA10     ------> USART1_RX
    */
    GPIO_InitStruct.Pin = GPIO_PIN_9;
 80033fc:	f44f 7300 	mov.w	r3, #512	@ 0x200
 8003400:	623b      	str	r3, [r7, #32]
    GPIO_InitStruct.Mode = GPIO_MODE_AF_PP;
 8003402:	2302      	movs	r3, #2
 8003404:	627b      	str	r3, [r7, #36]	@ 0x24
    GPIO_InitStruct.Speed = GPIO_SPEED_FREQ_HIGH;
 8003406:	2303      	movs	r3, #3
 8003408:	62fb      	str	r3, [r7, #44]	@ 0x2c
    HAL_GPIO_Init(GPIOA, &GPIO_InitStruct);
 800340a:	f107 0320 	add.w	r3, r7, #32
 800340e:	4619      	mov	r1, r3
 8003410:	486d      	ldr	r0, [pc, #436]	@ (80035c8 <HAL_UART_MspInit+0x21c>)
 8003412:	f000 fd5b 	bl	8003ecc <HAL_GPIO_Init>

    GPIO_InitStruct.Pin = GPIO_PIN_10;
 8003416:	f44f 6380 	mov.w	r3, #1024	@ 0x400
 800341a:	623b      	str	r3, [r7, #32]
    GPIO_InitStruct.Mode = GPIO_MODE_INPUT;
 800341c:	2300      	movs	r3, #0
 800341e:	627b      	str	r3, [r7, #36]	@ 0x24
    GPIO_InitStruct.Pull = GPIO_NOPULL;
 8003420:	2300      	movs	r3, #0
 8003422:	62bb      	str	r3, [r7, #40]	@ 0x28
    HAL_GPIO_Init(GPIOA, &GPIO_InitStruct);
 8003424:	f107 0320 	add.w	r3, r7, #32
 8003428:	4619      	mov	r1, r3
 800342a:	4867      	ldr	r0, [pc, #412]	@ (80035c8 <HAL_UART_MspInit+0x21c>)
 800342c:	f000 fd4e 	bl	8003ecc <HAL_GPIO_Init>

  /* USER CODE BEGIN USART3_MspInit 1 */

  /* USER CODE END USART3_MspInit 1 */
  }
}
 8003430:	e0c1      	b.n	80035b6 <HAL_UART_MspInit+0x20a>
  else if(uartHandle->Instance==USART2)
 8003432:	687b      	ldr	r3, [r7, #4]
 8003434:	681b      	ldr	r3, [r3, #0]
 8003436:	4a65      	ldr	r2, [pc, #404]	@ (80035cc <HAL_UART_MspInit+0x220>)
 8003438:	4293      	cmp	r3, r2
 800343a:	f040 8085 	bne.w	8003548 <HAL_UART_MspInit+0x19c>
    __HAL_RCC_USART2_CLK_ENABLE();
 800343e:	4b61      	ldr	r3, [pc, #388]	@ (80035c4 <HAL_UART_MspInit+0x218>)
 8003440:	69db      	ldr	r3, [r3, #28]
 8003442:	4a60      	ldr	r2, [pc, #384]	@ (80035c4 <HAL_UART_MspInit+0x218>)
 8003444:	f443 3300 	orr.w	r3, r3, #131072	@ 0x20000
 8003448:	61d3      	str	r3, [r2, #28]
 800344a:	4b5e      	ldr	r3, [pc, #376]	@ (80035c4 <HAL_UART_MspInit+0x218>)
 800344c:	69db      	ldr	r3, [r3, #28]
 800344e:	f403 3300 	and.w	r3, r3, #131072	@ 0x20000
 8003452:	617b      	str	r3, [r7, #20]
 8003454:	697b      	ldr	r3, [r7, #20]
    __HAL_RCC_GPIOA_CLK_ENABLE();
 8003456:	4b5b      	ldr	r3, [pc, #364]	@ (80035c4 <HAL_UART_MspInit+0x218>)
 8003458:	699b      	ldr	r3, [r3, #24]
 800345a:	4a5a      	ldr	r2, [pc, #360]	@ (80035c4 <HAL_UART_MspInit+0x218>)
 800345c:	f043 0304 	orr.w	r3, r3, #4
 8003460:	6193      	str	r3, [r2, #24]
 8003462:	4b58      	ldr	r3, [pc, #352]	@ (80035c4 <HAL_UART_MspInit+0x218>)
 8003464:	699b      	ldr	r3, [r3, #24]
 8003466:	f003 0304 	and.w	r3, r3, #4
 800346a:	613b      	str	r3, [r7, #16]
 800346c:	693b      	ldr	r3, [r7, #16]
    GPIO_InitStruct.Pin = GPIO_PIN_2;
 800346e:	2304      	movs	r3, #4
 8003470:	623b      	str	r3, [r7, #32]
    GPIO_InitStruct.Mode = GPIO_MODE_AF_PP;
 8003472:	2302      	movs	r3, #2
 8003474:	627b      	str	r3, [r7, #36]	@ 0x24
    GPIO_InitStruct.Speed = GPIO_SPEED_FREQ_HIGH;
 8003476:	2303      	movs	r3, #3
 8003478:	62fb      	str	r3, [r7, #44]	@ 0x2c
    HAL_GPIO_Init(GPIOA, &GPIO_InitStruct);
 800347a:	f107 0320 	add.w	r3, r7, #32
 800347e:	4619      	mov	r1, r3
 8003480:	4851      	ldr	r0, [pc, #324]	@ (80035c8 <HAL_UART_MspInit+0x21c>)
 8003482:	f000 fd23 	bl	8003ecc <HAL_GPIO_Init>
    GPIO_InitStruct.Pin = GPIO_PIN_3;
 8003486:	2308      	movs	r3, #8
 8003488:	623b      	str	r3, [r7, #32]
    GPIO_InitStruct.Mode = GPIO_MODE_INPUT;
 800348a:	2300      	movs	r3, #0
 800348c:	627b      	str	r3, [r7, #36]	@ 0x24
    GPIO_InitStruct.Pull = GPIO_NOPULL;
 800348e:	2300      	movs	r3, #0
 8003490:	62bb      	str	r3, [r7, #40]	@ 0x28
    HAL_GPIO_Init(GPIOA, &GPIO_InitStruct);
 8003492:	f107 0320 	add.w	r3, r7, #32
 8003496:	4619      	mov	r1, r3
 8003498:	484b      	ldr	r0, [pc, #300]	@ (80035c8 <HAL_UART_MspInit+0x21c>)
 800349a:	f000 fd17 	bl	8003ecc <HAL_GPIO_Init>
    hdma_usart2_rx.Instance = DMA1_Channel6;
 800349e:	4b4c      	ldr	r3, [pc, #304]	@ (80035d0 <HAL_UART_MspInit+0x224>)
 80034a0:	4a4c      	ldr	r2, [pc, #304]	@ (80035d4 <HAL_UART_MspInit+0x228>)
 80034a2:	601a      	str	r2, [r3, #0]
    hdma_usart2_rx.Init.Direction = DMA_PERIPH_TO_MEMORY;
 80034a4:	4b4a      	ldr	r3, [pc, #296]	@ (80035d0 <HAL_UART_MspInit+0x224>)
 80034a6:	2200      	movs	r2, #0
 80034a8:	605a      	str	r2, [r3, #4]
    hdma_usart2_rx.Init.PeriphInc = DMA_PINC_DISABLE;
 80034aa:	4b49      	ldr	r3, [pc, #292]	@ (80035d0 <HAL_UART_MspInit+0x224>)
 80034ac:	2200      	movs	r2, #0
 80034ae:	609a      	str	r2, [r3, #8]
    hdma_usart2_rx.Init.MemInc = DMA_MINC_ENABLE;
 80034b0:	4b47      	ldr	r3, [pc, #284]	@ (80035d0 <HAL_UART_MspInit+0x224>)
 80034b2:	2280      	movs	r2, #128	@ 0x80
 80034b4:	60da      	str	r2, [r3, #12]
    hdma_usart2_rx.Init.PeriphDataAlignment = DMA_PDATAALIGN_BYTE;
 80034b6:	4b46      	ldr	r3, [pc, #280]	@ (80035d0 <HAL_UART_MspInit+0x224>)
 80034b8:	2200      	movs	r2, #0
 80034ba:	611a      	str	r2, [r3, #16]
    hdma_usart2_rx.Init.MemDataAlignment = DMA_MDATAALIGN_BYTE;
 80034bc:	4b44      	ldr	r3, [pc, #272]	@ (80035d0 <HAL_UART_MspInit+0x224>)
 80034be:	2200      	movs	r2, #0
 80034c0:	615a      	str	r2, [r3, #20]
    hdma_usart2_rx.Init.Mode = DMA_CIRCULAR;
 80034c2:	4b43      	ldr	r3, [pc, #268]	@ (80035d0 <HAL_UART_MspInit+0x224>)
 80034c4:	2220      	movs	r2, #32
 80034c6:	619a      	str	r2, [r3, #24]
    hdma_usart2_rx.Init.Priority = DMA_PRIORITY_LOW;
 80034c8:	4b41      	ldr	r3, [pc, #260]	@ (80035d0 <HAL_UART_MspInit+0x224>)
 80034ca:	2200      	movs	r2, #0
 80034cc:	61da      	str	r2, [r3, #28]
    if (HAL_DMA_Init(&hdma_usart2_rx) != HAL_OK)
 80034ce:	4840      	ldr	r0, [pc, #256]	@ (80035d0 <HAL_UART_MspInit+0x224>)
 80034d0:	f000 fa5a 	bl	8003988 <HAL_DMA_Init>
 80034d4:	4603      	mov	r3, r0
 80034d6:	2b00      	cmp	r3, #0
 80034d8:	d001      	beq.n	80034de <HAL_UART_MspInit+0x132>
      Error_Handler();
 80034da:	f7ff fdc6 	bl	800306a <Error_Handler>
    __HAL_LINKDMA(uartHandle,hdmarx,hdma_usart2_rx);
 80034de:	687b      	ldr	r3, [r7, #4]
 80034e0:	4a3b      	ldr	r2, [pc, #236]	@ (80035d0 <HAL_UART_MspInit+0x224>)
 80034e2:	63da      	str	r2, [r3, #60]	@ 0x3c
 80034e4:	4a3a      	ldr	r2, [pc, #232]	@ (80035d0 <HAL_UART_MspInit+0x224>)
 80034e6:	687b      	ldr	r3, [r7, #4]
 80034e8:	6253      	str	r3, [r2, #36]	@ 0x24
    hdma_usart2_tx.Instance = DMA1_Channel7;
 80034ea:	4b3b      	ldr	r3, [pc, #236]	@ (80035d8 <HAL_UART_MspInit+0x22c>)
 80034ec:	4a3b      	ldr	r2, [pc, #236]	@ (80035dc <HAL_UART_MspInit+0x230>)
 80034ee:	601a      	str	r2, [r3, #0]
    hdma_usart2_tx.Init.Direction = DMA_MEMORY_TO_PERIPH;
 80034f0:	4b39      	ldr	r3, [pc, #228]	@ (80035d8 <HAL_UART_MspInit+0x22c>)
 80034f2:	2210      	movs	r2, #16
 80034f4:	605a      	str	r2, [r3, #4]
    hdma_usart2_tx.Init.PeriphInc = DMA_PINC_DISABLE;
 80034f6:	4b38      	ldr	r3, [pc, #224]	@ (80035d8 <HAL_UART_MspInit+0x22c>)
 80034f8:	2200      	movs	r2, #0
 80034fa:	609a      	str	r2, [r3, #8]
    hdma_usart2_tx.Init.MemInc = DMA_MINC_ENABLE;
 80034fc:	4b36      	ldr	r3, [pc, #216]	@ (80035d8 <HAL_UART_MspInit+0x22c>)
 80034fe:	2280      	movs	r2, #128	@ 0x80
 8003500:	60da      	str	r2, [r3, #12]
    hdma_usart2_tx.Init.PeriphDataAlignment = DMA_PDATAALIGN_BYTE;
 8003502:	4b35      	ldr	r3, [pc, #212]	@ (80035d8 <HAL_UART_MspInit+0x22c>)
 8003504:	2200      	movs	r2, #0
 8003506:	611a      	str	r2, [r3, #16]
    hdma_usart2_tx.Init.MemDataAlignment = DMA_MDATAALIGN_BYTE;
 8003508:	4b33      	ldr	r3, [pc, #204]	@ (80035d8 <HAL_UART_MspInit+0x22c>)
 800350a:	2200      	movs	r2, #0
 800350c:	615a      	str	r2, [r3, #20]
    hdma_usart2_tx.Init.Mode = DMA_NORMAL;
 800350e:	4b32      	ldr	r3, [pc, #200]	@ (80035d8 <HAL_UART_MspInit+0x22c>)
 8003510:	2200      	movs	r2, #0
 8003512:	619a      	str	r2, [r3, #24]
    hdma_usart2_tx.Init.Priority = DMA_PRIORITY_LOW;
 8003514:	4b30      	ldr	r3, [pc, #192]	@ (80035d8 <HAL_UART_MspInit+0x22c>)
 8003516:	2200      	movs	r2, #0
 8003518:	61da      	str	r2, [r3, #28]
    if (HAL_DMA_Init(&hdma_usart2_tx) != HAL_OK)
 800351a:	482f      	ldr	r0, [pc, #188]	@ (80035d8 <HAL_UART_MspInit+0x22c>)
 800351c:	f000 fa34 	bl	8003988 <HAL_DMA_Init>
 8003520:	4603      	mov	r3, r0
 8003522:	2b00      	cmp	r3, #0
 8003524:	d001      	beq.n	800352a <HAL_UART_MspInit+0x17e>
      Error_Handler();
 8003526:	f7ff fda0 	bl	800306a <Error_Handler>
    __HAL_LINKDMA(uartHandle,hdmatx,hdma_usart2_tx);
 800352a:	687b      	ldr	r3, [r7, #4]
 800352c:	4a2a      	ldr	r2, [pc, #168]	@ (80035d8 <HAL_UART_MspInit+0x22c>)
 800352e:	639a      	str	r2, [r3, #56]	@ 0x38
 8003530:	4a29      	ldr	r2, [pc, #164]	@ (80035d8 <HAL_UART_MspInit+0x22c>)
 8003532:	687b      	ldr	r3, [r7, #4]
 8003534:	6253      	str	r3, [r2, #36]	@ 0x24
    HAL_NVIC_SetPriority(USART2_IRQn, 0, 0);
 8003536:	2200      	movs	r2, #0
 8003538:	2100      	movs	r1, #0
 800353a:	2026      	movs	r0, #38	@ 0x26
 800353c:	f000 f9ed 	bl	800391a <HAL_NVIC_SetPriority>
    HAL_NVIC_EnableIRQ(USART2_IRQn);
 8003540:	2026      	movs	r0, #38	@ 0x26
 8003542:	f000 fa06 	bl	8003952 <HAL_NVIC_EnableIRQ>
}
 8003546:	e036      	b.n	80035b6 <HAL_UART_MspInit+0x20a>
  else if(uartHandle->Instance==USART3)
 8003548:	687b      	ldr	r3, [r7, #4]
 800354a:	681b      	ldr	r3, [r3, #0]
 800354c:	4a24      	ldr	r2, [pc, #144]	@ (80035e0 <HAL_UART_MspInit+0x234>)
 800354e:	4293      	cmp	r3, r2
 8003550:	d131      	bne.n	80035b6 <HAL_UART_MspInit+0x20a>
    __HAL_RCC_USART3_CLK_ENABLE();
 8003552:	4b1c      	ldr	r3, [pc, #112]	@ (80035c4 <HAL_UART_MspInit+0x218>)
 8003554:	69db      	ldr	r3, [r3, #28]
 8003556:	4a1b      	ldr	r2, [pc, #108]	@ (80035c4 <HAL_UART_MspInit+0x218>)
 8003558:	f443 2380 	orr.w	r3, r3, #262144	@ 0x40000
 800355c:	61d3      	str	r3, [r2, #28]
 800355e:	4b19      	ldr	r3, [pc, #100]	@ (80035c4 <HAL_UART_MspInit+0x218>)
 8003560:	69db      	ldr	r3, [r3, #28]
 8003562:	f403 2380 	and.w	r3, r3, #262144	@ 0x40000
 8003566:	60fb      	str	r3, [r7, #12]
 8003568:	68fb      	ldr	r3, [r7, #12]
    __HAL_RCC_GPIOB_CLK_ENABLE();
 800356a:	4b16      	ldr	r3, [pc, #88]	@ (80035c4 <HAL_UART_MspInit+0x218>)
 800356c:	699b      	ldr	r3, [r3, #24]
 800356e:	4a15      	ldr	r2, [pc, #84]	@ (80035c4 <HAL_UART_MspInit+0x218>)
 8003570:	f043 0308 	orr.w	r3, r3, #8
 8003574:	6193      	str	r3, [r2, #24]
 8003576:	4b13      	ldr	r3, [pc, #76]	@ (80035c4 <HAL_UART_MspInit+0x218>)
 8003578:	699b      	ldr	r3, [r3, #24]
 800357a:	f003 0308 	and.w	r3, r3, #8
 800357e:	60bb      	str	r3, [r7, #8]
 8003580:	68bb      	ldr	r3, [r7, #8]
    GPIO_InitStruct.Pin = GPIO_PIN_10;
 8003582:	f44f 6380 	mov.w	r3, #1024	@ 0x400
 8003586:	623b      	str	r3, [r7, #32]
    GPIO_InitStruct.Mode = GPIO_MODE_AF_PP;
 8003588:	2302      	movs	r3, #2
 800358a:	627b      	str	r3, [r7, #36]	@ 0x24
    GPIO_InitStruct.Speed = GPIO_SPEED_FREQ_HIGH;
 800358c:	2303      	movs	r3, #3
 800358e:	62fb      	str	r3, [r7, #44]	@ 0x2c
    HAL_GPIO_Init(GPIOB, &GPIO_InitStruct);
 8003590:	f107 0320 	add.w	r3, r7, #32
 8003594:	4619      	mov	r1, r3
 8003596:	4813      	ldr	r0, [pc, #76]	@ (80035e4 <HAL_UART_MspInit+0x238>)
 8003598:	f000 fc98 	bl	8003ecc <HAL_GPIO_Init>
    GPIO_InitStruct.Pin = GPIO_PIN_11;
 800359c:	f44f 6300 	mov.w	r3, #2048	@ 0x800
 80035a0:	623b      	str	r3, [r7, #32]
    GPIO_InitStruct.Mode = GPIO_MODE_INPUT;
 80035a2:	2300      	movs	r3, #0
 80035a4:	627b      	str	r3, [r7, #36]	@ 0x24
    GPIO_InitStruct.Pull = GPIO_NOPULL;
 80035a6:	2300      	movs	r3, #0
 80035a8:	62bb      	str	r3, [r7, #40]	@ 0x28
    HAL_GPIO_Init(GPIOB, &GPIO_InitStruct);
 80035aa:	f107 0320 	add.w	r3, r7, #32
 80035ae:	4619      	mov	r1, r3
 80035b0:	480c      	ldr	r0, [pc, #48]	@ (80035e4 <HAL_UART_MspInit+0x238>)
 80035b2:	f000 fc8b 	bl	8003ecc <HAL_GPIO_Init>
}
 80035b6:	bf00      	nop
 80035b8:	3730      	adds	r7, #48	@ 0x30
 80035ba:	46bd      	mov	sp, r7
 80035bc:	bd80      	pop	{r7, pc}
 80035be:	bf00      	nop
 80035c0:	40013800 	.word	0x40013800
 80035c4:	40021000 	.word	0x40021000
 80035c8:	40010800 	.word	0x40010800
 80035cc:	40004400 	.word	0x40004400
 80035d0:	200007ec 	.word	0x200007ec
 80035d4:	4002006c 	.word	0x4002006c
 80035d8:	20000830 	.word	0x20000830
 80035dc:	40020080 	.word	0x40020080
 80035e0:	40004800 	.word	0x40004800
 80035e4:	40010c00 	.word	0x40010c00

080035e8 <_write>:

/* USER CODE BEGIN 1 */

/* Redirect printf to USART1 for debug output */
int _write(int file, char *ptr, int len)
{
 80035e8:	b580      	push	{r7, lr}
 80035ea:	b084      	sub	sp, #16
 80035ec:	af00      	add	r7, sp, #0
 80035ee:	60f8      	str	r0, [r7, #12]
 80035f0:	60b9      	str	r1, [r7, #8]
 80035f2:	607a      	str	r2, [r7, #4]
  HAL_UART_Transmit(&huart1, (uint8_t*)ptr, len, HAL_MAX_DELAY);
 80035f4:	687b      	ldr	r3, [r7, #4]
 80035f6:	b29a      	uxth	r2, r3
 80035f8:	f04f 33ff 	mov.w	r3, #4294967295
 80035fc:	68b9      	ldr	r1, [r7, #8]
 80035fe:	4804      	ldr	r0, [pc, #16]	@ (8003610 <_write+0x28>)
 8003600:	f001 fa90 	bl	8004b24 <HAL_UART_Transmit>
  return len;
 8003604:	687b      	ldr	r3, [r7, #4]
}
 8003606:	4618      	mov	r0, r3
 8003608:	3710      	adds	r7, #16
 800360a:	46bd      	mov	sp, r7
 800360c:	bd80      	pop	{r7, pc}
 800360e:	bf00      	nop
 8003610:	20000714 	.word	0x20000714

08003614 <Reset_Handler>:
  .weak Reset_Handler
  .type Reset_Handler, %function
Reset_Handler:

/* Call the clock system initialization function.*/
    bl  SystemInit
 8003614:	f7ff fe46 	bl	80032a4 <SystemInit>

/* Copy the data segment initializers from flash to SRAM */
  ldr r0, =_sdata
 8003618:	480b      	ldr	r0, [pc, #44]	@ (8003648 <LoopFillZerobss+0xe>)
  ldr r1, =_edata
 800361a:	490c      	ldr	r1, [pc, #48]	@ (800364c <LoopFillZerobss+0x12>)
  ldr r2, =_sidata
 800361c:	4a0c      	ldr	r2, [pc, #48]	@ (8003650 <LoopFillZerobss+0x16>)
  movs r3, #0
 800361e:	2300      	movs	r3, #0
  b LoopCopyDataInit
 8003620:	e002      	b.n	8003628 <LoopCopyDataInit>

08003622 <CopyDataInit>:

CopyDataInit:
  ldr r4, [r2, r3]
 8003622:	58d4      	ldr	r4, [r2, r3]
  str r4, [r0, r3]
 8003624:	50c4      	str	r4, [r0, r3]
  adds r3, r3, #4
 8003626:	3304      	adds	r3, #4

08003628 <LoopCopyDataInit>:

LoopCopyDataInit:
  adds r4, r0, r3
 8003628:	18c4      	adds	r4, r0, r3
  cmp r4, r1
 800362a:	428c      	cmp	r4, r1
  bcc CopyDataInit
 800362c:	d3f9      	bcc.n	8003622 <CopyDataInit>
  
/* Zero fill the bss segment. */
  ldr r2, =_sbss
 800362e:	4a09      	ldr	r2, [pc, #36]	@ (8003654 <LoopFillZerobss+0x1a>)
  ldr r4, =_ebss
 8003630:	4c09      	ldr	r4, [pc, #36]	@ (8003658 <LoopFillZerobss+0x1e>)
  movs r3, #0
 8003632:	2300      	movs	r3, #0
  b LoopFillZerobss
 8003634:	e001      	b.n	800363a <LoopFillZerobss>

08003636 <FillZerobss>:

FillZerobss:
  str  r3, [r2]
 8003636:	6013      	str	r3, [r2, #0]
  adds r2, r2, #4
 8003638:	3204      	adds	r2, #4

0800363a <LoopFillZerobss>:

LoopFillZerobss:
  cmp r2, r4
 800363a:	42a2      	cmp	r2, r4
  bcc FillZerobss
 800363c:	d3fb      	bcc.n	8003636 <FillZerobss>

/* Call static constructors */
    bl __libc_init_array
 800363e:	f002 fdfd 	bl	800623c <__libc_init_array>
/* Call the application's entry point.*/
  bl main
 8003642:	f7ff f887 	bl	8002754 <main>
  bx lr
 8003646:	4770      	bx	lr
  ldr r0, =_sdata
 8003648:	20000000 	.word	0x20000000
  ldr r1, =_edata
 800364c:	2000008c 	.word	0x2000008c
  ldr r2, =_sidata
 8003650:	080083ac 	.word	0x080083ac
  ldr r2, =_sbss
 8003654:	2000008c 	.word	0x2000008c
  ldr r4, =_ebss
 8003658:	200009c4 	.word	0x200009c4

0800365c <ADC1_2_IRQHandler>:
 * @retval : None
*/
    .section .text.Default_Handler,"ax",%progbits
Default_Handler:
Infinite_Loop:
  b Infinite_Loop
 800365c:	e7fe      	b.n	800365c <ADC1_2_IRQHandler>
	...

08003660 <HAL_Init>:
  *         need to ensure that the SysTick time base is always set to 1 millisecond
  *         to have correct HAL operation.
  * @retval HAL status
  */
HAL_StatusTypeDef HAL_Init(void)
{
 8003660:	b580      	push	{r7, lr}
 8003662:	af00      	add	r7, sp, #0
    defined(STM32F102x6) || defined(STM32F102xB) || \
    defined(STM32F103x6) || defined(STM32F103xB) || defined(STM32F103xE) || defined(STM32F103xG) || \
    defined(STM32F105xC) || defined(STM32F107xC)

  /* Prefetch buffer is not available on value line devices */
  __HAL_FLASH_PREFETCH_BUFFER_ENABLE();
 8003664:	4b08      	ldr	r3, [pc, #32]	@ (8003688 <HAL_Init+0x28>)
 8003666:	681b      	ldr	r3, [r3, #0]
 8003668:	4a07      	ldr	r2, [pc, #28]	@ (8003688 <HAL_Init+0x28>)
 800366a:	f043 0310 	orr.w	r3, r3, #16
 800366e:	6013      	str	r3, [r2, #0]
#endif
#endif /* PREFETCH_ENABLE */

  /* Set Interrupt Group Priority */
  HAL_NVIC_SetPriorityGrouping(NVIC_PRIORITYGROUP_4);
 8003670:	2003      	movs	r0, #3
 8003672:	f000 f947 	bl	8003904 <HAL_NVIC_SetPriorityGrouping>

  /* Use systick as time base source and configure 1ms tick (default clock after Reset is HSI) */
  HAL_InitTick(TICK_INT_PRIORITY);
 8003676:	200f      	movs	r0, #15
 8003678:	f000 f808 	bl	800368c <HAL_InitTick>

  /* Init the low level hardware */
  HAL_MspInit();
 800367c:	f7ff fcfc 	bl	8003078 <HAL_MspInit>

  /* Return function status */
  return HAL_OK;
 8003680:	2300      	movs	r3, #0
}
 8003682:	4618      	mov	r0, r3
 8003684:	bd80      	pop	{r7, pc}
 8003686:	bf00      	nop
 8003688:	40022000 	.word	0x40022000

0800368c <HAL_InitTick>:
  *       implementation  in user file.
  * @param TickPriority Tick interrupt priority.
  * @retval HAL status
  */
__weak HAL_StatusTypeDef HAL_InitTick(uint32_t TickPriority)
{
 800368c:	b580      	push	{r7, lr}
 800368e:	b082      	sub	sp, #8
 8003690:	af00      	add	r7, sp, #0
 8003692:	6078      	str	r0, [r7, #4]
  /* Configure the SysTick to have interrupt in 1ms time basis*/
  if (HAL_SYSTICK_Config(SystemCoreClock / (1000U / uwTickFreq)) > 0U)
 8003694:	4b12      	ldr	r3, [pc, #72]	@ (80036e0 <HAL_InitTick+0x54>)
 8003696:	681a      	ldr	r2, [r3, #0]
 8003698:	4b12      	ldr	r3, [pc, #72]	@ (80036e4 <HAL_InitTick+0x58>)
 800369a:	781b      	ldrb	r3, [r3, #0]
 800369c:	4619      	mov	r1, r3
 800369e:	f44f 737a 	mov.w	r3, #1000	@ 0x3e8
 80036a2:	fbb3 f3f1 	udiv	r3, r3, r1
 80036a6:	fbb2 f3f3 	udiv	r3, r2, r3
 80036aa:	4618      	mov	r0, r3
 80036ac:	f000 f95f 	bl	800396e <HAL_SYSTICK_Config>
 80036b0:	4603      	mov	r3, r0
 80036b2:	2b00      	cmp	r3, #0
 80036b4:	d001      	beq.n	80036ba <HAL_InitTick+0x2e>
  {
    return HAL_ERROR;
 80036b6:	2301      	movs	r3, #1
 80036b8:	e00e      	b.n	80036d8 <HAL_InitTick+0x4c>
  }

  /* Configure the SysTick IRQ priority */
  if (TickPriority < (1UL << __NVIC_PRIO_BITS))
 80036ba:	687b      	ldr	r3, [r7, #4]
 80036bc:	2b0f      	cmp	r3, #15
 80036be:	d80a      	bhi.n	80036d6 <HAL_InitTick+0x4a>
  {
    HAL_NVIC_SetPriority(SysTick_IRQn, TickPriority, 0U);
 80036c0:	2200      	movs	r2, #0
 80036c2:	6879      	ldr	r1, [r7, #4]
 80036c4:	f04f 30ff 	mov.w	r0, #4294967295
 80036c8:	f000 f927 	bl	800391a <HAL_NVIC_SetPriority>
    uwTickPrio = TickPriority;
 80036cc:	4a06      	ldr	r2, [pc, #24]	@ (80036e8 <HAL_InitTick+0x5c>)
 80036ce:	687b      	ldr	r3, [r7, #4]
 80036d0:	6013      	str	r3, [r2, #0]
  {
    return HAL_ERROR;
  }

  /* Return function status */
  return HAL_OK;
 80036d2:	2300      	movs	r3, #0
 80036d4:	e000      	b.n	80036d8 <HAL_InitTick+0x4c>
    return HAL_ERROR;
 80036d6:	2301      	movs	r3, #1
}
 80036d8:	4618      	mov	r0, r3
 80036da:	3708      	adds	r7, #8
 80036dc:	46bd      	mov	sp, r7
 80036de:	bd80      	pop	{r7, pc}
 80036e0:	20000024 	.word	0x20000024
 80036e4:	2000002c 	.word	0x2000002c
 80036e8:	20000028 	.word	0x20000028

080036ec <HAL_IncTick>:
  * @note This function is declared as __weak to be overwritten in case of other
  *      implementations in user file.
  * @retval None
  */
__weak void HAL_IncTick(void)
{
 80036ec:	b480      	push	{r7}
 80036ee:	af00      	add	r7, sp, #0
  uwTick += uwTickFreq;
 80036f0:	4b05      	ldr	r3, [pc, #20]	@ (8003708 <HAL_IncTick+0x1c>)
 80036f2:	781b      	ldrb	r3, [r3, #0]
 80036f4:	461a      	mov	r2, r3
 80036f6:	4b05      	ldr	r3, [pc, #20]	@ (800370c <HAL_IncTick+0x20>)
 80036f8:	681b      	ldr	r3, [r3, #0]
 80036fa:	4413      	add	r3, r2
 80036fc:	4a03      	ldr	r2, [pc, #12]	@ (800370c <HAL_IncTick+0x20>)
 80036fe:	6013      	str	r3, [r2, #0]
}
 8003700:	bf00      	nop
 8003702:	46bd      	mov	sp, r7
 8003704:	bc80      	pop	{r7}
 8003706:	4770      	bx	lr
 8003708:	2000002c 	.word	0x2000002c
 800370c:	20000874 	.word	0x20000874

08003710 <HAL_GetTick>:
  * @note  This function is declared as __weak to be overwritten in case of other
  *       implementations in user file.
  * @retval tick value
  */
__weak uint32_t HAL_GetTick(void)
{
 8003710:	b480      	push	{r7}
 8003712:	af00      	add	r7, sp, #0
  return uwTick;
 8003714:	4b02      	ldr	r3, [pc, #8]	@ (8003720 <HAL_GetTick+0x10>)
 8003716:	681b      	ldr	r3, [r3, #0]
}
 8003718:	4618      	mov	r0, r3
 800371a:	46bd      	mov	sp, r7
 800371c:	bc80      	pop	{r7}
 800371e:	4770      	bx	lr
 8003720:	20000874 	.word	0x20000874

08003724 <HAL_Delay>:
  *       implementations in user file.
  * @param Delay specifies the delay time length, in milliseconds.
  * @retval None
  */
__weak void HAL_Delay(uint32_t Delay)
{
 8003724:	b580      	push	{r7, lr}
 8003726:	b084      	sub	sp, #16
 8003728:	af00      	add	r7, sp, #0
 800372a:	6078      	str	r0, [r7, #4]
  uint32_t tickstart = HAL_GetTick();
 800372c:	f7ff fff0 	bl	8003710 <HAL_GetTick>
 8003730:	60b8      	str	r0, [r7, #8]
  uint32_t wait = Delay;
 8003732:	687b      	ldr	r3, [r7, #4]
 8003734:	60fb      	str	r3, [r7, #12]

  /* Add a freq to guarantee minimum wait */
  if (wait < HAL_MAX_DELAY)
 8003736:	68fb      	ldr	r3, [r7, #12]
 8003738:	f1b3 3fff 	cmp.w	r3, #4294967295
 800373c:	d005      	beq.n	800374a <HAL_Delay+0x26>
  {
    wait += (uint32_t)(uwTickFreq);
 800373e:	4b0a      	ldr	r3, [pc, #40]	@ (8003768 <HAL_Delay+0x44>)
 8003740:	781b      	ldrb	r3, [r3, #0]
 8003742:	461a      	mov	r2, r3
 8003744:	68fb      	ldr	r3, [r7, #12]
 8003746:	4413      	add	r3, r2
 8003748:	60fb      	str	r3, [r7, #12]
  }

  while ((HAL_GetTick() - tickstart) < wait)
 800374a:	bf00      	nop
 800374c:	f7ff ffe0 	bl	8003710 <HAL_GetTick>
 8003750:	4602      	mov	r2, r0
 8003752:	68bb      	ldr	r3, [r7, #8]
 8003754:	1ad3      	subs	r3, r2, r3
 8003756:	68fa      	ldr	r2, [r7, #12]
 8003758:	429a      	cmp	r2, r3
 800375a:	d8f7      	bhi.n	800374c <HAL_Delay+0x28>
  {
  }
}
 800375c:	bf00      	nop
 800375e:	bf00      	nop
 8003760:	3710      	adds	r7, #16
 8003762:	46bd      	mov	sp, r7
 8003764:	bd80      	pop	{r7, pc}
 8003766:	bf00      	nop
 8003768:	2000002c 	.word	0x2000002c

0800376c <__NVIC_SetPriorityGrouping>:
           In case of a conflict between priority grouping and available
           priority bits (__NVIC_PRIO_BITS), the smallest possible priority group is set.
  \param [in]      PriorityGroup  Priority grouping field.
 */
__STATIC_INLINE void __NVIC_SetPriorityGrouping(uint32_t PriorityGroup)
{
 800376c:	b480      	push	{r7}
 800376e:	b085      	sub	sp, #20
 8003770:	af00      	add	r7, sp, #0
 8003772:	6078      	str	r0, [r7, #4]
  uint32_t reg_value;
  uint32_t PriorityGroupTmp = (PriorityGroup & (uint32_t)0x07UL);             /* only values 0..7 are used          */
 8003774:	687b      	ldr	r3, [r7, #4]
 8003776:	f003 0307 	and.w	r3, r3, #7
 800377a:	60fb      	str	r3, [r7, #12]

  reg_value  =  SCB->AIRCR;                                                   /* read old register configuration    */
 800377c:	4b0c      	ldr	r3, [pc, #48]	@ (80037b0 <__NVIC_SetPriorityGrouping+0x44>)
 800377e:	68db      	ldr	r3, [r3, #12]
 8003780:	60bb      	str	r3, [r7, #8]
  reg_value &= ~((uint32_t)(SCB_AIRCR_VECTKEY_Msk | SCB_AIRCR_PRIGROUP_Msk)); /* clear bits to change               */
 8003782:	68ba      	ldr	r2, [r7, #8]
 8003784:	f64f 03ff 	movw	r3, #63743	@ 0xf8ff
 8003788:	4013      	ands	r3, r2
 800378a:	60bb      	str	r3, [r7, #8]
  reg_value  =  (reg_value                                   |
                ((uint32_t)0x5FAUL << SCB_AIRCR_VECTKEY_Pos) |
                (PriorityGroupTmp << SCB_AIRCR_PRIGROUP_Pos) );               /* Insert write key and priority group */
 800378c:	68fb      	ldr	r3, [r7, #12]
 800378e:	021a      	lsls	r2, r3, #8
                ((uint32_t)0x5FAUL << SCB_AIRCR_VECTKEY_Pos) |
 8003790:	68bb      	ldr	r3, [r7, #8]
 8003792:	4313      	orrs	r3, r2
  reg_value  =  (reg_value                                   |
 8003794:	f043 63bf 	orr.w	r3, r3, #100139008	@ 0x5f80000
 8003798:	f443 3300 	orr.w	r3, r3, #131072	@ 0x20000
 800379c:	60bb      	str	r3, [r7, #8]
  SCB->AIRCR =  reg_value;
 800379e:	4a04      	ldr	r2, [pc, #16]	@ (80037b0 <__NVIC_SetPriorityGrouping+0x44>)
 80037a0:	68bb      	ldr	r3, [r7, #8]
 80037a2:	60d3      	str	r3, [r2, #12]
}
 80037a4:	bf00      	nop
 80037a6:	3714      	adds	r7, #20
 80037a8:	46bd      	mov	sp, r7
 80037aa:	bc80      	pop	{r7}
 80037ac:	4770      	bx	lr
 80037ae:	bf00      	nop
 80037b0:	e000ed00 	.word	0xe000ed00

080037b4 <__NVIC_GetPriorityGrouping>:
  \brief   Get Priority Grouping
  \details Reads the priority grouping field from the NVIC Interrupt Controller.
  \return                Priority grouping field (SCB->AIRCR [10:8] PRIGROUP field).
 */
__STATIC_INLINE uint32_t __NVIC_GetPriorityGrouping(void)
{
 80037b4:	b480      	push	{r7}
 80037b6:	af00      	add	r7, sp, #0
  return ((uint32_t)((SCB->AIRCR & SCB_AIRCR_PRIGROUP_Msk) >> SCB_AIRCR_PRIGROUP_Pos));
 80037b8:	4b04      	ldr	r3, [pc, #16]	@ (80037cc <__NVIC_GetPriorityGrouping+0x18>)
 80037ba:	68db      	ldr	r3, [r3, #12]
 80037bc:	0a1b      	lsrs	r3, r3, #8
 80037be:	f003 0307 	and.w	r3, r3, #7
}
 80037c2:	4618      	mov	r0, r3
 80037c4:	46bd      	mov	sp, r7
 80037c6:	bc80      	pop	{r7}
 80037c8:	4770      	bx	lr
 80037ca:	bf00      	nop
 80037cc:	e000ed00 	.word	0xe000ed00

080037d0 <__NVIC_EnableIRQ>:
  \details Enables a device specific interrupt in the NVIC interrupt controller.
  \param [in]      IRQn  Device specific interrupt number.
  \note    IRQn must not be negative.
 */
__STATIC_INLINE void __NVIC_EnableIRQ(IRQn_Type IRQn)
{
 80037d0:	b480      	push	{r7}
 80037d2:	b083      	sub	sp, #12
 80037d4:	af00      	add	r7, sp, #0
 80037d6:	4603      	mov	r3, r0
 80037d8:	71fb      	strb	r3, [r7, #7]
  if ((int32_t)(IRQn) >= 0)
 80037da:	f997 3007 	ldrsb.w	r3, [r7, #7]
 80037de:	2b00      	cmp	r3, #0
 80037e0:	db0b      	blt.n	80037fa <__NVIC_EnableIRQ+0x2a>
  {
    NVIC->ISER[(((uint32_t)IRQn) >> 5UL)] = (uint32_t)(1UL << (((uint32_t)IRQn) & 0x1FUL));
 80037e2:	79fb      	ldrb	r3, [r7, #7]
 80037e4:	f003 021f 	and.w	r2, r3, #31
 80037e8:	4906      	ldr	r1, [pc, #24]	@ (8003804 <__NVIC_EnableIRQ+0x34>)
 80037ea:	f997 3007 	ldrsb.w	r3, [r7, #7]
 80037ee:	095b      	lsrs	r3, r3, #5
 80037f0:	2001      	movs	r0, #1
 80037f2:	fa00 f202 	lsl.w	r2, r0, r2
 80037f6:	f841 2023 	str.w	r2, [r1, r3, lsl #2]
  }
}
 80037fa:	bf00      	nop
 80037fc:	370c      	adds	r7, #12
 80037fe:	46bd      	mov	sp, r7
 8003800:	bc80      	pop	{r7}
 8003802:	4770      	bx	lr
 8003804:	e000e100 	.word	0xe000e100

08003808 <__NVIC_SetPriority>:
  \param [in]      IRQn  Interrupt number.
  \param [in]  priority  Priority to set.
  \note    The priority cannot be set for every processor exception.
 */
__STATIC_INLINE void __NVIC_SetPriority(IRQn_Type IRQn, uint32_t priority)
{
 8003808:	b480      	push	{r7}
 800380a:	b083      	sub	sp, #12
 800380c:	af00      	add	r7, sp, #0
 800380e:	4603      	mov	r3, r0
 8003810:	6039      	str	r1, [r7, #0]
 8003812:	71fb      	strb	r3, [r7, #7]
  if ((int32_t)(IRQn) >= 0)
 8003814:	f997 3007 	ldrsb.w	r3, [r7, #7]
 8003818:	2b00      	cmp	r3, #0
 800381a:	db0a      	blt.n	8003832 <__NVIC_SetPriority+0x2a>
  {
    NVIC->IP[((uint32_t)IRQn)]               = (uint8_t)((priority << (8U - __NVIC_PRIO_BITS)) & (uint32_t)0xFFUL);
 800381c:	683b      	ldr	r3, [r7, #0]
 800381e:	b2da      	uxtb	r2, r3
 8003820:	490c      	ldr	r1, [pc, #48]	@ (8003854 <__NVIC_SetPriority+0x4c>)
 8003822:	f997 3007 	ldrsb.w	r3, [r7, #7]
 8003826:	0112      	lsls	r2, r2, #4
 8003828:	b2d2      	uxtb	r2, r2
 800382a:	440b      	add	r3, r1
 800382c:	f883 2300 	strb.w	r2, [r3, #768]	@ 0x300
  }
  else
  {
    SCB->SHP[(((uint32_t)IRQn) & 0xFUL)-4UL] = (uint8_t)((priority << (8U - __NVIC_PRIO_BITS)) & (uint32_t)0xFFUL);
  }
}
 8003830:	e00a      	b.n	8003848 <__NVIC_SetPriority+0x40>
    SCB->SHP[(((uint32_t)IRQn) & 0xFUL)-4UL] = (uint8_t)((priority << (8U - __NVIC_PRIO_BITS)) & (uint32_t)0xFFUL);
 8003832:	683b      	ldr	r3, [r7, #0]
 8003834:	b2da      	uxtb	r2, r3
 8003836:	4908      	ldr	r1, [pc, #32]	@ (8003858 <__NVIC_SetPriority+0x50>)
 8003838:	79fb      	ldrb	r3, [r7, #7]
 800383a:	f003 030f 	and.w	r3, r3, #15
 800383e:	3b04      	subs	r3, #4
 8003840:	0112      	lsls	r2, r2, #4
 8003842:	b2d2      	uxtb	r2, r2
 8003844:	440b      	add	r3, r1
 8003846:	761a      	strb	r2, [r3, #24]
}
 8003848:	bf00      	nop
 800384a:	370c      	adds	r7, #12
 800384c:	46bd      	mov	sp, r7
 800384e:	bc80      	pop	{r7}
 8003850:	4770      	bx	lr
 8003852:	bf00      	nop
 8003854:	e000e100 	.word	0xe000e100
 8003858:	e000ed00 	.word	0xe000ed00

0800385c <NVIC_EncodePriority>:
  \param [in]   PreemptPriority  Preemptive priority value (starting from 0).
  \param [in]       SubPriority  Subpriority value (starting from 0).
  \return                        Encoded priority. Value can be used in the function \ref NVIC_SetPriority().
 */
__STATIC_INLINE uint32_t NVIC_EncodePriority (uint32_t PriorityGroup, uint32_t PreemptPriority, uint32_t SubPriority)
{
 800385c:	b480      	push	{r7}
 800385e:	b089      	sub	sp, #36	@ 0x24
 8003860:	af00      	add	r7, sp, #0
 8003862:	60f8      	str	r0, [r7, #12]
 8003864:	60b9      	str	r1, [r7, #8]
 8003866:	607a      	str	r2, [r7, #4]
  uint32_t PriorityGroupTmp = (PriorityGroup & (uint32_t)0x07UL);   /* only values 0..7 are used          */
 8003868:	68fb      	ldr	r3, [r7, #12]
 800386a:	f003 0307 	and.w	r3, r3, #7
 800386e:	61fb      	str	r3, [r7, #28]
  uint32_t PreemptPriorityBits;
  uint32_t SubPriorityBits;

  PreemptPriorityBits = ((7UL - PriorityGroupTmp) > (uint32_t)(__NVIC_PRIO_BITS)) ? (uint32_t)(__NVIC_PRIO_BITS) : (uint32_t)(7UL - PriorityGroupTmp);
 8003870:	69fb      	ldr	r3, [r7, #28]
 8003872:	f1c3 0307 	rsb	r3, r3, #7
 8003876:	2b04      	cmp	r3, #4
 8003878:	bf28      	it	cs
 800387a:	2304      	movcs	r3, #4
 800387c:	61bb      	str	r3, [r7, #24]
  SubPriorityBits     = ((PriorityGroupTmp + (uint32_t)(__NVIC_PRIO_BITS)) < (uint32_t)7UL) ? (uint32_t)0UL : (uint32_t)((PriorityGroupTmp - 7UL) + (uint32_t)(__NVIC_PRIO_BITS));
 800387e:	69fb      	ldr	r3, [r7, #28]
 8003880:	3304      	adds	r3, #4
 8003882:	2b06      	cmp	r3, #6
 8003884:	d902      	bls.n	800388c <NVIC_EncodePriority+0x30>
 8003886:	69fb      	ldr	r3, [r7, #28]
 8003888:	3b03      	subs	r3, #3
 800388a:	e000      	b.n	800388e <NVIC_EncodePriority+0x32>
 800388c:	2300      	movs	r3, #0
 800388e:	617b      	str	r3, [r7, #20]

  return (
           ((PreemptPriority & (uint32_t)((1UL << (PreemptPriorityBits)) - 1UL)) << SubPriorityBits) |
 8003890:	f04f 32ff 	mov.w	r2, #4294967295
 8003894:	69bb      	ldr	r3, [r7, #24]
 8003896:	fa02 f303 	lsl.w	r3, r2, r3
 800389a:	43da      	mvns	r2, r3
 800389c:	68bb      	ldr	r3, [r7, #8]
 800389e:	401a      	ands	r2, r3
 80038a0:	697b      	ldr	r3, [r7, #20]
 80038a2:	409a      	lsls	r2, r3
           ((SubPriority     & (uint32_t)((1UL << (SubPriorityBits    )) - 1UL)))
 80038a4:	f04f 31ff 	mov.w	r1, #4294967295
 80038a8:	697b      	ldr	r3, [r7, #20]
 80038aa:	fa01 f303 	lsl.w	r3, r1, r3
 80038ae:	43d9      	mvns	r1, r3
 80038b0:	687b      	ldr	r3, [r7, #4]
 80038b2:	400b      	ands	r3, r1
           ((PreemptPriority & (uint32_t)((1UL << (PreemptPriorityBits)) - 1UL)) << SubPriorityBits) |
 80038b4:	4313      	orrs	r3, r2
         );
}
 80038b6:	4618      	mov	r0, r3
 80038b8:	3724      	adds	r7, #36	@ 0x24
 80038ba:	46bd      	mov	sp, r7
 80038bc:	bc80      	pop	{r7}
 80038be:	4770      	bx	lr

080038c0 <SysTick_Config>:
  \note    When the variable <b>__Vendor_SysTickConfig</b> is set to 1, then the
           function <b>SysTick_Config</b> is not included. In this case, the file <b><i>device</i>.h</b>
           must contain a vendor-specific implementation of this function.
 */
__STATIC_INLINE uint32_t SysTick_Config(uint32_t ticks)
{
 80038c0:	b580      	push	{r7, lr}
 80038c2:	b082      	sub	sp, #8
 80038c4:	af00      	add	r7, sp, #0
 80038c6:	6078      	str	r0, [r7, #4]
  if ((ticks - 1UL) > SysTick_LOAD_RELOAD_Msk)
 80038c8:	687b      	ldr	r3, [r7, #4]
 80038ca:	3b01      	subs	r3, #1
 80038cc:	f1b3 7f80 	cmp.w	r3, #16777216	@ 0x1000000
 80038d0:	d301      	bcc.n	80038d6 <SysTick_Config+0x16>
  {
    return (1UL);                                                   /* Reload value impossible */
 80038d2:	2301      	movs	r3, #1
 80038d4:	e00f      	b.n	80038f6 <SysTick_Config+0x36>
  }

  SysTick->LOAD  = (uint32_t)(ticks - 1UL);                         /* set reload register */
 80038d6:	4a0a      	ldr	r2, [pc, #40]	@ (8003900 <SysTick_Config+0x40>)
 80038d8:	687b      	ldr	r3, [r7, #4]
 80038da:	3b01      	subs	r3, #1
 80038dc:	6053      	str	r3, [r2, #4]
  NVIC_SetPriority (SysTick_IRQn, (1UL << __NVIC_PRIO_BITS) - 1UL); /* set Priority for Systick Interrupt */
 80038de:	210f      	movs	r1, #15
 80038e0:	f04f 30ff 	mov.w	r0, #4294967295
 80038e4:	f7ff ff90 	bl	8003808 <__NVIC_SetPriority>
  SysTick->VAL   = 0UL;                                             /* Load the SysTick Counter Value */
 80038e8:	4b05      	ldr	r3, [pc, #20]	@ (8003900 <SysTick_Config+0x40>)
 80038ea:	2200      	movs	r2, #0
 80038ec:	609a      	str	r2, [r3, #8]
  SysTick->CTRL  = SysTick_CTRL_CLKSOURCE_Msk |
 80038ee:	4b04      	ldr	r3, [pc, #16]	@ (8003900 <SysTick_Config+0x40>)
 80038f0:	2207      	movs	r2, #7
 80038f2:	601a      	str	r2, [r3, #0]
                   SysTick_CTRL_TICKINT_Msk   |
                   SysTick_CTRL_ENABLE_Msk;                         /* Enable SysTick IRQ and SysTick Timer */
  return (0UL);                                                     /* Function successful */
 80038f4:	2300      	movs	r3, #0
}
 80038f6:	4618      	mov	r0, r3
 80038f8:	3708      	adds	r7, #8
 80038fa:	46bd      	mov	sp, r7
 80038fc:	bd80      	pop	{r7, pc}
 80038fe:	bf00      	nop
 8003900:	e000e010 	.word	0xe000e010

08003904 <HAL_NVIC_SetPriorityGrouping>:
  * @note   When the NVIC_PriorityGroup_0 is selected, IRQ preemption is no more possible. 
  *         The pending IRQ priority will be managed only by the subpriority. 
  * @retval None
  */
void HAL_NVIC_SetPriorityGrouping(uint32_t PriorityGroup)
{
 8003904:	b580      	push	{r7, lr}
 8003906:	b082      	sub	sp, #8
 8003908:	af00      	add	r7, sp, #0
 800390a:	6078      	str	r0, [r7, #4]
  /* Check the parameters */
  assert_param(IS_NVIC_PRIORITY_GROUP(PriorityGroup));
  
  /* Set the PRIGROUP[10:8] bits according to the PriorityGroup parameter value */
  NVIC_SetPriorityGrouping(PriorityGroup);
 800390c:	6878      	ldr	r0, [r7, #4]
 800390e:	f7ff ff2d 	bl	800376c <__NVIC_SetPriorityGrouping>
}
 8003912:	bf00      	nop
 8003914:	3708      	adds	r7, #8
 8003916:	46bd      	mov	sp, r7
 8003918:	bd80      	pop	{r7, pc}

0800391a <HAL_NVIC_SetPriority>:
  *         This parameter can be a value between 0 and 15
  *         A lower priority value indicates a higher priority.          
  * @retval None
  */
void HAL_NVIC_SetPriority(IRQn_Type IRQn, uint32_t PreemptPriority, uint32_t SubPriority)
{ 
 800391a:	b580      	push	{r7, lr}
 800391c:	b086      	sub	sp, #24
 800391e:	af00      	add	r7, sp, #0
 8003920:	4603      	mov	r3, r0
 8003922:	60b9      	str	r1, [r7, #8]
 8003924:	607a      	str	r2, [r7, #4]
 8003926:	73fb      	strb	r3, [r7, #15]
  uint32_t prioritygroup = 0x00U;
 8003928:	2300      	movs	r3, #0
 800392a:	617b      	str	r3, [r7, #20]
  
  /* Check the parameters */
  assert_param(IS_NVIC_SUB_PRIORITY(SubPriority));
  assert_param(IS_NVIC_PREEMPTION_PRIORITY(PreemptPriority));
  
  prioritygroup = NVIC_GetPriorityGrouping();
 800392c:	f7ff ff42 	bl	80037b4 <__NVIC_GetPriorityGrouping>
 8003930:	6178      	str	r0, [r7, #20]
  
  NVIC_SetPriority(IRQn, NVIC_EncodePriority(prioritygroup, PreemptPriority, SubPriority));
 8003932:	687a      	ldr	r2, [r7, #4]
 8003934:	68b9      	ldr	r1, [r7, #8]
 8003936:	6978      	ldr	r0, [r7, #20]
 8003938:	f7ff ff90 	bl	800385c <NVIC_EncodePriority>
 800393c:	4602      	mov	r2, r0
 800393e:	f997 300f 	ldrsb.w	r3, [r7, #15]
 8003942:	4611      	mov	r1, r2
 8003944:	4618      	mov	r0, r3
 8003946:	f7ff ff5f 	bl	8003808 <__NVIC_SetPriority>
}
 800394a:	bf00      	nop
 800394c:	3718      	adds	r7, #24
 800394e:	46bd      	mov	sp, r7
 8003950:	bd80      	pop	{r7, pc}

08003952 <HAL_NVIC_EnableIRQ>:
  *         This parameter can be an enumerator of IRQn_Type enumeration
  *         (For the complete STM32 Devices IRQ Channels list, please refer to the appropriate CMSIS device file (stm32f10xxx.h))
  * @retval None
  */
void HAL_NVIC_EnableIRQ(IRQn_Type IRQn)
{
 8003952:	b580      	push	{r7, lr}
 8003954:	b082      	sub	sp, #8
 8003956:	af00      	add	r7, sp, #0
 8003958:	4603      	mov	r3, r0
 800395a:	71fb      	strb	r3, [r7, #7]
  /* Check the parameters */
  assert_param(IS_NVIC_DEVICE_IRQ(IRQn));

  /* Enable interrupt */
  NVIC_EnableIRQ(IRQn);
 800395c:	f997 3007 	ldrsb.w	r3, [r7, #7]
 8003960:	4618      	mov	r0, r3
 8003962:	f7ff ff35 	bl	80037d0 <__NVIC_EnableIRQ>
}
 8003966:	bf00      	nop
 8003968:	3708      	adds	r7, #8
 800396a:	46bd      	mov	sp, r7
 800396c:	bd80      	pop	{r7, pc}

0800396e <HAL_SYSTICK_Config>:
  * @param  TicksNumb: Specifies the ticks Number of ticks between two interrupts.
  * @retval status:  - 0  Function succeeded.
  *                  - 1  Function failed.
  */
uint32_t HAL_SYSTICK_Config(uint32_t TicksNumb)
{
 800396e:	b580      	push	{r7, lr}
 8003970:	b082      	sub	sp, #8
 8003972:	af00      	add	r7, sp, #0
 8003974:	6078      	str	r0, [r7, #4]
   return SysTick_Config(TicksNumb);
 8003976:	6878      	ldr	r0, [r7, #4]
 8003978:	f7ff ffa2 	bl	80038c0 <SysTick_Config>
 800397c:	4603      	mov	r3, r0
}
 800397e:	4618      	mov	r0, r3
 8003980:	3708      	adds	r7, #8
 8003982:	46bd      	mov	sp, r7
 8003984:	bd80      	pop	{r7, pc}
	...

08003988 <HAL_DMA_Init>:
  * @param  hdma: Pointer to a DMA_HandleTypeDef structure that contains
  *               the configuration information for the specified DMA Channel.
  * @retval HAL status
  */
HAL_StatusTypeDef HAL_DMA_Init(DMA_HandleTypeDef *hdma)
{
 8003988:	b480      	push	{r7}
 800398a:	b085      	sub	sp, #20
 800398c:	af00      	add	r7, sp, #0
 800398e:	6078      	str	r0, [r7, #4]
  uint32_t tmp = 0U;
 8003990:	2300      	movs	r3, #0
 8003992:	60fb      	str	r3, [r7, #12]

  /* Check the DMA handle allocation */
  if(hdma == NULL)
 8003994:	687b      	ldr	r3, [r7, #4]
 8003996:	2b00      	cmp	r3, #0
 8003998:	d101      	bne.n	800399e <HAL_DMA_Init+0x16>
  {
    return HAL_ERROR;
 800399a:	2301      	movs	r3, #1
 800399c:	e043      	b.n	8003a26 <HAL_DMA_Init+0x9e>
    hdma->ChannelIndex = (((uint32_t)hdma->Instance - (uint32_t)DMA2_Channel1) / ((uint32_t)DMA2_Channel2 - (uint32_t)DMA2_Channel1)) << 2;
    hdma->DmaBaseAddress = DMA2;
  }
#else
  /* DMA1 */
  hdma->ChannelIndex = (((uint32_t)hdma->Instance - (uint32_t)DMA1_Channel1) / ((uint32_t)DMA1_Channel2 - (uint32_t)DMA1_Channel1)) << 2;
 800399e:	687b      	ldr	r3, [r7, #4]
 80039a0:	681b      	ldr	r3, [r3, #0]
 80039a2:	461a      	mov	r2, r3
 80039a4:	4b22      	ldr	r3, [pc, #136]	@ (8003a30 <HAL_DMA_Init+0xa8>)
 80039a6:	4413      	add	r3, r2
 80039a8:	4a22      	ldr	r2, [pc, #136]	@ (8003a34 <HAL_DMA_Init+0xac>)
 80039aa:	fba2 2303 	umull	r2, r3, r2, r3
 80039ae:	091b      	lsrs	r3, r3, #4
 80039b0:	009a      	lsls	r2, r3, #2
 80039b2:	687b      	ldr	r3, [r7, #4]
 80039b4:	641a      	str	r2, [r3, #64]	@ 0x40
  hdma->DmaBaseAddress = DMA1;
 80039b6:	687b      	ldr	r3, [r7, #4]
 80039b8:	4a1f      	ldr	r2, [pc, #124]	@ (8003a38 <HAL_DMA_Init+0xb0>)
 80039ba:	63da      	str	r2, [r3, #60]	@ 0x3c
#endif /* DMA2 */

  /* Change DMA peripheral state */
  hdma->State = HAL_DMA_STATE_BUSY;
 80039bc:	687b      	ldr	r3, [r7, #4]
 80039be:	2202      	movs	r2, #2
 80039c0:	f883 2021 	strb.w	r2, [r3, #33]	@ 0x21

  /* Get the CR register value */
  tmp = hdma->Instance->CCR;
 80039c4:	687b      	ldr	r3, [r7, #4]
 80039c6:	681b      	ldr	r3, [r3, #0]
 80039c8:	681b      	ldr	r3, [r3, #0]
 80039ca:	60fb      	str	r3, [r7, #12]

  /* Clear PL, MSIZE, PSIZE, MINC, PINC, CIRC and DIR bits */
  tmp &= ((uint32_t)~(DMA_CCR_PL    | DMA_CCR_MSIZE  | DMA_CCR_PSIZE  | \
 80039cc:	68fb      	ldr	r3, [r7, #12]
 80039ce:	f423 537f 	bic.w	r3, r3, #16320	@ 0x3fc0
 80039d2:	f023 0330 	bic.w	r3, r3, #48	@ 0x30
 80039d6:	60fb      	str	r3, [r7, #12]
                      DMA_CCR_MINC  | DMA_CCR_PINC   | DMA_CCR_CIRC   | \
                      DMA_CCR_DIR));

  /* Prepare the DMA Channel configuration */
  tmp |=  hdma->Init.Direction        |
 80039d8:	687b      	ldr	r3, [r7, #4]
 80039da:	685a      	ldr	r2, [r3, #4]
          hdma->Init.PeriphInc           | hdma->Init.MemInc           |
 80039dc:	687b      	ldr	r3, [r7, #4]
 80039de:	689b      	ldr	r3, [r3, #8]
  tmp |=  hdma->Init.Direction        |
 80039e0:	431a      	orrs	r2, r3
          hdma->Init.PeriphInc           | hdma->Init.MemInc           |
 80039e2:	687b      	ldr	r3, [r7, #4]
 80039e4:	68db      	ldr	r3, [r3, #12]
 80039e6:	431a      	orrs	r2, r3
          hdma->Init.PeriphDataAlignment | hdma->Init.MemDataAlignment |
 80039e8:	687b      	ldr	r3, [r7, #4]
 80039ea:	691b      	ldr	r3, [r3, #16]
          hdma->Init.PeriphInc           | hdma->Init.MemInc           |
 80039ec:	431a      	orrs	r2, r3
          hdma->Init.PeriphDataAlignment | hdma->Init.MemDataAlignment |
 80039ee:	687b      	ldr	r3, [r7, #4]
 80039f0:	695b      	ldr	r3, [r3, #20]
 80039f2:	431a      	orrs	r2, r3
          hdma->Init.Mode                | hdma->Init.Priority;
 80039f4:	687b      	ldr	r3, [r7, #4]
 80039f6:	699b      	ldr	r3, [r3, #24]
          hdma->Init.PeriphDataAlignment | hdma->Init.MemDataAlignment |
 80039f8:	431a      	orrs	r2, r3
          hdma->Init.Mode                | hdma->Init.Priority;
 80039fa:	687b      	ldr	r3, [r7, #4]
 80039fc:	69db      	ldr	r3, [r3, #28]
 80039fe:	4313      	orrs	r3, r2
  tmp |=  hdma->Init.Direction        |
 8003a00:	68fa      	ldr	r2, [r7, #12]
 8003a02:	4313      	orrs	r3, r2
 8003a04:	60fb      	str	r3, [r7, #12]

  /* Write to DMA Channel CR register */
  hdma->Instance->CCR = tmp;
 8003a06:	687b      	ldr	r3, [r7, #4]
 8003a08:	681b      	ldr	r3, [r3, #0]
 8003a0a:	68fa      	ldr	r2, [r7, #12]
 8003a0c:	601a      	str	r2, [r3, #0]

  /* Initialise the error code */
  hdma->ErrorCode = HAL_DMA_ERROR_NONE;
 8003a0e:	687b      	ldr	r3, [r7, #4]
 8003a10:	2200      	movs	r2, #0
 8003a12:	639a      	str	r2, [r3, #56]	@ 0x38

  /* Initialize the DMA state*/
  hdma->State = HAL_DMA_STATE_READY;
 8003a14:	687b      	ldr	r3, [r7, #4]
 8003a16:	2201      	movs	r2, #1
 8003a18:	f883 2021 	strb.w	r2, [r3, #33]	@ 0x21
  /* Allocate lock resource and initialize it */
  hdma->Lock = HAL_UNLOCKED;
 8003a1c:	687b      	ldr	r3, [r7, #4]
 8003a1e:	2200      	movs	r2, #0
 8003a20:	f883 2020 	strb.w	r2, [r3, #32]

  return HAL_OK;
 8003a24:	2300      	movs	r3, #0
}
 8003a26:	4618      	mov	r0, r3
 8003a28:	3714      	adds	r7, #20
 8003a2a:	46bd      	mov	sp, r7
 8003a2c:	bc80      	pop	{r7}
 8003a2e:	4770      	bx	lr
 8003a30:	bffdfff8 	.word	0xbffdfff8
 8003a34:	cccccccd 	.word	0xcccccccd
 8003a38:	40020000 	.word	0x40020000

08003a3c <HAL_DMA_Start_IT>:
  * @param  DstAddress: The destination memory Buffer address
  * @param  DataLength: The length of data to be transferred from source to destination
  * @retval HAL status
  */
HAL_StatusTypeDef HAL_DMA_Start_IT(DMA_HandleTypeDef *hdma, uint32_t SrcAddress, uint32_t DstAddress, uint32_t DataLength)
{
 8003a3c:	b580      	push	{r7, lr}
 8003a3e:	b086      	sub	sp, #24
 8003a40:	af00      	add	r7, sp, #0
 8003a42:	60f8      	str	r0, [r7, #12]
 8003a44:	60b9      	str	r1, [r7, #8]
 8003a46:	607a      	str	r2, [r7, #4]
 8003a48:	603b      	str	r3, [r7, #0]
  HAL_StatusTypeDef status = HAL_OK;
 8003a4a:	2300      	movs	r3, #0
 8003a4c:	75fb      	strb	r3, [r7, #23]

  /* Check the parameters */
  assert_param(IS_DMA_BUFFER_SIZE(DataLength));

  /* Process locked */
  __HAL_LOCK(hdma);
 8003a4e:	68fb      	ldr	r3, [r7, #12]
 8003a50:	f893 3020 	ldrb.w	r3, [r3, #32]
 8003a54:	2b01      	cmp	r3, #1
 8003a56:	d101      	bne.n	8003a5c <HAL_DMA_Start_IT+0x20>
 8003a58:	2302      	movs	r3, #2
 8003a5a:	e04b      	b.n	8003af4 <HAL_DMA_Start_IT+0xb8>
 8003a5c:	68fb      	ldr	r3, [r7, #12]
 8003a5e:	2201      	movs	r2, #1
 8003a60:	f883 2020 	strb.w	r2, [r3, #32]
  
  if(HAL_DMA_STATE_READY == hdma->State)
 8003a64:	68fb      	ldr	r3, [r7, #12]
 8003a66:	f893 3021 	ldrb.w	r3, [r3, #33]	@ 0x21
 8003a6a:	b2db      	uxtb	r3, r3
 8003a6c:	2b01      	cmp	r3, #1
 8003a6e:	d13a      	bne.n	8003ae6 <HAL_DMA_Start_IT+0xaa>
  {
    /* Change DMA peripheral state */
    hdma->State = HAL_DMA_STATE_BUSY;
 8003a70:	68fb      	ldr	r3, [r7, #12]
 8003a72:	2202      	movs	r2, #2
 8003a74:	f883 2021 	strb.w	r2, [r3, #33]	@ 0x21
    hdma->ErrorCode = HAL_DMA_ERROR_NONE;
 8003a78:	68fb      	ldr	r3, [r7, #12]
 8003a7a:	2200      	movs	r2, #0
 8003a7c:	639a      	str	r2, [r3, #56]	@ 0x38
    
    /* Disable the peripheral */
    __HAL_DMA_DISABLE(hdma);
 8003a7e:	68fb      	ldr	r3, [r7, #12]
 8003a80:	681b      	ldr	r3, [r3, #0]
 8003a82:	681a      	ldr	r2, [r3, #0]
 8003a84:	68fb      	ldr	r3, [r7, #12]
 8003a86:	681b      	ldr	r3, [r3, #0]
 8003a88:	f022 0201 	bic.w	r2, r2, #1
 8003a8c:	601a      	str	r2, [r3, #0]
    
    /* Configure the source, destination address and the data length & clear flags*/
    DMA_SetConfig(hdma, SrcAddress, DstAddress, DataLength);
 8003a8e:	683b      	ldr	r3, [r7, #0]
 8003a90:	687a      	ldr	r2, [r7, #4]
 8003a92:	68b9      	ldr	r1, [r7, #8]
 8003a94:	68f8      	ldr	r0, [r7, #12]
 8003a96:	f000 f9eb 	bl	8003e70 <DMA_SetConfig>
    
    /* Enable the transfer complete interrupt */
    /* Enable the transfer Error interrupt */
    if(NULL != hdma->XferHalfCpltCallback)
 8003a9a:	68fb      	ldr	r3, [r7, #12]
 8003a9c:	6adb      	ldr	r3, [r3, #44]	@ 0x2c
 8003a9e:	2b00      	cmp	r3, #0
 8003aa0:	d008      	beq.n	8003ab4 <HAL_DMA_Start_IT+0x78>
    {
      /* Enable the Half transfer complete interrupt as well */
      __HAL_DMA_ENABLE_IT(hdma, (DMA_IT_TC | DMA_IT_HT | DMA_IT_TE));
 8003aa2:	68fb      	ldr	r3, [r7, #12]
 8003aa4:	681b      	ldr	r3, [r3, #0]
 8003aa6:	681a      	ldr	r2, [r3, #0]
 8003aa8:	68fb      	ldr	r3, [r7, #12]
 8003aaa:	681b      	ldr	r3, [r3, #0]
 8003aac:	f042 020e 	orr.w	r2, r2, #14
 8003ab0:	601a      	str	r2, [r3, #0]
 8003ab2:	e00f      	b.n	8003ad4 <HAL_DMA_Start_IT+0x98>
    }
    else
    {
      __HAL_DMA_DISABLE_IT(hdma, DMA_IT_HT);
 8003ab4:	68fb      	ldr	r3, [r7, #12]
 8003ab6:	681b      	ldr	r3, [r3, #0]
 8003ab8:	681a      	ldr	r2, [r3, #0]
 8003aba:	68fb      	ldr	r3, [r7, #12]
 8003abc:	681b      	ldr	r3, [r3, #0]
 8003abe:	f022 0204 	bic.w	r2, r2, #4
 8003ac2:	601a      	str	r2, [r3, #0]
      __HAL_DMA_ENABLE_IT(hdma, (DMA_IT_TC | DMA_IT_TE));
 8003ac4:	68fb      	ldr	r3, [r7, #12]
 8003ac6:	681b      	ldr	r3, [r3, #0]
 8003ac8:	681a      	ldr	r2, [r3, #0]
 8003aca:	68fb      	ldr	r3, [r7, #12]
 8003acc:	681b      	ldr	r3, [r3, #0]
 8003ace:	f042 020a 	orr.w	r2, r2, #10
 8003ad2:	601a      	str	r2, [r3, #0]
    }
    /* Enable the Peripheral */
    __HAL_DMA_ENABLE(hdma);
 8003ad4:	68fb      	ldr	r3, [r7, #12]
 8003ad6:	681b      	ldr	r3, [r3, #0]
 8003ad8:	681a      	ldr	r2, [r3, #0]
 8003ada:	68fb      	ldr	r3, [r7, #12]
 8003adc:	681b      	ldr	r3, [r3, #0]
 8003ade:	f042 0201 	orr.w	r2, r2, #1
 8003ae2:	601a      	str	r2, [r3, #0]
 8003ae4:	e005      	b.n	8003af2 <HAL_DMA_Start_IT+0xb6>
  }
  else
  {      
    /* Process Unlocked */
    __HAL_UNLOCK(hdma); 
 8003ae6:	68fb      	ldr	r3, [r7, #12]
 8003ae8:	2200      	movs	r2, #0
 8003aea:	f883 2020 	strb.w	r2, [r3, #32]

    /* Remain BUSY */
    status = HAL_BUSY;
 8003aee:	2302      	movs	r3, #2
 8003af0:	75fb      	strb	r3, [r7, #23]
  }    
  return status;
 8003af2:	7dfb      	ldrb	r3, [r7, #23]
}
 8003af4:	4618      	mov	r0, r3
 8003af6:	3718      	adds	r7, #24
 8003af8:	46bd      	mov	sp, r7
 8003afa:	bd80      	pop	{r7, pc}

08003afc <HAL_DMA_Abort>:
  * @param  hdma: pointer to a DMA_HandleTypeDef structure that contains
  *               the configuration information for the specified DMA Channel.
  * @retval HAL status
  */
HAL_StatusTypeDef HAL_DMA_Abort(DMA_HandleTypeDef *hdma)
{
 8003afc:	b480      	push	{r7}
 8003afe:	b085      	sub	sp, #20
 8003b00:	af00      	add	r7, sp, #0
 8003b02:	6078      	str	r0, [r7, #4]
  HAL_StatusTypeDef status = HAL_OK;
 8003b04:	2300      	movs	r3, #0
 8003b06:	73fb      	strb	r3, [r7, #15]
  
  if(hdma->State != HAL_DMA_STATE_BUSY)
 8003b08:	687b      	ldr	r3, [r7, #4]
 8003b0a:	f893 3021 	ldrb.w	r3, [r3, #33]	@ 0x21
 8003b0e:	b2db      	uxtb	r3, r3
 8003b10:	2b02      	cmp	r3, #2
 8003b12:	d008      	beq.n	8003b26 <HAL_DMA_Abort+0x2a>
  {
    /* no transfer ongoing */
    hdma->ErrorCode = HAL_DMA_ERROR_NO_XFER;
 8003b14:	687b      	ldr	r3, [r7, #4]
 8003b16:	2204      	movs	r2, #4
 8003b18:	639a      	str	r2, [r3, #56]	@ 0x38
    
    /* Process Unlocked */
    __HAL_UNLOCK(hdma);
 8003b1a:	687b      	ldr	r3, [r7, #4]
 8003b1c:	2200      	movs	r2, #0
 8003b1e:	f883 2020 	strb.w	r2, [r3, #32]
    
    return HAL_ERROR;
 8003b22:	2301      	movs	r3, #1
 8003b24:	e020      	b.n	8003b68 <HAL_DMA_Abort+0x6c>
  }
  else

  {
    /* Disable DMA IT */
    __HAL_DMA_DISABLE_IT(hdma, (DMA_IT_TC | DMA_IT_HT | DMA_IT_TE));
 8003b26:	687b      	ldr	r3, [r7, #4]
 8003b28:	681b      	ldr	r3, [r3, #0]
 8003b2a:	681a      	ldr	r2, [r3, #0]
 8003b2c:	687b      	ldr	r3, [r7, #4]
 8003b2e:	681b      	ldr	r3, [r3, #0]
 8003b30:	f022 020e 	bic.w	r2, r2, #14
 8003b34:	601a      	str	r2, [r3, #0]
      
    /* Disable the channel */
    __HAL_DMA_DISABLE(hdma);
 8003b36:	687b      	ldr	r3, [r7, #4]
 8003b38:	681b      	ldr	r3, [r3, #0]
 8003b3a:	681a      	ldr	r2, [r3, #0]
 8003b3c:	687b      	ldr	r3, [r7, #4]
 8003b3e:	681b      	ldr	r3, [r3, #0]
 8003b40:	f022 0201 	bic.w	r2, r2, #1
 8003b44:	601a      	str	r2, [r3, #0]
      
    /* Clear all flags */
    hdma->DmaBaseAddress->IFCR = (DMA_ISR_GIF1 << hdma->ChannelIndex);
 8003b46:	687b      	ldr	r3, [r7, #4]
 8003b48:	6c1a      	ldr	r2, [r3, #64]	@ 0x40
 8003b4a:	687b      	ldr	r3, [r7, #4]
 8003b4c:	6bdb      	ldr	r3, [r3, #60]	@ 0x3c
 8003b4e:	2101      	movs	r1, #1
 8003b50:	fa01 f202 	lsl.w	r2, r1, r2
 8003b54:	605a      	str	r2, [r3, #4]
  }
  /* Change the DMA state */
  hdma->State = HAL_DMA_STATE_READY;
 8003b56:	687b      	ldr	r3, [r7, #4]
 8003b58:	2201      	movs	r2, #1
 8003b5a:	f883 2021 	strb.w	r2, [r3, #33]	@ 0x21

  /* Process Unlocked */
  __HAL_UNLOCK(hdma);      
 8003b5e:	687b      	ldr	r3, [r7, #4]
 8003b60:	2200      	movs	r2, #0
 8003b62:	f883 2020 	strb.w	r2, [r3, #32]
  
  return status; 
 8003b66:	7bfb      	ldrb	r3, [r7, #15]
}
 8003b68:	4618      	mov	r0, r3
 8003b6a:	3714      	adds	r7, #20
 8003b6c:	46bd      	mov	sp, r7
 8003b6e:	bc80      	pop	{r7}
 8003b70:	4770      	bx	lr
	...

08003b74 <HAL_DMA_Abort_IT>:
  * @param  hdma  : pointer to a DMA_HandleTypeDef structure that contains
  *                 the configuration information for the specified DMA Channel.
  * @retval HAL status
  */
HAL_StatusTypeDef HAL_DMA_Abort_IT(DMA_HandleTypeDef *hdma)
{  
 8003b74:	b580      	push	{r7, lr}
 8003b76:	b084      	sub	sp, #16
 8003b78:	af00      	add	r7, sp, #0
 8003b7a:	6078      	str	r0, [r7, #4]
  HAL_StatusTypeDef status = HAL_OK;
 8003b7c:	2300      	movs	r3, #0
 8003b7e:	73fb      	strb	r3, [r7, #15]
  
  if(HAL_DMA_STATE_BUSY != hdma->State)
 8003b80:	687b      	ldr	r3, [r7, #4]
 8003b82:	f893 3021 	ldrb.w	r3, [r3, #33]	@ 0x21
 8003b86:	b2db      	uxtb	r3, r3
 8003b88:	2b02      	cmp	r3, #2
 8003b8a:	d005      	beq.n	8003b98 <HAL_DMA_Abort_IT+0x24>
  {
    /* no transfer ongoing */
    hdma->ErrorCode = HAL_DMA_ERROR_NO_XFER;
 8003b8c:	687b      	ldr	r3, [r7, #4]
 8003b8e:	2204      	movs	r2, #4
 8003b90:	639a      	str	r2, [r3, #56]	@ 0x38
        
    status = HAL_ERROR;
 8003b92:	2301      	movs	r3, #1
 8003b94:	73fb      	strb	r3, [r7, #15]
 8003b96:	e051      	b.n	8003c3c <HAL_DMA_Abort_IT+0xc8>
  }
  else
  { 
    /* Disable DMA IT */
    __HAL_DMA_DISABLE_IT(hdma, (DMA_IT_TC | DMA_IT_HT | DMA_IT_TE));
 8003b98:	687b      	ldr	r3, [r7, #4]
 8003b9a:	681b      	ldr	r3, [r3, #0]
 8003b9c:	681a      	ldr	r2, [r3, #0]
 8003b9e:	687b      	ldr	r3, [r7, #4]
 8003ba0:	681b      	ldr	r3, [r3, #0]
 8003ba2:	f022 020e 	bic.w	r2, r2, #14
 8003ba6:	601a      	str	r2, [r3, #0]

    /* Disable the channel */
    __HAL_DMA_DISABLE(hdma);
 8003ba8:	687b      	ldr	r3, [r7, #4]
 8003baa:	681b      	ldr	r3, [r3, #0]
 8003bac:	681a      	ldr	r2, [r3, #0]
 8003bae:	687b      	ldr	r3, [r7, #4]
 8003bb0:	681b      	ldr	r3, [r3, #0]
 8003bb2:	f022 0201 	bic.w	r2, r2, #1
 8003bb6:	601a      	str	r2, [r3, #0]

    /* Clear all flags */
    __HAL_DMA_CLEAR_FLAG(hdma, __HAL_DMA_GET_GI_FLAG_INDEX(hdma));
 8003bb8:	687b      	ldr	r3, [r7, #4]
 8003bba:	681b      	ldr	r3, [r3, #0]
 8003bbc:	4a22      	ldr	r2, [pc, #136]	@ (8003c48 <HAL_DMA_Abort_IT+0xd4>)
 8003bbe:	4293      	cmp	r3, r2
 8003bc0:	d029      	beq.n	8003c16 <HAL_DMA_Abort_IT+0xa2>
 8003bc2:	687b      	ldr	r3, [r7, #4]
 8003bc4:	681b      	ldr	r3, [r3, #0]
 8003bc6:	4a21      	ldr	r2, [pc, #132]	@ (8003c4c <HAL_DMA_Abort_IT+0xd8>)
 8003bc8:	4293      	cmp	r3, r2
 8003bca:	d022      	beq.n	8003c12 <HAL_DMA_Abort_IT+0x9e>
 8003bcc:	687b      	ldr	r3, [r7, #4]
 8003bce:	681b      	ldr	r3, [r3, #0]
 8003bd0:	4a1f      	ldr	r2, [pc, #124]	@ (8003c50 <HAL_DMA_Abort_IT+0xdc>)
 8003bd2:	4293      	cmp	r3, r2
 8003bd4:	d01a      	beq.n	8003c0c <HAL_DMA_Abort_IT+0x98>
 8003bd6:	687b      	ldr	r3, [r7, #4]
 8003bd8:	681b      	ldr	r3, [r3, #0]
 8003bda:	4a1e      	ldr	r2, [pc, #120]	@ (8003c54 <HAL_DMA_Abort_IT+0xe0>)
 8003bdc:	4293      	cmp	r3, r2
 8003bde:	d012      	beq.n	8003c06 <HAL_DMA_Abort_IT+0x92>
 8003be0:	687b      	ldr	r3, [r7, #4]
 8003be2:	681b      	ldr	r3, [r3, #0]
 8003be4:	4a1c      	ldr	r2, [pc, #112]	@ (8003c58 <HAL_DMA_Abort_IT+0xe4>)
 8003be6:	4293      	cmp	r3, r2
 8003be8:	d00a      	beq.n	8003c00 <HAL_DMA_Abort_IT+0x8c>
 8003bea:	687b      	ldr	r3, [r7, #4]
 8003bec:	681b      	ldr	r3, [r3, #0]
 8003bee:	4a1b      	ldr	r2, [pc, #108]	@ (8003c5c <HAL_DMA_Abort_IT+0xe8>)
 8003bf0:	4293      	cmp	r3, r2
 8003bf2:	d102      	bne.n	8003bfa <HAL_DMA_Abort_IT+0x86>
 8003bf4:	f44f 1380 	mov.w	r3, #1048576	@ 0x100000
 8003bf8:	e00e      	b.n	8003c18 <HAL_DMA_Abort_IT+0xa4>
 8003bfa:	f04f 7380 	mov.w	r3, #16777216	@ 0x1000000
 8003bfe:	e00b      	b.n	8003c18 <HAL_DMA_Abort_IT+0xa4>
 8003c00:	f44f 3380 	mov.w	r3, #65536	@ 0x10000
 8003c04:	e008      	b.n	8003c18 <HAL_DMA_Abort_IT+0xa4>
 8003c06:	f44f 5380 	mov.w	r3, #4096	@ 0x1000
 8003c0a:	e005      	b.n	8003c18 <HAL_DMA_Abort_IT+0xa4>
 8003c0c:	f44f 7380 	mov.w	r3, #256	@ 0x100
 8003c10:	e002      	b.n	8003c18 <HAL_DMA_Abort_IT+0xa4>
 8003c12:	2310      	movs	r3, #16
 8003c14:	e000      	b.n	8003c18 <HAL_DMA_Abort_IT+0xa4>
 8003c16:	2301      	movs	r3, #1
 8003c18:	4a11      	ldr	r2, [pc, #68]	@ (8003c60 <HAL_DMA_Abort_IT+0xec>)
 8003c1a:	6053      	str	r3, [r2, #4]

    /* Change the DMA state */
    hdma->State = HAL_DMA_STATE_READY;
 8003c1c:	687b      	ldr	r3, [r7, #4]
 8003c1e:	2201      	movs	r2, #1
 8003c20:	f883 2021 	strb.w	r2, [r3, #33]	@ 0x21

    /* Process Unlocked */
    __HAL_UNLOCK(hdma);
 8003c24:	687b      	ldr	r3, [r7, #4]
 8003c26:	2200      	movs	r2, #0
 8003c28:	f883 2020 	strb.w	r2, [r3, #32]

    /* Call User Abort callback */
    if(hdma->XferAbortCallback != NULL)
 8003c2c:	687b      	ldr	r3, [r7, #4]
 8003c2e:	6b5b      	ldr	r3, [r3, #52]	@ 0x34
 8003c30:	2b00      	cmp	r3, #0
 8003c32:	d003      	beq.n	8003c3c <HAL_DMA_Abort_IT+0xc8>
    {
      hdma->XferAbortCallback(hdma);
 8003c34:	687b      	ldr	r3, [r7, #4]
 8003c36:	6b5b      	ldr	r3, [r3, #52]	@ 0x34
 8003c38:	6878      	ldr	r0, [r7, #4]
 8003c3a:	4798      	blx	r3
    } 
  }
  return status;
 8003c3c:	7bfb      	ldrb	r3, [r7, #15]
}
 8003c3e:	4618      	mov	r0, r3
 8003c40:	3710      	adds	r7, #16
 8003c42:	46bd      	mov	sp, r7
 8003c44:	bd80      	pop	{r7, pc}
 8003c46:	bf00      	nop
 8003c48:	40020008 	.word	0x40020008
 8003c4c:	4002001c 	.word	0x4002001c
 8003c50:	40020030 	.word	0x40020030
 8003c54:	40020044 	.word	0x40020044
 8003c58:	40020058 	.word	0x40020058
 8003c5c:	4002006c 	.word	0x4002006c
 8003c60:	40020000 	.word	0x40020000

08003c64 <HAL_DMA_IRQHandler>:
  * @param  hdma: pointer to a DMA_HandleTypeDef structure that contains
  *               the configuration information for the specified DMA Channel.  
  * @retval None
  */
void HAL_DMA_IRQHandler(DMA_HandleTypeDef *hdma)
{
 8003c64:	b580      	push	{r7, lr}
 8003c66:	b084      	sub	sp, #16
 8003c68:	af00      	add	r7, sp, #0
 8003c6a:	6078      	str	r0, [r7, #4]
  uint32_t flag_it = hdma->DmaBaseAddress->ISR;
 8003c6c:	687b      	ldr	r3, [r7, #4]
 8003c6e:	6bdb      	ldr	r3, [r3, #60]	@ 0x3c
 8003c70:	681b      	ldr	r3, [r3, #0]
 8003c72:	60fb      	str	r3, [r7, #12]
  uint32_t source_it = hdma->Instance->CCR;
 8003c74:	687b      	ldr	r3, [r7, #4]
 8003c76:	681b      	ldr	r3, [r3, #0]
 8003c78:	681b      	ldr	r3, [r3, #0]
 8003c7a:	60bb      	str	r3, [r7, #8]
  
  /* Half Transfer Complete Interrupt management ******************************/
  if (((flag_it & (DMA_FLAG_HT1 << hdma->ChannelIndex)) != RESET) && ((source_it & DMA_IT_HT) != RESET))
 8003c7c:	687b      	ldr	r3, [r7, #4]
 8003c7e:	6c1b      	ldr	r3, [r3, #64]	@ 0x40
 8003c80:	2204      	movs	r2, #4
 8003c82:	409a      	lsls	r2, r3
 8003c84:	68fb      	ldr	r3, [r7, #12]
 8003c86:	4013      	ands	r3, r2
 8003c88:	2b00      	cmp	r3, #0
 8003c8a:	d04f      	beq.n	8003d2c <HAL_DMA_IRQHandler+0xc8>
 8003c8c:	68bb      	ldr	r3, [r7, #8]
 8003c8e:	f003 0304 	and.w	r3, r3, #4
 8003c92:	2b00      	cmp	r3, #0
 8003c94:	d04a      	beq.n	8003d2c <HAL_DMA_IRQHandler+0xc8>
  {
    /* Disable the half transfer interrupt if the DMA mode is not CIRCULAR */
    if((hdma->Instance->CCR & DMA_CCR_CIRC) == 0U)
 8003c96:	687b      	ldr	r3, [r7, #4]
 8003c98:	681b      	ldr	r3, [r3, #0]
 8003c9a:	681b      	ldr	r3, [r3, #0]
 8003c9c:	f003 0320 	and.w	r3, r3, #32
 8003ca0:	2b00      	cmp	r3, #0
 8003ca2:	d107      	bne.n	8003cb4 <HAL_DMA_IRQHandler+0x50>
    {
      /* Disable the half transfer interrupt */
      __HAL_DMA_DISABLE_IT(hdma, DMA_IT_HT);
 8003ca4:	687b      	ldr	r3, [r7, #4]
 8003ca6:	681b      	ldr	r3, [r3, #0]
 8003ca8:	681a      	ldr	r2, [r3, #0]
 8003caa:	687b      	ldr	r3, [r7, #4]
 8003cac:	681b      	ldr	r3, [r3, #0]
 8003cae:	f022 0204 	bic.w	r2, r2, #4
 8003cb2:	601a      	str	r2, [r3, #0]
    }
    /* Clear the half transfer complete flag */
    __HAL_DMA_CLEAR_FLAG(hdma, __HAL_DMA_GET_HT_FLAG_INDEX(hdma));
 8003cb4:	687b      	ldr	r3, [r7, #4]
 8003cb6:	681b      	ldr	r3, [r3, #0]
 8003cb8:	4a66      	ldr	r2, [pc, #408]	@ (8003e54 <HAL_DMA_IRQHandler+0x1f0>)
 8003cba:	4293      	cmp	r3, r2
 8003cbc:	d029      	beq.n	8003d12 <HAL_DMA_IRQHandler+0xae>
 8003cbe:	687b      	ldr	r3, [r7, #4]
 8003cc0:	681b      	ldr	r3, [r3, #0]
 8003cc2:	4a65      	ldr	r2, [pc, #404]	@ (8003e58 <HAL_DMA_IRQHandler+0x1f4>)
 8003cc4:	4293      	cmp	r3, r2
 8003cc6:	d022      	beq.n	8003d0e <HAL_DMA_IRQHandler+0xaa>
 8003cc8:	687b      	ldr	r3, [r7, #4]
 8003cca:	681b      	ldr	r3, [r3, #0]
 8003ccc:	4a63      	ldr	r2, [pc, #396]	@ (8003e5c <HAL_DMA_IRQHandler+0x1f8>)
 8003cce:	4293      	cmp	r3, r2
 8003cd0:	d01a      	beq.n	8003d08 <HAL_DMA_IRQHandler+0xa4>
 8003cd2:	687b      	ldr	r3, [r7, #4]
 8003cd4:	681b      	ldr	r3, [r3, #0]
 8003cd6:	4a62      	ldr	r2, [pc, #392]	@ (8003e60 <HAL_DMA_IRQHandler+0x1fc>)
 8003cd8:	4293      	cmp	r3, r2
 8003cda:	d012      	beq.n	8003d02 <HAL_DMA_IRQHandler+0x9e>
 8003cdc:	687b      	ldr	r3, [r7, #4]
 8003cde:	681b      	ldr	r3, [r3, #0]
 8003ce0:	4a60      	ldr	r2, [pc, #384]	@ (8003e64 <HAL_DMA_IRQHandler+0x200>)
 8003ce2:	4293      	cmp	r3, r2
 8003ce4:	d00a      	beq.n	8003cfc <HAL_DMA_IRQHandler+0x98>
 8003ce6:	687b      	ldr	r3, [r7, #4]
 8003ce8:	681b      	ldr	r3, [r3, #0]
 8003cea:	4a5f      	ldr	r2, [pc, #380]	@ (8003e68 <HAL_DMA_IRQHandler+0x204>)
 8003cec:	4293      	cmp	r3, r2
 8003cee:	d102      	bne.n	8003cf6 <HAL_DMA_IRQHandler+0x92>
 8003cf0:	f44f 0380 	mov.w	r3, #4194304	@ 0x400000
 8003cf4:	e00e      	b.n	8003d14 <HAL_DMA_IRQHandler+0xb0>
 8003cf6:	f04f 6380 	mov.w	r3, #67108864	@ 0x4000000
 8003cfa:	e00b      	b.n	8003d14 <HAL_DMA_IRQHandler+0xb0>
 8003cfc:	f44f 2380 	mov.w	r3, #262144	@ 0x40000
 8003d00:	e008      	b.n	8003d14 <HAL_DMA_IRQHandler+0xb0>
 8003d02:	f44f 4380 	mov.w	r3, #16384	@ 0x4000
 8003d06:	e005      	b.n	8003d14 <HAL_DMA_IRQHandler+0xb0>
 8003d08:	f44f 6380 	mov.w	r3, #1024	@ 0x400
 8003d0c:	e002      	b.n	8003d14 <HAL_DMA_IRQHandler+0xb0>
 8003d0e:	2340      	movs	r3, #64	@ 0x40
 8003d10:	e000      	b.n	8003d14 <HAL_DMA_IRQHandler+0xb0>
 8003d12:	2304      	movs	r3, #4
 8003d14:	4a55      	ldr	r2, [pc, #340]	@ (8003e6c <HAL_DMA_IRQHandler+0x208>)
 8003d16:	6053      	str	r3, [r2, #4]

    /* DMA peripheral state is not updated in Half Transfer */
    /* but in Transfer Complete case */

    if(hdma->XferHalfCpltCallback != NULL)
 8003d18:	687b      	ldr	r3, [r7, #4]
 8003d1a:	6adb      	ldr	r3, [r3, #44]	@ 0x2c
 8003d1c:	2b00      	cmp	r3, #0
 8003d1e:	f000 8094 	beq.w	8003e4a <HAL_DMA_IRQHandler+0x1e6>
    {
      /* Half transfer callback */
      hdma->XferHalfCpltCallback(hdma);
 8003d22:	687b      	ldr	r3, [r7, #4]
 8003d24:	6adb      	ldr	r3, [r3, #44]	@ 0x2c
 8003d26:	6878      	ldr	r0, [r7, #4]
 8003d28:	4798      	blx	r3
    if(hdma->XferHalfCpltCallback != NULL)
 8003d2a:	e08e      	b.n	8003e4a <HAL_DMA_IRQHandler+0x1e6>
    }
  }

  /* Transfer Complete Interrupt management ***********************************/
  else if (((flag_it & (DMA_FLAG_TC1 << hdma->ChannelIndex)) != RESET) && ((source_it & DMA_IT_TC) != RESET))
 8003d2c:	687b      	ldr	r3, [r7, #4]
 8003d2e:	6c1b      	ldr	r3, [r3, #64]	@ 0x40
 8003d30:	2202      	movs	r2, #2
 8003d32:	409a      	lsls	r2, r3
 8003d34:	68fb      	ldr	r3, [r7, #12]
 8003d36:	4013      	ands	r3, r2
 8003d38:	2b00      	cmp	r3, #0
 8003d3a:	d056      	beq.n	8003dea <HAL_DMA_IRQHandler+0x186>
 8003d3c:	68bb      	ldr	r3, [r7, #8]
 8003d3e:	f003 0302 	and.w	r3, r3, #2
 8003d42:	2b00      	cmp	r3, #0
 8003d44:	d051      	beq.n	8003dea <HAL_DMA_IRQHandler+0x186>
  {
    if((hdma->Instance->CCR & DMA_CCR_CIRC) == 0U)
 8003d46:	687b      	ldr	r3, [r7, #4]
 8003d48:	681b      	ldr	r3, [r3, #0]
 8003d4a:	681b      	ldr	r3, [r3, #0]
 8003d4c:	f003 0320 	and.w	r3, r3, #32
 8003d50:	2b00      	cmp	r3, #0
 8003d52:	d10b      	bne.n	8003d6c <HAL_DMA_IRQHandler+0x108>
    {
      /* Disable the transfer complete and error interrupt */
      __HAL_DMA_DISABLE_IT(hdma, DMA_IT_TE | DMA_IT_TC);  
 8003d54:	687b      	ldr	r3, [r7, #4]
 8003d56:	681b      	ldr	r3, [r3, #0]
 8003d58:	681a      	ldr	r2, [r3, #0]
 8003d5a:	687b      	ldr	r3, [r7, #4]
 8003d5c:	681b      	ldr	r3, [r3, #0]
 8003d5e:	f022 020a 	bic.w	r2, r2, #10
 8003d62:	601a      	str	r2, [r3, #0]

      /* Change the DMA state */
      hdma->State = HAL_DMA_STATE_READY;
 8003d64:	687b      	ldr	r3, [r7, #4]
 8003d66:	2201      	movs	r2, #1
 8003d68:	f883 2021 	strb.w	r2, [r3, #33]	@ 0x21
    }
    /* Clear the transfer complete flag */
      __HAL_DMA_CLEAR_FLAG(hdma, __HAL_DMA_GET_TC_FLAG_INDEX(hdma));
 8003d6c:	687b      	ldr	r3, [r7, #4]
 8003d6e:	681b      	ldr	r3, [r3, #0]
 8003d70:	4a38      	ldr	r2, [pc, #224]	@ (8003e54 <HAL_DMA_IRQHandler+0x1f0>)
 8003d72:	4293      	cmp	r3, r2
 8003d74:	d029      	beq.n	8003dca <HAL_DMA_IRQHandler+0x166>
 8003d76:	687b      	ldr	r3, [r7, #4]
 8003d78:	681b      	ldr	r3, [r3, #0]
 8003d7a:	4a37      	ldr	r2, [pc, #220]	@ (8003e58 <HAL_DMA_IRQHandler+0x1f4>)
 8003d7c:	4293      	cmp	r3, r2
 8003d7e:	d022      	beq.n	8003dc6 <HAL_DMA_IRQHandler+0x162>
 8003d80:	687b      	ldr	r3, [r7, #4]
 8003d82:	681b      	ldr	r3, [r3, #0]
 8003d84:	4a35      	ldr	r2, [pc, #212]	@ (8003e5c <HAL_DMA_IRQHandler+0x1f8>)
 8003d86:	4293      	cmp	r3, r2
 8003d88:	d01a      	beq.n	8003dc0 <HAL_DMA_IRQHandler+0x15c>
 8003d8a:	687b      	ldr	r3, [r7, #4]
 8003d8c:	681b      	ldr	r3, [r3, #0]
 8003d8e:	4a34      	ldr	r2, [pc, #208]	@ (8003e60 <HAL_DMA_IRQHandler+0x1fc>)
 8003d90:	4293      	cmp	r3, r2
 8003d92:	d012      	beq.n	8003dba <HAL_DMA_IRQHandler+0x156>
 8003d94:	687b      	ldr	r3, [r7, #4]
 8003d96:	681b      	ldr	r3, [r3, #0]
 8003d98:	4a32      	ldr	r2, [pc, #200]	@ (8003e64 <HAL_DMA_IRQHandler+0x200>)
 8003d9a:	4293      	cmp	r3, r2
 8003d9c:	d00a      	beq.n	8003db4 <HAL_DMA_IRQHandler+0x150>
 8003d9e:	687b      	ldr	r3, [r7, #4]
 8003da0:	681b      	ldr	r3, [r3, #0]
 8003da2:	4a31      	ldr	r2, [pc, #196]	@ (8003e68 <HAL_DMA_IRQHandler+0x204>)
 8003da4:	4293      	cmp	r3, r2
 8003da6:	d102      	bne.n	8003dae <HAL_DMA_IRQHandler+0x14a>
 8003da8:	f44f 1300 	mov.w	r3, #2097152	@ 0x200000
 8003dac:	e00e      	b.n	8003dcc <HAL_DMA_IRQHandler+0x168>
 8003dae:	f04f 7300 	mov.w	r3, #33554432	@ 0x2000000
 8003db2:	e00b      	b.n	8003dcc <HAL_DMA_IRQHandler+0x168>
 8003db4:	f44f 3300 	mov.w	r3, #131072	@ 0x20000
 8003db8:	e008      	b.n	8003dcc <HAL_DMA_IRQHandler+0x168>
 8003dba:	f44f 5300 	mov.w	r3, #8192	@ 0x2000
 8003dbe:	e005      	b.n	8003dcc <HAL_DMA_IRQHandler+0x168>
 8003dc0:	f44f 7300 	mov.w	r3, #512	@ 0x200
 8003dc4:	e002      	b.n	8003dcc <HAL_DMA_IRQHandler+0x168>
 8003dc6:	2320      	movs	r3, #32
 8003dc8:	e000      	b.n	8003dcc <HAL_DMA_IRQHandler+0x168>
 8003dca:	2302      	movs	r3, #2
 8003dcc:	4a27      	ldr	r2, [pc, #156]	@ (8003e6c <HAL_DMA_IRQHandler+0x208>)
 8003dce:	6053      	str	r3, [r2, #4]

    /* Process Unlocked */
    __HAL_UNLOCK(hdma);
 8003dd0:	687b      	ldr	r3, [r7, #4]
 8003dd2:	2200      	movs	r2, #0
 8003dd4:	f883 2020 	strb.w	r2, [r3, #32]

    if(hdma->XferCpltCallback != NULL)
 8003dd8:	687b      	ldr	r3, [r7, #4]
 8003dda:	6a9b      	ldr	r3, [r3, #40]	@ 0x28
 8003ddc:	2b00      	cmp	r3, #0
 8003dde:	d034      	beq.n	8003e4a <HAL_DMA_IRQHandler+0x1e6>
    {
      /* Transfer complete callback */
      hdma->XferCpltCallback(hdma);
 8003de0:	687b      	ldr	r3, [r7, #4]
 8003de2:	6a9b      	ldr	r3, [r3, #40]	@ 0x28
 8003de4:	6878      	ldr	r0, [r7, #4]
 8003de6:	4798      	blx	r3
    if(hdma->XferCpltCallback != NULL)
 8003de8:	e02f      	b.n	8003e4a <HAL_DMA_IRQHandler+0x1e6>
    }
  }

  /* Transfer Error Interrupt management **************************************/
  else if (( RESET != (flag_it & (DMA_FLAG_TE1 << hdma->ChannelIndex))) && (RESET != (source_it & DMA_IT_TE)))
 8003dea:	687b      	ldr	r3, [r7, #4]
 8003dec:	6c1b      	ldr	r3, [r3, #64]	@ 0x40
 8003dee:	2208      	movs	r2, #8
 8003df0:	409a      	lsls	r2, r3
 8003df2:	68fb      	ldr	r3, [r7, #12]
 8003df4:	4013      	ands	r3, r2
 8003df6:	2b00      	cmp	r3, #0
 8003df8:	d028      	beq.n	8003e4c <HAL_DMA_IRQHandler+0x1e8>
 8003dfa:	68bb      	ldr	r3, [r7, #8]
 8003dfc:	f003 0308 	and.w	r3, r3, #8
 8003e00:	2b00      	cmp	r3, #0
 8003e02:	d023      	beq.n	8003e4c <HAL_DMA_IRQHandler+0x1e8>
  {
    /* When a DMA transfer error occurs */
    /* A hardware clear of its EN bits is performed */
    /* Disable ALL DMA IT */
    __HAL_DMA_DISABLE_IT(hdma, (DMA_IT_TC | DMA_IT_HT | DMA_IT_TE));
 8003e04:	687b      	ldr	r3, [r7, #4]
 8003e06:	681b      	ldr	r3, [r3, #0]
 8003e08:	681a      	ldr	r2, [r3, #0]
 8003e0a:	687b      	ldr	r3, [r7, #4]
 8003e0c:	681b      	ldr	r3, [r3, #0]
 8003e0e:	f022 020e 	bic.w	r2, r2, #14
 8003e12:	601a      	str	r2, [r3, #0]

    /* Clear all flags */
    hdma->DmaBaseAddress->IFCR = (DMA_ISR_GIF1 << hdma->ChannelIndex);
 8003e14:	687b      	ldr	r3, [r7, #4]
 8003e16:	6c1a      	ldr	r2, [r3, #64]	@ 0x40
 8003e18:	687b      	ldr	r3, [r7, #4]
 8003e1a:	6bdb      	ldr	r3, [r3, #60]	@ 0x3c
 8003e1c:	2101      	movs	r1, #1
 8003e1e:	fa01 f202 	lsl.w	r2, r1, r2
 8003e22:	605a      	str	r2, [r3, #4]

    /* Update error code */
    hdma->ErrorCode = HAL_DMA_ERROR_TE;
 8003e24:	687b      	ldr	r3, [r7, #4]
 8003e26:	2201      	movs	r2, #1
 8003e28:	639a      	str	r2, [r3, #56]	@ 0x38

    /* Change the DMA state */
    hdma->State = HAL_DMA_STATE_READY;
 8003e2a:	687b      	ldr	r3, [r7, #4]
 8003e2c:	2201      	movs	r2, #1
 8003e2e:	f883 2021 	strb.w	r2, [r3, #33]	@ 0x21

    /* Process Unlocked */
    __HAL_UNLOCK(hdma);
 8003e32:	687b      	ldr	r3, [r7, #4]
 8003e34:	2200      	movs	r2, #0
 8003e36:	f883 2020 	strb.w	r2, [r3, #32]

    if (hdma->XferErrorCallback != NULL)
 8003e3a:	687b      	ldr	r3, [r7, #4]
 8003e3c:	6b1b      	ldr	r3, [r3, #48]	@ 0x30
 8003e3e:	2b00      	cmp	r3, #0
 8003e40:	d004      	beq.n	8003e4c <HAL_DMA_IRQHandler+0x1e8>
    {
      /* Transfer error callback */
      hdma->XferErrorCallback(hdma);
 8003e42:	687b      	ldr	r3, [r7, #4]
 8003e44:	6b1b      	ldr	r3, [r3, #48]	@ 0x30
 8003e46:	6878      	ldr	r0, [r7, #4]
 8003e48:	4798      	blx	r3
    }
  }
  return;
 8003e4a:	bf00      	nop
 8003e4c:	bf00      	nop
}
 8003e4e:	3710      	adds	r7, #16
 8003e50:	46bd      	mov	sp, r7
 8003e52:	bd80      	pop	{r7, pc}
 8003e54:	40020008 	.word	0x40020008
 8003e58:	4002001c 	.word	0x4002001c
 8003e5c:	40020030 	.word	0x40020030
 8003e60:	40020044 	.word	0x40020044
 8003e64:	40020058 	.word	0x40020058
 8003e68:	4002006c 	.word	0x4002006c
 8003e6c:	40020000 	.word	0x40020000

08003e70 <DMA_SetConfig>:
  * @param  DstAddress: The destination memory Buffer address
  * @param  DataLength: The length of data to be transferred from source to destination
  * @retval HAL status
  */
static void DMA_SetConfig(DMA_HandleTypeDef *hdma, uint32_t SrcAddress, uint32_t DstAddress, uint32_t DataLength)
{
 8003e70:	b480      	push	{r7}
 8003e72:	b085      	sub	sp, #20
 8003e74:	af00      	add	r7, sp, #0
 8003e76:	60f8      	str	r0, [r7, #12]
 8003e78:	60b9      	str	r1, [r7, #8]
 8003e7a:	607a      	str	r2, [r7, #4]
 8003e7c:	603b      	str	r3, [r7, #0]
  /* Clear all flags */
  hdma->DmaBaseAddress->IFCR = (DMA_ISR_GIF1 << hdma->ChannelIndex);
 8003e7e:	68fb      	ldr	r3, [r7, #12]
 8003e80:	6c1a      	ldr	r2, [r3, #64]	@ 0x40
 8003e82:	68fb      	ldr	r3, [r7, #12]
 8003e84:	6bdb      	ldr	r3, [r3, #60]	@ 0x3c
 8003e86:	2101      	movs	r1, #1
 8003e88:	fa01 f202 	lsl.w	r2, r1, r2
 8003e8c:	605a      	str	r2, [r3, #4]

  /* Configure DMA Channel data length */
  hdma->Instance->CNDTR = DataLength;
 8003e8e:	68fb      	ldr	r3, [r7, #12]
 8003e90:	681b      	ldr	r3, [r3, #0]
 8003e92:	683a      	ldr	r2, [r7, #0]
 8003e94:	605a      	str	r2, [r3, #4]

  /* Memory to Peripheral */
  if((hdma->Init.Direction) == DMA_MEMORY_TO_PERIPH)
 8003e96:	68fb      	ldr	r3, [r7, #12]
 8003e98:	685b      	ldr	r3, [r3, #4]
 8003e9a:	2b10      	cmp	r3, #16
 8003e9c:	d108      	bne.n	8003eb0 <DMA_SetConfig+0x40>
  {
    /* Configure DMA Channel destination address */
    hdma->Instance->CPAR = DstAddress;
 8003e9e:	68fb      	ldr	r3, [r7, #12]
 8003ea0:	681b      	ldr	r3, [r3, #0]
 8003ea2:	687a      	ldr	r2, [r7, #4]
 8003ea4:	609a      	str	r2, [r3, #8]

    /* Configure DMA Channel source address */
    hdma->Instance->CMAR = SrcAddress;
 8003ea6:	68fb      	ldr	r3, [r7, #12]
 8003ea8:	681b      	ldr	r3, [r3, #0]
 8003eaa:	68ba      	ldr	r2, [r7, #8]
 8003eac:	60da      	str	r2, [r3, #12]
    hdma->Instance->CPAR = SrcAddress;

    /* Configure DMA Channel destination address */
    hdma->Instance->CMAR = DstAddress;
  }
}
 8003eae:	e007      	b.n	8003ec0 <DMA_SetConfig+0x50>
    hdma->Instance->CPAR = SrcAddress;
 8003eb0:	68fb      	ldr	r3, [r7, #12]
 8003eb2:	681b      	ldr	r3, [r3, #0]
 8003eb4:	68ba      	ldr	r2, [r7, #8]
 8003eb6:	609a      	str	r2, [r3, #8]
    hdma->Instance->CMAR = DstAddress;
 8003eb8:	68fb      	ldr	r3, [r7, #12]
 8003eba:	681b      	ldr	r3, [r3, #0]
 8003ebc:	687a      	ldr	r2, [r7, #4]
 8003ebe:	60da      	str	r2, [r3, #12]
}
 8003ec0:	bf00      	nop
 8003ec2:	3714      	adds	r7, #20
 8003ec4:	46bd      	mov	sp, r7
 8003ec6:	bc80      	pop	{r7}
 8003ec8:	4770      	bx	lr
	...

08003ecc <HAL_GPIO_Init>:
  * @param  GPIO_Init: pointer to a GPIO_InitTypeDef structure that contains
  *         the configuration information for the specified GPIO peripheral.
  * @retval None
  */
void HAL_GPIO_Init(GPIO_TypeDef  *GPIOx, GPIO_InitTypeDef *GPIO_Init)
{
 8003ecc:	b480      	push	{r7}
 8003ece:	b08b      	sub	sp, #44	@ 0x2c
 8003ed0:	af00      	add	r7, sp, #0
 8003ed2:	6078      	str	r0, [r7, #4]
 8003ed4:	6039      	str	r1, [r7, #0]
  uint32_t position = 0x00u;
 8003ed6:	2300      	movs	r3, #0
 8003ed8:	627b      	str	r3, [r7, #36]	@ 0x24
  uint32_t ioposition;
  uint32_t iocurrent;
  uint32_t temp;
  uint32_t config = 0x00u;
 8003eda:	2300      	movs	r3, #0
 8003edc:	623b      	str	r3, [r7, #32]
  assert_param(IS_GPIO_ALL_INSTANCE(GPIOx));
  assert_param(IS_GPIO_PIN(GPIO_Init->Pin));
  assert_param(IS_GPIO_MODE(GPIO_Init->Mode));

  /* Configure the port pins */
  while (((GPIO_Init->Pin) >> position) != 0x00u)
 8003ede:	e169      	b.n	80041b4 <HAL_GPIO_Init+0x2e8>
  {
    /* Get the IO position */
    ioposition = (0x01uL << position);
 8003ee0:	2201      	movs	r2, #1
 8003ee2:	6a7b      	ldr	r3, [r7, #36]	@ 0x24
 8003ee4:	fa02 f303 	lsl.w	r3, r2, r3
 8003ee8:	61fb      	str	r3, [r7, #28]

    /* Get the current IO position */
    iocurrent = (uint32_t)(GPIO_Init->Pin) & ioposition;
 8003eea:	683b      	ldr	r3, [r7, #0]
 8003eec:	681b      	ldr	r3, [r3, #0]
 8003eee:	69fa      	ldr	r2, [r7, #28]
 8003ef0:	4013      	ands	r3, r2
 8003ef2:	61bb      	str	r3, [r7, #24]

    if (iocurrent == ioposition)
 8003ef4:	69ba      	ldr	r2, [r7, #24]
 8003ef6:	69fb      	ldr	r3, [r7, #28]
 8003ef8:	429a      	cmp	r2, r3
 8003efa:	f040 8158 	bne.w	80041ae <HAL_GPIO_Init+0x2e2>
    {
      /* Check the Alternate function parameters */
      assert_param(IS_GPIO_AF_INSTANCE(GPIOx));

      /* Based on the required mode, filling config variable with MODEy[1:0] and CNFy[3:2] corresponding bits */
      switch (GPIO_Init->Mode)
 8003efe:	683b      	ldr	r3, [r7, #0]
 8003f00:	685b      	ldr	r3, [r3, #4]
 8003f02:	4a9a      	ldr	r2, [pc, #616]	@ (800416c <HAL_GPIO_Init+0x2a0>)
 8003f04:	4293      	cmp	r3, r2
 8003f06:	d05e      	beq.n	8003fc6 <HAL_GPIO_Init+0xfa>
 8003f08:	4a98      	ldr	r2, [pc, #608]	@ (800416c <HAL_GPIO_Init+0x2a0>)
 8003f0a:	4293      	cmp	r3, r2
 8003f0c:	d875      	bhi.n	8003ffa <HAL_GPIO_Init+0x12e>
 8003f0e:	4a98      	ldr	r2, [pc, #608]	@ (8004170 <HAL_GPIO_Init+0x2a4>)
 8003f10:	4293      	cmp	r3, r2
 8003f12:	d058      	beq.n	8003fc6 <HAL_GPIO_Init+0xfa>
 8003f14:	4a96      	ldr	r2, [pc, #600]	@ (8004170 <HAL_GPIO_Init+0x2a4>)
 8003f16:	4293      	cmp	r3, r2
 8003f18:	d86f      	bhi.n	8003ffa <HAL_GPIO_Init+0x12e>
 8003f1a:	4a96      	ldr	r2, [pc, #600]	@ (8004174 <HAL_GPIO_Init+0x2a8>)
 8003f1c:	4293      	cmp	r3, r2
 8003f1e:	d052      	beq.n	8003fc6 <HAL_GPIO_Init+0xfa>
 8003f20:	4a94      	ldr	r2, [pc, #592]	@ (8004174 <HAL_GPIO_Init+0x2a8>)
 8003f22:	4293      	cmp	r3, r2
 8003f24:	d869      	bhi.n	8003ffa <HAL_GPIO_Init+0x12e>
 8003f26:	4a94      	ldr	r2, [pc, #592]	@ (8004178 <HAL_GPIO_Init+0x2ac>)
 8003f28:	4293      	cmp	r3, r2
 8003f2a:	d04c      	beq.n	8003fc6 <HAL_GPIO_Init+0xfa>
 8003f2c:	4a92      	ldr	r2, [pc, #584]	@ (8004178 <HAL_GPIO_Init+0x2ac>)
 8003f2e:	4293      	cmp	r3, r2
 8003f30:	d863      	bhi.n	8003ffa <HAL_GPIO_Init+0x12e>
 8003f32:	4a92      	ldr	r2, [pc, #584]	@ (800417c <HAL_GPIO_Init+0x2b0>)
 8003f34:	4293      	cmp	r3, r2
 8003f36:	d046      	beq.n	8003fc6 <HAL_GPIO_Init+0xfa>
 8003f38:	4a90      	ldr	r2, [pc, #576]	@ (800417c <HAL_GPIO_Init+0x2b0>)
 8003f3a:	4293      	cmp	r3, r2
 8003f3c:	d85d      	bhi.n	8003ffa <HAL_GPIO_Init+0x12e>
 8003f3e:	2b12      	cmp	r3, #18
 8003f40:	d82a      	bhi.n	8003f98 <HAL_GPIO_Init+0xcc>
 8003f42:	2b12      	cmp	r3, #18
 8003f44:	d859      	bhi.n	8003ffa <HAL_GPIO_Init+0x12e>
 8003f46:	a201      	add	r2, pc, #4	@ (adr r2, 8003f4c <HAL_GPIO_Init+0x80>)
 8003f48:	f852 f023 	ldr.w	pc, [r2, r3, lsl #2]
 8003f4c:	08003fc7 	.word	0x08003fc7
 8003f50:	08003fa1 	.word	0x08003fa1
 8003f54:	08003fb3 	.word	0x08003fb3
 8003f58:	08003ff5 	.word	0x08003ff5
 8003f5c:	08003ffb 	.word	0x08003ffb
 8003f60:	08003ffb 	.word	0x08003ffb
 8003f64:	08003ffb 	.word	0x08003ffb
 8003f68:	08003ffb 	.word	0x08003ffb
 8003f6c:	08003ffb 	.word	0x08003ffb
 8003f70:	08003ffb 	.word	0x08003ffb
 8003f74:	08003ffb 	.word	0x08003ffb
 8003f78:	08003ffb 	.word	0x08003ffb
 8003f7c:	08003ffb 	.word	0x08003ffb
 8003f80:	08003ffb 	.word	0x08003ffb
 8003f84:	08003ffb 	.word	0x08003ffb
 8003f88:	08003ffb 	.word	0x08003ffb
 8003f8c:	08003ffb 	.word	0x08003ffb
 8003f90:	08003fa9 	.word	0x08003fa9
 8003f94:	08003fbd 	.word	0x08003fbd
 8003f98:	4a79      	ldr	r2, [pc, #484]	@ (8004180 <HAL_GPIO_Init+0x2b4>)
 8003f9a:	4293      	cmp	r3, r2
 8003f9c:	d013      	beq.n	8003fc6 <HAL_GPIO_Init+0xfa>
          config = GPIO_CR_MODE_INPUT + GPIO_CR_CNF_ANALOG;
          break;

        /* Parameters are checked with assert_param */
        default:
          break;
 8003f9e:	e02c      	b.n	8003ffa <HAL_GPIO_Init+0x12e>
          config = GPIO_Init->Speed + GPIO_CR_CNF_GP_OUTPUT_PP;
 8003fa0:	683b      	ldr	r3, [r7, #0]
 8003fa2:	68db      	ldr	r3, [r3, #12]
 8003fa4:	623b      	str	r3, [r7, #32]
          break;
 8003fa6:	e029      	b.n	8003ffc <HAL_GPIO_Init+0x130>
          config = GPIO_Init->Speed + GPIO_CR_CNF_GP_OUTPUT_OD;
 8003fa8:	683b      	ldr	r3, [r7, #0]
 8003faa:	68db      	ldr	r3, [r3, #12]
 8003fac:	3304      	adds	r3, #4
 8003fae:	623b      	str	r3, [r7, #32]
          break;
 8003fb0:	e024      	b.n	8003ffc <HAL_GPIO_Init+0x130>
          config = GPIO_Init->Speed + GPIO_CR_CNF_AF_OUTPUT_PP;
 8003fb2:	683b      	ldr	r3, [r7, #0]
 8003fb4:	68db      	ldr	r3, [r3, #12]
 8003fb6:	3308      	adds	r3, #8
 8003fb8:	623b      	str	r3, [r7, #32]
          break;
 8003fba:	e01f      	b.n	8003ffc <HAL_GPIO_Init+0x130>
          config = GPIO_Init->Speed + GPIO_CR_CNF_AF_OUTPUT_OD;
 8003fbc:	683b      	ldr	r3, [r7, #0]
 8003fbe:	68db      	ldr	r3, [r3, #12]
 8003fc0:	330c      	adds	r3, #12
 8003fc2:	623b      	str	r3, [r7, #32]
          break;
 8003fc4:	e01a      	b.n	8003ffc <HAL_GPIO_Init+0x130>
          if (GPIO_Init->Pull == GPIO_NOPULL)
 8003fc6:	683b      	ldr	r3, [r7, #0]
 8003fc8:	689b      	ldr	r3, [r3, #8]
 8003fca:	2b00      	cmp	r3, #0
 8003fcc:	d102      	bne.n	8003fd4 <HAL_GPIO_Init+0x108>
            config = GPIO_CR_MODE_INPUT + GPIO_CR_CNF_INPUT_FLOATING;
 8003fce:	2304      	movs	r3, #4
 8003fd0:	623b      	str	r3, [r7, #32]
          break;
 8003fd2:	e013      	b.n	8003ffc <HAL_GPIO_Init+0x130>
          else if (GPIO_Init->Pull == GPIO_PULLUP)
 8003fd4:	683b      	ldr	r3, [r7, #0]
 8003fd6:	689b      	ldr	r3, [r3, #8]
 8003fd8:	2b01      	cmp	r3, #1
 8003fda:	d105      	bne.n	8003fe8 <HAL_GPIO_Init+0x11c>
            config = GPIO_CR_MODE_INPUT + GPIO_CR_CNF_INPUT_PU_PD;
 8003fdc:	2308      	movs	r3, #8
 8003fde:	623b      	str	r3, [r7, #32]
            GPIOx->BSRR = ioposition;
 8003fe0:	687b      	ldr	r3, [r7, #4]
 8003fe2:	69fa      	ldr	r2, [r7, #28]
 8003fe4:	611a      	str	r2, [r3, #16]
          break;
 8003fe6:	e009      	b.n	8003ffc <HAL_GPIO_Init+0x130>
            config = GPIO_CR_MODE_INPUT + GPIO_CR_CNF_INPUT_PU_PD;
 8003fe8:	2308      	movs	r3, #8
 8003fea:	623b      	str	r3, [r7, #32]
            GPIOx->BRR = ioposition;
 8003fec:	687b      	ldr	r3, [r7, #4]
 8003fee:	69fa      	ldr	r2, [r7, #28]
 8003ff0:	615a      	str	r2, [r3, #20]
          break;
 8003ff2:	e003      	b.n	8003ffc <HAL_GPIO_Init+0x130>
          config = GPIO_CR_MODE_INPUT + GPIO_CR_CNF_ANALOG;
 8003ff4:	2300      	movs	r3, #0
 8003ff6:	623b      	str	r3, [r7, #32]
          break;
 8003ff8:	e000      	b.n	8003ffc <HAL_GPIO_Init+0x130>
          break;
 8003ffa:	bf00      	nop
      }

      /* Check if the current bit belongs to first half or last half of the pin count number
       in order to address CRH or CRL register*/
      configregister = (iocurrent < GPIO_PIN_8) ? &GPIOx->CRL     : &GPIOx->CRH;
 8003ffc:	69bb      	ldr	r3, [r7, #24]
 8003ffe:	2bff      	cmp	r3, #255	@ 0xff
 8004000:	d801      	bhi.n	8004006 <HAL_GPIO_Init+0x13a>
 8004002:	687b      	ldr	r3, [r7, #4]
 8004004:	e001      	b.n	800400a <HAL_GPIO_Init+0x13e>
 8004006:	687b      	ldr	r3, [r7, #4]
 8004008:	3304      	adds	r3, #4
 800400a:	617b      	str	r3, [r7, #20]
      registeroffset = (iocurrent < GPIO_PIN_8) ? (position << 2u) : ((position - 8u) << 2u);
 800400c:	69bb      	ldr	r3, [r7, #24]
 800400e:	2bff      	cmp	r3, #255	@ 0xff
 8004010:	d802      	bhi.n	8004018 <HAL_GPIO_Init+0x14c>
 8004012:	6a7b      	ldr	r3, [r7, #36]	@ 0x24
 8004014:	009b      	lsls	r3, r3, #2
 8004016:	e002      	b.n	800401e <HAL_GPIO_Init+0x152>
 8004018:	6a7b      	ldr	r3, [r7, #36]	@ 0x24
 800401a:	3b08      	subs	r3, #8
 800401c:	009b      	lsls	r3, r3, #2
 800401e:	613b      	str	r3, [r7, #16]

      /* Apply the new configuration of the pin to the register */
      MODIFY_REG((*configregister), ((GPIO_CRL_MODE0 | GPIO_CRL_CNF0) << registeroffset), (config << registeroffset));
 8004020:	697b      	ldr	r3, [r7, #20]
 8004022:	681a      	ldr	r2, [r3, #0]
 8004024:	210f      	movs	r1, #15
 8004026:	693b      	ldr	r3, [r7, #16]
 8004028:	fa01 f303 	lsl.w	r3, r1, r3
 800402c:	43db      	mvns	r3, r3
 800402e:	401a      	ands	r2, r3
 8004030:	6a39      	ldr	r1, [r7, #32]
 8004032:	693b      	ldr	r3, [r7, #16]
 8004034:	fa01 f303 	lsl.w	r3, r1, r3
 8004038:	431a      	orrs	r2, r3
 800403a:	697b      	ldr	r3, [r7, #20]
 800403c:	601a      	str	r2, [r3, #0]

      /*--------------------- EXTI Mode Configuration ------------------------*/
      /* Configure the External Interrupt or event for the current IO */
      if ((GPIO_Init->Mode & EXTI_MODE) == EXTI_MODE)
 800403e:	683b      	ldr	r3, [r7, #0]
 8004040:	685b      	ldr	r3, [r3, #4]
 8004042:	f003 5380 	and.w	r3, r3, #268435456	@ 0x10000000
 8004046:	2b00      	cmp	r3, #0
 8004048:	f000 80b1 	beq.w	80041ae <HAL_GPIO_Init+0x2e2>
      {
        /* Enable AFIO Clock */
        __HAL_RCC_AFIO_CLK_ENABLE();
 800404c:	4b4d      	ldr	r3, [pc, #308]	@ (8004184 <HAL_GPIO_Init+0x2b8>)
 800404e:	699b      	ldr	r3, [r3, #24]
 8004050:	4a4c      	ldr	r2, [pc, #304]	@ (8004184 <HAL_GPIO_Init+0x2b8>)
 8004052:	f043 0301 	orr.w	r3, r3, #1
 8004056:	6193      	str	r3, [r2, #24]
 8004058:	4b4a      	ldr	r3, [pc, #296]	@ (8004184 <HAL_GPIO_Init+0x2b8>)
 800405a:	699b      	ldr	r3, [r3, #24]
 800405c:	f003 0301 	and.w	r3, r3, #1
 8004060:	60bb      	str	r3, [r7, #8]
 8004062:	68bb      	ldr	r3, [r7, #8]
        temp = AFIO->EXTICR[position >> 2u];
 8004064:	4a48      	ldr	r2, [pc, #288]	@ (8004188 <HAL_GPIO_Init+0x2bc>)
 8004066:	6a7b      	ldr	r3, [r7, #36]	@ 0x24
 8004068:	089b      	lsrs	r3, r3, #2
 800406a:	3302      	adds	r3, #2
 800406c:	f852 3023 	ldr.w	r3, [r2, r3, lsl #2]
 8004070:	60fb      	str	r3, [r7, #12]
        CLEAR_BIT(temp, (0x0Fu) << (4u * (position & 0x03u)));
 8004072:	6a7b      	ldr	r3, [r7, #36]	@ 0x24
 8004074:	f003 0303 	and.w	r3, r3, #3
 8004078:	009b      	lsls	r3, r3, #2
 800407a:	220f      	movs	r2, #15
 800407c:	fa02 f303 	lsl.w	r3, r2, r3
 8004080:	43db      	mvns	r3, r3
 8004082:	68fa      	ldr	r2, [r7, #12]
 8004084:	4013      	ands	r3, r2
 8004086:	60fb      	str	r3, [r7, #12]
        SET_BIT(temp, (GPIO_GET_INDEX(GPIOx)) << (4u * (position & 0x03u)));
 8004088:	687b      	ldr	r3, [r7, #4]
 800408a:	4a40      	ldr	r2, [pc, #256]	@ (800418c <HAL_GPIO_Init+0x2c0>)
 800408c:	4293      	cmp	r3, r2
 800408e:	d013      	beq.n	80040b8 <HAL_GPIO_Init+0x1ec>
 8004090:	687b      	ldr	r3, [r7, #4]
 8004092:	4a3f      	ldr	r2, [pc, #252]	@ (8004190 <HAL_GPIO_Init+0x2c4>)
 8004094:	4293      	cmp	r3, r2
 8004096:	d00d      	beq.n	80040b4 <HAL_GPIO_Init+0x1e8>
 8004098:	687b      	ldr	r3, [r7, #4]
 800409a:	4a3e      	ldr	r2, [pc, #248]	@ (8004194 <HAL_GPIO_Init+0x2c8>)
 800409c:	4293      	cmp	r3, r2
 800409e:	d007      	beq.n	80040b0 <HAL_GPIO_Init+0x1e4>
 80040a0:	687b      	ldr	r3, [r7, #4]
 80040a2:	4a3d      	ldr	r2, [pc, #244]	@ (8004198 <HAL_GPIO_Init+0x2cc>)
 80040a4:	4293      	cmp	r3, r2
 80040a6:	d101      	bne.n	80040ac <HAL_GPIO_Init+0x1e0>
 80040a8:	2303      	movs	r3, #3
 80040aa:	e006      	b.n	80040ba <HAL_GPIO_Init+0x1ee>
 80040ac:	2304      	movs	r3, #4
 80040ae:	e004      	b.n	80040ba <HAL_GPIO_Init+0x1ee>
 80040b0:	2302      	movs	r3, #2
 80040b2:	e002      	b.n	80040ba <HAL_GPIO_Init+0x1ee>
 80040b4:	2301      	movs	r3, #1
 80040b6:	e000      	b.n	80040ba <HAL_GPIO_Init+0x1ee>
 80040b8:	2300      	movs	r3, #0
 80040ba:	6a7a      	ldr	r2, [r7, #36]	@ 0x24
 80040bc:	f002 0203 	and.w	r2, r2, #3
 80040c0:	0092      	lsls	r2, r2, #2
 80040c2:	4093      	lsls	r3, r2
 80040c4:	68fa      	ldr	r2, [r7, #12]
 80040c6:	4313      	orrs	r3, r2
 80040c8:	60fb      	str	r3, [r7, #12]
        AFIO->EXTICR[position >> 2u] = temp;
 80040ca:	492f      	ldr	r1, [pc, #188]	@ (8004188 <HAL_GPIO_Init+0x2bc>)
 80040cc:	6a7b      	ldr	r3, [r7, #36]	@ 0x24
 80040ce:	089b      	lsrs	r3, r3, #2
 80040d0:	3302      	adds	r3, #2
 80040d2:	68fa      	ldr	r2, [r7, #12]
 80040d4:	f841 2023 	str.w	r2, [r1, r3, lsl #2]


        /* Enable or disable the rising trigger */
        if ((GPIO_Init->Mode & RISING_EDGE) == RISING_EDGE)
 80040d8:	683b      	ldr	r3, [r7, #0]
 80040da:	685b      	ldr	r3, [r3, #4]
 80040dc:	f403 1380 	and.w	r3, r3, #1048576	@ 0x100000
 80040e0:	2b00      	cmp	r3, #0
 80040e2:	d006      	beq.n	80040f2 <HAL_GPIO_Init+0x226>
        {
          SET_BIT(EXTI->RTSR, iocurrent);
 80040e4:	4b2d      	ldr	r3, [pc, #180]	@ (800419c <HAL_GPIO_Init+0x2d0>)
 80040e6:	689a      	ldr	r2, [r3, #8]
 80040e8:	492c      	ldr	r1, [pc, #176]	@ (800419c <HAL_GPIO_Init+0x2d0>)
 80040ea:	69bb      	ldr	r3, [r7, #24]
 80040ec:	4313      	orrs	r3, r2
 80040ee:	608b      	str	r3, [r1, #8]
 80040f0:	e006      	b.n	8004100 <HAL_GPIO_Init+0x234>
        }
        else
        {
          CLEAR_BIT(EXTI->RTSR, iocurrent);
 80040f2:	4b2a      	ldr	r3, [pc, #168]	@ (800419c <HAL_GPIO_Init+0x2d0>)
 80040f4:	689a      	ldr	r2, [r3, #8]
 80040f6:	69bb      	ldr	r3, [r7, #24]
 80040f8:	43db      	mvns	r3, r3
 80040fa:	4928      	ldr	r1, [pc, #160]	@ (800419c <HAL_GPIO_Init+0x2d0>)
 80040fc:	4013      	ands	r3, r2
 80040fe:	608b      	str	r3, [r1, #8]
        }

        /* Enable or disable the falling trigger */
        if ((GPIO_Init->Mode & FALLING_EDGE) == FALLING_EDGE)
 8004100:	683b      	ldr	r3, [r7, #0]
 8004102:	685b      	ldr	r3, [r3, #4]
 8004104:	f403 1300 	and.w	r3, r3, #2097152	@ 0x200000
 8004108:	2b00      	cmp	r3, #0
 800410a:	d006      	beq.n	800411a <HAL_GPIO_Init+0x24e>
        {
          SET_BIT(EXTI->FTSR, iocurrent);
 800410c:	4b23      	ldr	r3, [pc, #140]	@ (800419c <HAL_GPIO_Init+0x2d0>)
 800410e:	68da      	ldr	r2, [r3, #12]
 8004110:	4922      	ldr	r1, [pc, #136]	@ (800419c <HAL_GPIO_Init+0x2d0>)
 8004112:	69bb      	ldr	r3, [r7, #24]
 8004114:	4313      	orrs	r3, r2
 8004116:	60cb      	str	r3, [r1, #12]
 8004118:	e006      	b.n	8004128 <HAL_GPIO_Init+0x25c>
        }
        else
        {
          CLEAR_BIT(EXTI->FTSR, iocurrent);
 800411a:	4b20      	ldr	r3, [pc, #128]	@ (800419c <HAL_GPIO_Init+0x2d0>)
 800411c:	68da      	ldr	r2, [r3, #12]
 800411e:	69bb      	ldr	r3, [r7, #24]
 8004120:	43db      	mvns	r3, r3
 8004122:	491e      	ldr	r1, [pc, #120]	@ (800419c <HAL_GPIO_Init+0x2d0>)
 8004124:	4013      	ands	r3, r2
 8004126:	60cb      	str	r3, [r1, #12]
        }

        /* Configure the event mask */
        if ((GPIO_Init->Mode & GPIO_MODE_EVT) == GPIO_MODE_EVT)
 8004128:	683b      	ldr	r3, [r7, #0]
 800412a:	685b      	ldr	r3, [r3, #4]
 800412c:	f403 3300 	and.w	r3, r3, #131072	@ 0x20000
 8004130:	2b00      	cmp	r3, #0
 8004132:	d006      	beq.n	8004142 <HAL_GPIO_Init+0x276>
        {
          SET_BIT(EXTI->EMR, iocurrent);
 8004134:	4b19      	ldr	r3, [pc, #100]	@ (800419c <HAL_GPIO_Init+0x2d0>)
 8004136:	685a      	ldr	r2, [r3, #4]
 8004138:	4918      	ldr	r1, [pc, #96]	@ (800419c <HAL_GPIO_Init+0x2d0>)
 800413a:	69bb      	ldr	r3, [r7, #24]
 800413c:	4313      	orrs	r3, r2
 800413e:	604b      	str	r3, [r1, #4]
 8004140:	e006      	b.n	8004150 <HAL_GPIO_Init+0x284>
        }
        else
        {
          CLEAR_BIT(EXTI->EMR, iocurrent);
 8004142:	4b16      	ldr	r3, [pc, #88]	@ (800419c <HAL_GPIO_Init+0x2d0>)
 8004144:	685a      	ldr	r2, [r3, #4]
 8004146:	69bb      	ldr	r3, [r7, #24]
 8004148:	43db      	mvns	r3, r3
 800414a:	4914      	ldr	r1, [pc, #80]	@ (800419c <HAL_GPIO_Init+0x2d0>)
 800414c:	4013      	ands	r3, r2
 800414e:	604b      	str	r3, [r1, #4]
        }

        /* Configure the interrupt mask */
        if ((GPIO_Init->Mode & GPIO_MODE_IT) == GPIO_MODE_IT)
 8004150:	683b      	ldr	r3, [r7, #0]
 8004152:	685b      	ldr	r3, [r3, #4]
 8004154:	f403 3380 	and.w	r3, r3, #65536	@ 0x10000
 8004158:	2b00      	cmp	r3, #0
 800415a:	d021      	beq.n	80041a0 <HAL_GPIO_Init+0x2d4>
        {
          SET_BIT(EXTI->IMR, iocurrent);
 800415c:	4b0f      	ldr	r3, [pc, #60]	@ (800419c <HAL_GPIO_Init+0x2d0>)
 800415e:	681a      	ldr	r2, [r3, #0]
 8004160:	490e      	ldr	r1, [pc, #56]	@ (800419c <HAL_GPIO_Init+0x2d0>)
 8004162:	69bb      	ldr	r3, [r7, #24]
 8004164:	4313      	orrs	r3, r2
 8004166:	600b      	str	r3, [r1, #0]
 8004168:	e021      	b.n	80041ae <HAL_GPIO_Init+0x2e2>
 800416a:	bf00      	nop
 800416c:	10320000 	.word	0x10320000
 8004170:	10310000 	.word	0x10310000
 8004174:	10220000 	.word	0x10220000
 8004178:	10210000 	.word	0x10210000
 800417c:	10120000 	.word	0x10120000
 8004180:	10110000 	.word	0x10110000
 8004184:	40021000 	.word	0x40021000
 8004188:	40010000 	.word	0x40010000
 800418c:	40010800 	.word	0x40010800
 8004190:	40010c00 	.word	0x40010c00
 8004194:	40011000 	.word	0x40011000
 8004198:	40011400 	.word	0x40011400
 800419c:	40010400 	.word	0x40010400
        }
        else
        {
          CLEAR_BIT(EXTI->IMR, iocurrent);
 80041a0:	4b0b      	ldr	r3, [pc, #44]	@ (80041d0 <HAL_GPIO_Init+0x304>)
 80041a2:	681a      	ldr	r2, [r3, #0]
 80041a4:	69bb      	ldr	r3, [r7, #24]
 80041a6:	43db      	mvns	r3, r3
 80041a8:	4909      	ldr	r1, [pc, #36]	@ (80041d0 <HAL_GPIO_Init+0x304>)
 80041aa:	4013      	ands	r3, r2
 80041ac:	600b      	str	r3, [r1, #0]
        }
      }
    }

	position++;
 80041ae:	6a7b      	ldr	r3, [r7, #36]	@ 0x24
 80041b0:	3301      	adds	r3, #1
 80041b2:	627b      	str	r3, [r7, #36]	@ 0x24
  while (((GPIO_Init->Pin) >> position) != 0x00u)
 80041b4:	683b      	ldr	r3, [r7, #0]
 80041b6:	681a      	ldr	r2, [r3, #0]
 80041b8:	6a7b      	ldr	r3, [r7, #36]	@ 0x24
 80041ba:	fa22 f303 	lsr.w	r3, r2, r3
 80041be:	2b00      	cmp	r3, #0
 80041c0:	f47f ae8e 	bne.w	8003ee0 <HAL_GPIO_Init+0x14>
  }
}
 80041c4:	bf00      	nop
 80041c6:	bf00      	nop
 80041c8:	372c      	adds	r7, #44	@ 0x2c
 80041ca:	46bd      	mov	sp, r7
 80041cc:	bc80      	pop	{r7}
 80041ce:	4770      	bx	lr
 80041d0:	40010400 	.word	0x40010400

080041d4 <HAL_GPIO_ReadPin>:
  * @param  GPIO_Pin: specifies the port bit to read.
  *         This parameter can be GPIO_PIN_x where x can be (0..15).
  * @retval The input port pin value.
  */
GPIO_PinState HAL_GPIO_ReadPin(GPIO_TypeDef *GPIOx, uint16_t GPIO_Pin)
{
 80041d4:	b480      	push	{r7}
 80041d6:	b085      	sub	sp, #20
 80041d8:	af00      	add	r7, sp, #0
 80041da:	6078      	str	r0, [r7, #4]
 80041dc:	460b      	mov	r3, r1
 80041de:	807b      	strh	r3, [r7, #2]
  GPIO_PinState bitstatus;

  /* Check the parameters */
  assert_param(IS_GPIO_PIN(GPIO_Pin));

  if ((GPIOx->IDR & GPIO_Pin) != (uint32_t)GPIO_PIN_RESET)
 80041e0:	687b      	ldr	r3, [r7, #4]
 80041e2:	689a      	ldr	r2, [r3, #8]
 80041e4:	887b      	ldrh	r3, [r7, #2]
 80041e6:	4013      	ands	r3, r2
 80041e8:	2b00      	cmp	r3, #0
 80041ea:	d002      	beq.n	80041f2 <HAL_GPIO_ReadPin+0x1e>
  {
    bitstatus = GPIO_PIN_SET;
 80041ec:	2301      	movs	r3, #1
 80041ee:	73fb      	strb	r3, [r7, #15]
 80041f0:	e001      	b.n	80041f6 <HAL_GPIO_ReadPin+0x22>
  }
  else
  {
    bitstatus = GPIO_PIN_RESET;
 80041f2:	2300      	movs	r3, #0
 80041f4:	73fb      	strb	r3, [r7, #15]
  }
  return bitstatus;
 80041f6:	7bfb      	ldrb	r3, [r7, #15]
}
 80041f8:	4618      	mov	r0, r3
 80041fa:	3714      	adds	r7, #20
 80041fc:	46bd      	mov	sp, r7
 80041fe:	bc80      	pop	{r7}
 8004200:	4770      	bx	lr

08004202 <HAL_GPIO_WritePin>:
  *            @arg GPIO_PIN_RESET: to clear the port pin
  *            @arg GPIO_PIN_SET: to set the port pin
  * @retval None
  */
void HAL_GPIO_WritePin(GPIO_TypeDef *GPIOx, uint16_t GPIO_Pin, GPIO_PinState PinState)
{
 8004202:	b480      	push	{r7}
 8004204:	b083      	sub	sp, #12
 8004206:	af00      	add	r7, sp, #0
 8004208:	6078      	str	r0, [r7, #4]
 800420a:	460b      	mov	r3, r1
 800420c:	807b      	strh	r3, [r7, #2]
 800420e:	4613      	mov	r3, r2
 8004210:	707b      	strb	r3, [r7, #1]
  /* Check the parameters */
  assert_param(IS_GPIO_PIN(GPIO_Pin));
  assert_param(IS_GPIO_PIN_ACTION(PinState));

  if (PinState != GPIO_PIN_RESET)
 8004212:	787b      	ldrb	r3, [r7, #1]
 8004214:	2b00      	cmp	r3, #0
 8004216:	d003      	beq.n	8004220 <HAL_GPIO_WritePin+0x1e>
  {
    GPIOx->BSRR = GPIO_Pin;
 8004218:	887a      	ldrh	r2, [r7, #2]
 800421a:	687b      	ldr	r3, [r7, #4]
 800421c:	611a      	str	r2, [r3, #16]
  }
  else
  {
    GPIOx->BSRR = (uint32_t)GPIO_Pin << 16u;
  }
}
 800421e:	e003      	b.n	8004228 <HAL_GPIO_WritePin+0x26>
    GPIOx->BSRR = (uint32_t)GPIO_Pin << 16u;
 8004220:	887b      	ldrh	r3, [r7, #2]
 8004222:	041a      	lsls	r2, r3, #16
 8004224:	687b      	ldr	r3, [r7, #4]
 8004226:	611a      	str	r2, [r3, #16]
}
 8004228:	bf00      	nop
 800422a:	370c      	adds	r7, #12
 800422c:	46bd      	mov	sp, r7
 800422e:	bc80      	pop	{r7}
 8004230:	4770      	bx	lr
	...

08004234 <HAL_GPIO_EXTI_IRQHandler>:
  * @brief  This function handles EXTI interrupt request.
  * @param  GPIO_Pin: Specifies the pins connected EXTI line
  * @retval None
  */
void HAL_GPIO_EXTI_IRQHandler(uint16_t GPIO_Pin)
{
 8004234:	b580      	push	{r7, lr}
 8004236:	b082      	sub	sp, #8
 8004238:	af00      	add	r7, sp, #0
 800423a:	4603      	mov	r3, r0
 800423c:	80fb      	strh	r3, [r7, #6]
  /* EXTI line interrupt detected */
  if (__HAL_GPIO_EXTI_GET_IT(GPIO_Pin) != 0x00u)
 800423e:	4b08      	ldr	r3, [pc, #32]	@ (8004260 <HAL_GPIO_EXTI_IRQHandler+0x2c>)
 8004240:	695a      	ldr	r2, [r3, #20]
 8004242:	88fb      	ldrh	r3, [r7, #6]
 8004244:	4013      	ands	r3, r2
 8004246:	2b00      	cmp	r3, #0
 8004248:	d006      	beq.n	8004258 <HAL_GPIO_EXTI_IRQHandler+0x24>
  {
    __HAL_GPIO_EXTI_CLEAR_IT(GPIO_Pin);
 800424a:	4a05      	ldr	r2, [pc, #20]	@ (8004260 <HAL_GPIO_EXTI_IRQHandler+0x2c>)
 800424c:	88fb      	ldrh	r3, [r7, #6]
 800424e:	6153      	str	r3, [r2, #20]
    HAL_GPIO_EXTI_Callback(GPIO_Pin);
 8004250:	88fb      	ldrh	r3, [r7, #6]
 8004252:	4618      	mov	r0, r3
 8004254:	f7fe feda 	bl	800300c <HAL_GPIO_EXTI_Callback>
  }
}
 8004258:	bf00      	nop
 800425a:	3708      	adds	r7, #8
 800425c:	46bd      	mov	sp, r7
 800425e:	bd80      	pop	{r7, pc}
 8004260:	40010400 	.word	0x40010400

08004264 <HAL_RCC_OscConfig>:
  *         supported by this macro. User should request a transition to HSE Off
  *         first and then HSE On or HSE Bypass.
  * @retval HAL status
  */
HAL_StatusTypeDef HAL_RCC_OscConfig(RCC_OscInitTypeDef  *RCC_OscInitStruct)
{
 8004264:	b580      	push	{r7, lr}
 8004266:	b086      	sub	sp, #24
 8004268:	af00      	add	r7, sp, #0
 800426a:	6078      	str	r0, [r7, #4]
  uint32_t tickstart;
  uint32_t pll_config;

  /* Check Null pointer */
  if (RCC_OscInitStruct == NULL)
 800426c:	687b      	ldr	r3, [r7, #4]
 800426e:	2b00      	cmp	r3, #0
 8004270:	d101      	bne.n	8004276 <HAL_RCC_OscConfig+0x12>
  {
    return HAL_ERROR;
 8004272:	2301      	movs	r3, #1
 8004274:	e272      	b.n	800475c <HAL_RCC_OscConfig+0x4f8>

  /* Check the parameters */
  assert_param(IS_RCC_OSCILLATORTYPE(RCC_OscInitStruct->OscillatorType));

  /*------------------------------- HSE Configuration ------------------------*/
  if (((RCC_OscInitStruct->OscillatorType) & RCC_OSCILLATORTYPE_HSE) == RCC_OSCILLATORTYPE_HSE)
 8004276:	687b      	ldr	r3, [r7, #4]
 8004278:	681b      	ldr	r3, [r3, #0]
 800427a:	f003 0301 	and.w	r3, r3, #1
 800427e:	2b00      	cmp	r3, #0
 8004280:	f000 8087 	beq.w	8004392 <HAL_RCC_OscConfig+0x12e>
  {
    /* Check the parameters */
    assert_param(IS_RCC_HSE(RCC_OscInitStruct->HSEState));

    /* When the HSE is used as system clock or clock source for PLL in these cases it is not allowed to be disabled */
    if ((__HAL_RCC_GET_SYSCLK_SOURCE() == RCC_SYSCLKSOURCE_STATUS_HSE)
 8004284:	4b92      	ldr	r3, [pc, #584]	@ (80044d0 <HAL_RCC_OscConfig+0x26c>)
 8004286:	685b      	ldr	r3, [r3, #4]
 8004288:	f003 030c 	and.w	r3, r3, #12
 800428c:	2b04      	cmp	r3, #4
 800428e:	d00c      	beq.n	80042aa <HAL_RCC_OscConfig+0x46>
        || ((__HAL_RCC_GET_SYSCLK_SOURCE() == RCC_SYSCLKSOURCE_STATUS_PLLCLK) && (__HAL_RCC_GET_PLL_OSCSOURCE() == RCC_PLLSOURCE_HSE)))
 8004290:	4b8f      	ldr	r3, [pc, #572]	@ (80044d0 <HAL_RCC_OscConfig+0x26c>)
 8004292:	685b      	ldr	r3, [r3, #4]
 8004294:	f003 030c 	and.w	r3, r3, #12
 8004298:	2b08      	cmp	r3, #8
 800429a:	d112      	bne.n	80042c2 <HAL_RCC_OscConfig+0x5e>
 800429c:	4b8c      	ldr	r3, [pc, #560]	@ (80044d0 <HAL_RCC_OscConfig+0x26c>)
 800429e:	685b      	ldr	r3, [r3, #4]
 80042a0:	f403 3380 	and.w	r3, r3, #65536	@ 0x10000
 80042a4:	f5b3 3f80 	cmp.w	r3, #65536	@ 0x10000
 80042a8:	d10b      	bne.n	80042c2 <HAL_RCC_OscConfig+0x5e>
    {
      if ((__HAL_RCC_GET_FLAG(RCC_FLAG_HSERDY) != RESET) && (RCC_OscInitStruct->HSEState == RCC_HSE_OFF))
 80042aa:	4b89      	ldr	r3, [pc, #548]	@ (80044d0 <HAL_RCC_OscConfig+0x26c>)
 80042ac:	681b      	ldr	r3, [r3, #0]
 80042ae:	f403 3300 	and.w	r3, r3, #131072	@ 0x20000
 80042b2:	2b00      	cmp	r3, #0
 80042b4:	d06c      	beq.n	8004390 <HAL_RCC_OscConfig+0x12c>
 80042b6:	687b      	ldr	r3, [r7, #4]
 80042b8:	685b      	ldr	r3, [r3, #4]
 80042ba:	2b00      	cmp	r3, #0
 80042bc:	d168      	bne.n	8004390 <HAL_RCC_OscConfig+0x12c>
      {
        return HAL_ERROR;
 80042be:	2301      	movs	r3, #1
 80042c0:	e24c      	b.n	800475c <HAL_RCC_OscConfig+0x4f8>
      }
    }
    else
    {
      /* Set the new HSE configuration ---------------------------------------*/
      __HAL_RCC_HSE_CONFIG(RCC_OscInitStruct->HSEState);
 80042c2:	687b      	ldr	r3, [r7, #4]
 80042c4:	685b      	ldr	r3, [r3, #4]
 80042c6:	f5b3 3f80 	cmp.w	r3, #65536	@ 0x10000
 80042ca:	d106      	bne.n	80042da <HAL_RCC_OscConfig+0x76>
 80042cc:	4b80      	ldr	r3, [pc, #512]	@ (80044d0 <HAL_RCC_OscConfig+0x26c>)
 80042ce:	681b      	ldr	r3, [r3, #0]
 80042d0:	4a7f      	ldr	r2, [pc, #508]	@ (80044d0 <HAL_RCC_OscConfig+0x26c>)
 80042d2:	f443 3380 	orr.w	r3, r3, #65536	@ 0x10000
 80042d6:	6013      	str	r3, [r2, #0]
 80042d8:	e02e      	b.n	8004338 <HAL_RCC_OscConfig+0xd4>
 80042da:	687b      	ldr	r3, [r7, #4]
 80042dc:	685b      	ldr	r3, [r3, #4]
 80042de:	2b00      	cmp	r3, #0
 80042e0:	d10c      	bne.n	80042fc <HAL_RCC_OscConfig+0x98>
 80042e2:	4b7b      	ldr	r3, [pc, #492]	@ (80044d0 <HAL_RCC_OscConfig+0x26c>)
 80042e4:	681b      	ldr	r3, [r3, #0]
 80042e6:	4a7a      	ldr	r2, [pc, #488]	@ (80044d0 <HAL_RCC_OscConfig+0x26c>)
 80042e8:	f423 3380 	bic.w	r3, r3, #65536	@ 0x10000
 80042ec:	6013      	str	r3, [r2, #0]
 80042ee:	4b78      	ldr	r3, [pc, #480]	@ (80044d0 <HAL_RCC_OscConfig+0x26c>)
 80042f0:	681b      	ldr	r3, [r3, #0]
 80042f2:	4a77      	ldr	r2, [pc, #476]	@ (80044d0 <HAL_RCC_OscConfig+0x26c>)
 80042f4:	f423 2380 	bic.w	r3, r3, #262144	@ 0x40000
 80042f8:	6013      	str	r3, [r2, #0]
 80042fa:	e01d      	b.n	8004338 <HAL_RCC_OscConfig+0xd4>
 80042fc:	687b      	ldr	r3, [r7, #4]
 80042fe:	685b      	ldr	r3, [r3, #4]
 8004300:	f5b3 2fa0 	cmp.w	r3, #327680	@ 0x50000
 8004304:	d10c      	bne.n	8004320 <HAL_RCC_OscConfig+0xbc>
 8004306:	4b72      	ldr	r3, [pc, #456]	@ (80044d0 <HAL_RCC_OscConfig+0x26c>)
 8004308:	681b      	ldr	r3, [r3, #0]
 800430a:	4a71      	ldr	r2, [pc, #452]	@ (80044d0 <HAL_RCC_OscConfig+0x26c>)
 800430c:	f443 2380 	orr.w	r3, r3, #262144	@ 0x40000
 8004310:	6013      	str	r3, [r2, #0]
 8004312:	4b6f      	ldr	r3, [pc, #444]	@ (80044d0 <HAL_RCC_OscConfig+0x26c>)
 8004314:	681b      	ldr	r3, [r3, #0]
 8004316:	4a6e      	ldr	r2, [pc, #440]	@ (80044d0 <HAL_RCC_OscConfig+0x26c>)
 8004318:	f443 3380 	orr.w	r3, r3, #65536	@ 0x10000
 800431c:	6013      	str	r3, [r2, #0]
 800431e:	e00b      	b.n	8004338 <HAL_RCC_OscConfig+0xd4>
 8004320:	4b6b      	ldr	r3, [pc, #428]	@ (80044d0 <HAL_RCC_OscConfig+0x26c>)
 8004322:	681b      	ldr	r3, [r3, #0]
 8004324:	4a6a      	ldr	r2, [pc, #424]	@ (80044d0 <HAL_RCC_OscConfig+0x26c>)
 8004326:	f423 3380 	bic.w	r3, r3, #65536	@ 0x10000
 800432a:	6013      	str	r3, [r2, #0]
 800432c:	4b68      	ldr	r3, [pc, #416]	@ (80044d0 <HAL_RCC_OscConfig+0x26c>)
 800432e:	681b      	ldr	r3, [r3, #0]
 8004330:	4a67      	ldr	r2, [pc, #412]	@ (80044d0 <HAL_RCC_OscConfig+0x26c>)
 8004332:	f423 2380 	bic.w	r3, r3, #262144	@ 0x40000
 8004336:	6013      	str	r3, [r2, #0]


      /* Check the HSE State */
      if (RCC_OscInitStruct->HSEState != RCC_HSE_OFF)
 8004338:	687b      	ldr	r3, [r7, #4]
 800433a:	685b      	ldr	r3, [r3, #4]
 800433c:	2b00      	cmp	r3, #0
 800433e:	d013      	beq.n	8004368 <HAL_RCC_OscConfig+0x104>
      {
        /* Get Start Tick */
        tickstart = HAL_GetTick();
 8004340:	f7ff f9e6 	bl	8003710 <HAL_GetTick>
 8004344:	6138      	str	r0, [r7, #16]

        /* Wait till HSE is ready */
        while (__HAL_RCC_GET_FLAG(RCC_FLAG_HSERDY) == RESET)
 8004346:	e008      	b.n	800435a <HAL_RCC_OscConfig+0xf6>
        {
          if ((HAL_GetTick() - tickstart) > HSE_TIMEOUT_VALUE)
 8004348:	f7ff f9e2 	bl	8003710 <HAL_GetTick>
 800434c:	4602      	mov	r2, r0
 800434e:	693b      	ldr	r3, [r7, #16]
 8004350:	1ad3      	subs	r3, r2, r3
 8004352:	2b64      	cmp	r3, #100	@ 0x64
 8004354:	d901      	bls.n	800435a <HAL_RCC_OscConfig+0xf6>
          {
            return HAL_TIMEOUT;
 8004356:	2303      	movs	r3, #3
 8004358:	e200      	b.n	800475c <HAL_RCC_OscConfig+0x4f8>
        while (__HAL_RCC_GET_FLAG(RCC_FLAG_HSERDY) == RESET)
 800435a:	4b5d      	ldr	r3, [pc, #372]	@ (80044d0 <HAL_RCC_OscConfig+0x26c>)
 800435c:	681b      	ldr	r3, [r3, #0]
 800435e:	f403 3300 	and.w	r3, r3, #131072	@ 0x20000
 8004362:	2b00      	cmp	r3, #0
 8004364:	d0f0      	beq.n	8004348 <HAL_RCC_OscConfig+0xe4>
 8004366:	e014      	b.n	8004392 <HAL_RCC_OscConfig+0x12e>
        }
      }
      else
      {
        /* Get Start Tick */
        tickstart = HAL_GetTick();
 8004368:	f7ff f9d2 	bl	8003710 <HAL_GetTick>
 800436c:	6138      	str	r0, [r7, #16]

        /* Wait till HSE is disabled */
        while (__HAL_RCC_GET_FLAG(RCC_FLAG_HSERDY) != RESET)
 800436e:	e008      	b.n	8004382 <HAL_RCC_OscConfig+0x11e>
        {
          if ((HAL_GetTick() - tickstart) > HSE_TIMEOUT_VALUE)
 8004370:	f7ff f9ce 	bl	8003710 <HAL_GetTick>
 8004374:	4602      	mov	r2, r0
 8004376:	693b      	ldr	r3, [r7, #16]
 8004378:	1ad3      	subs	r3, r2, r3
 800437a:	2b64      	cmp	r3, #100	@ 0x64
 800437c:	d901      	bls.n	8004382 <HAL_RCC_OscConfig+0x11e>
          {
            return HAL_TIMEOUT;
 800437e:	2303      	movs	r3, #3
 8004380:	e1ec      	b.n	800475c <HAL_RCC_OscConfig+0x4f8>
        while (__HAL_RCC_GET_FLAG(RCC_FLAG_HSERDY) != RESET)
 8004382:	4b53      	ldr	r3, [pc, #332]	@ (80044d0 <HAL_RCC_OscConfig+0x26c>)
 8004384:	681b      	ldr	r3, [r3, #0]
 8004386:	f403 3300 	and.w	r3, r3, #131072	@ 0x20000
 800438a:	2b00      	cmp	r3, #0
 800438c:	d1f0      	bne.n	8004370 <HAL_RCC_OscConfig+0x10c>
 800438e:	e000      	b.n	8004392 <HAL_RCC_OscConfig+0x12e>
      if ((__HAL_RCC_GET_FLAG(RCC_FLAG_HSERDY) != RESET) && (RCC_OscInitStruct->HSEState == RCC_HSE_OFF))
 8004390:	bf00      	nop
        }
      }
    }
  }
  /*----------------------------- HSI Configuration --------------------------*/
  if (((RCC_OscInitStruct->OscillatorType) & RCC_OSCILLATORTYPE_HSI) == RCC_OSCILLATORTYPE_HSI)
 8004392:	687b      	ldr	r3, [r7, #4]
 8004394:	681b      	ldr	r3, [r3, #0]
 8004396:	f003 0302 	and.w	r3, r3, #2
 800439a:	2b00      	cmp	r3, #0
 800439c:	d063      	beq.n	8004466 <HAL_RCC_OscConfig+0x202>
    /* Check the parameters */
    assert_param(IS_RCC_HSI(RCC_OscInitStruct->HSIState));
    assert_param(IS_RCC_CALIBRATION_VALUE(RCC_OscInitStruct->HSICalibrationValue));

    /* Check if HSI is used as system clock or as PLL source when PLL is selected as system clock */
    if ((__HAL_RCC_GET_SYSCLK_SOURCE() == RCC_SYSCLKSOURCE_STATUS_HSI)
 800439e:	4b4c      	ldr	r3, [pc, #304]	@ (80044d0 <HAL_RCC_OscConfig+0x26c>)
 80043a0:	685b      	ldr	r3, [r3, #4]
 80043a2:	f003 030c 	and.w	r3, r3, #12
 80043a6:	2b00      	cmp	r3, #0
 80043a8:	d00b      	beq.n	80043c2 <HAL_RCC_OscConfig+0x15e>
        || ((__HAL_RCC_GET_SYSCLK_SOURCE() == RCC_SYSCLKSOURCE_STATUS_PLLCLK) && (__HAL_RCC_GET_PLL_OSCSOURCE() == RCC_PLLSOURCE_HSI_DIV2)))
 80043aa:	4b49      	ldr	r3, [pc, #292]	@ (80044d0 <HAL_RCC_OscConfig+0x26c>)
 80043ac:	685b      	ldr	r3, [r3, #4]
 80043ae:	f003 030c 	and.w	r3, r3, #12
 80043b2:	2b08      	cmp	r3, #8
 80043b4:	d11c      	bne.n	80043f0 <HAL_RCC_OscConfig+0x18c>
 80043b6:	4b46      	ldr	r3, [pc, #280]	@ (80044d0 <HAL_RCC_OscConfig+0x26c>)
 80043b8:	685b      	ldr	r3, [r3, #4]
 80043ba:	f403 3380 	and.w	r3, r3, #65536	@ 0x10000
 80043be:	2b00      	cmp	r3, #0
 80043c0:	d116      	bne.n	80043f0 <HAL_RCC_OscConfig+0x18c>
    {
      /* When HSI is used as system clock it will not disabled */
      if ((__HAL_RCC_GET_FLAG(RCC_FLAG_HSIRDY) != RESET) && (RCC_OscInitStruct->HSIState != RCC_HSI_ON))
 80043c2:	4b43      	ldr	r3, [pc, #268]	@ (80044d0 <HAL_RCC_OscConfig+0x26c>)
 80043c4:	681b      	ldr	r3, [r3, #0]
 80043c6:	f003 0302 	and.w	r3, r3, #2
 80043ca:	2b00      	cmp	r3, #0
 80043cc:	d005      	beq.n	80043da <HAL_RCC_OscConfig+0x176>
 80043ce:	687b      	ldr	r3, [r7, #4]
 80043d0:	691b      	ldr	r3, [r3, #16]
 80043d2:	2b01      	cmp	r3, #1
 80043d4:	d001      	beq.n	80043da <HAL_RCC_OscConfig+0x176>
      {
        return HAL_ERROR;
 80043d6:	2301      	movs	r3, #1
 80043d8:	e1c0      	b.n	800475c <HAL_RCC_OscConfig+0x4f8>
      }
      /* Otherwise, just the calibration is allowed */
      else
      {
        /* Adjusts the Internal High Speed oscillator (HSI) calibration value.*/
        __HAL_RCC_HSI_CALIBRATIONVALUE_ADJUST(RCC_OscInitStruct->HSICalibrationValue);
 80043da:	4b3d      	ldr	r3, [pc, #244]	@ (80044d0 <HAL_RCC_OscConfig+0x26c>)
 80043dc:	681b      	ldr	r3, [r3, #0]
 80043de:	f023 02f8 	bic.w	r2, r3, #248	@ 0xf8
 80043e2:	687b      	ldr	r3, [r7, #4]
 80043e4:	695b      	ldr	r3, [r3, #20]
 80043e6:	00db      	lsls	r3, r3, #3
 80043e8:	4939      	ldr	r1, [pc, #228]	@ (80044d0 <HAL_RCC_OscConfig+0x26c>)
 80043ea:	4313      	orrs	r3, r2
 80043ec:	600b      	str	r3, [r1, #0]
      if ((__HAL_RCC_GET_FLAG(RCC_FLAG_HSIRDY) != RESET) && (RCC_OscInitStruct->HSIState != RCC_HSI_ON))
 80043ee:	e03a      	b.n	8004466 <HAL_RCC_OscConfig+0x202>
      }
    }
    else
    {
      /* Check the HSI State */
      if (RCC_OscInitStruct->HSIState != RCC_HSI_OFF)
 80043f0:	687b      	ldr	r3, [r7, #4]
 80043f2:	691b      	ldr	r3, [r3, #16]
 80043f4:	2b00      	cmp	r3, #0
 80043f6:	d020      	beq.n	800443a <HAL_RCC_OscConfig+0x1d6>
      {
        /* Enable the Internal High Speed oscillator (HSI). */
        __HAL_RCC_HSI_ENABLE();
 80043f8:	4b36      	ldr	r3, [pc, #216]	@ (80044d4 <HAL_RCC_OscConfig+0x270>)
 80043fa:	2201      	movs	r2, #1
 80043fc:	601a      	str	r2, [r3, #0]

        /* Get Start Tick */
        tickstart = HAL_GetTick();
 80043fe:	f7ff f987 	bl	8003710 <HAL_GetTick>
 8004402:	6138      	str	r0, [r7, #16]

        /* Wait till HSI is ready */
        while (__HAL_RCC_GET_FLAG(RCC_FLAG_HSIRDY) == RESET)
 8004404:	e008      	b.n	8004418 <HAL_RCC_OscConfig+0x1b4>
        {
          if ((HAL_GetTick() - tickstart) > HSI_TIMEOUT_VALUE)
 8004406:	f7ff f983 	bl	8003710 <HAL_GetTick>
 800440a:	4602      	mov	r2, r0
 800440c:	693b      	ldr	r3, [r7, #16]
 800440e:	1ad3      	subs	r3, r2, r3
 8004410:	2b02      	cmp	r3, #2
 8004412:	d901      	bls.n	8004418 <HAL_RCC_OscConfig+0x1b4>
          {
            return HAL_TIMEOUT;
 8004414:	2303      	movs	r3, #3
 8004416:	e1a1      	b.n	800475c <HAL_RCC_OscConfig+0x4f8>
        while (__HAL_RCC_GET_FLAG(RCC_FLAG_HSIRDY) == RESET)
 8004418:	4b2d      	ldr	r3, [pc, #180]	@ (80044d0 <HAL_RCC_OscConfig+0x26c>)
 800441a:	681b      	ldr	r3, [r3, #0]
 800441c:	f003 0302 	and.w	r3, r3, #2
 8004420:	2b00      	cmp	r3, #0
 8004422:	d0f0      	beq.n	8004406 <HAL_RCC_OscConfig+0x1a2>
          }
        }

        /* Adjusts the Internal High Speed oscillator (HSI) calibration value.*/
        __HAL_RCC_HSI_CALIBRATIONVALUE_ADJUST(RCC_OscInitStruct->HSICalibrationValue);
 8004424:	4b2a      	ldr	r3, [pc, #168]	@ (80044d0 <HAL_RCC_OscConfig+0x26c>)
 8004426:	681b      	ldr	r3, [r3, #0]
 8004428:	f023 02f8 	bic.w	r2, r3, #248	@ 0xf8
 800442c:	687b      	ldr	r3, [r7, #4]
 800442e:	695b      	ldr	r3, [r3, #20]
 8004430:	00db      	lsls	r3, r3, #3
 8004432:	4927      	ldr	r1, [pc, #156]	@ (80044d0 <HAL_RCC_OscConfig+0x26c>)
 8004434:	4313      	orrs	r3, r2
 8004436:	600b      	str	r3, [r1, #0]
 8004438:	e015      	b.n	8004466 <HAL_RCC_OscConfig+0x202>
      }
      else
      {
        /* Disable the Internal High Speed oscillator (HSI). */
        __HAL_RCC_HSI_DISABLE();
 800443a:	4b26      	ldr	r3, [pc, #152]	@ (80044d4 <HAL_RCC_OscConfig+0x270>)
 800443c:	2200      	movs	r2, #0
 800443e:	601a      	str	r2, [r3, #0]

        /* Get Start Tick */
        tickstart = HAL_GetTick();
 8004440:	f7ff f966 	bl	8003710 <HAL_GetTick>
 8004444:	6138      	str	r0, [r7, #16]

        /* Wait till HSI is disabled */
        while (__HAL_RCC_GET_FLAG(RCC_FLAG_HSIRDY) != RESET)
 8004446:	e008      	b.n	800445a <HAL_RCC_OscConfig+0x1f6>
        {
          if ((HAL_GetTick() - tickstart) > HSI_TIMEOUT_VALUE)
 8004448:	f7ff f962 	bl	8003710 <HAL_GetTick>
 800444c:	4602      	mov	r2, r0
 800444e:	693b      	ldr	r3, [r7, #16]
 8004450:	1ad3      	subs	r3, r2, r3
 8004452:	2b02      	cmp	r3, #2
 8004454:	d901      	bls.n	800445a <HAL_RCC_OscConfig+0x1f6>
          {
            return HAL_TIMEOUT;
 8004456:	2303      	movs	r3, #3
 8004458:	e180      	b.n	800475c <HAL_RCC_OscConfig+0x4f8>
        while (__HAL_RCC_GET_FLAG(RCC_FLAG_HSIRDY) != RESET)
 800445a:	4b1d      	ldr	r3, [pc, #116]	@ (80044d0 <HAL_RCC_OscConfig+0x26c>)
 800445c:	681b      	ldr	r3, [r3, #0]
 800445e:	f003 0302 	and.w	r3, r3, #2
 8004462:	2b00      	cmp	r3, #0
 8004464:	d1f0      	bne.n	8004448 <HAL_RCC_OscConfig+0x1e4>
        }
      }
    }
  }
  /*------------------------------ LSI Configuration -------------------------*/
  if (((RCC_OscInitStruct->OscillatorType) & RCC_OSCILLATORTYPE_LSI) == RCC_OSCILLATORTYPE_LSI)
 8004466:	687b      	ldr	r3, [r7, #4]
 8004468:	681b      	ldr	r3, [r3, #0]
 800446a:	f003 0308 	and.w	r3, r3, #8
 800446e:	2b00      	cmp	r3, #0
 8004470:	d03a      	beq.n	80044e8 <HAL_RCC_OscConfig+0x284>
  {
    /* Check the parameters */
    assert_param(IS_RCC_LSI(RCC_OscInitStruct->LSIState));

    /* Check the LSI State */
    if (RCC_OscInitStruct->LSIState != RCC_LSI_OFF)
 8004472:	687b      	ldr	r3, [r7, #4]
 8004474:	699b      	ldr	r3, [r3, #24]
 8004476:	2b00      	cmp	r3, #0
 8004478:	d019      	beq.n	80044ae <HAL_RCC_OscConfig+0x24a>
    {
      /* Enable the Internal Low Speed oscillator (LSI). */
      __HAL_RCC_LSI_ENABLE();
 800447a:	4b17      	ldr	r3, [pc, #92]	@ (80044d8 <HAL_RCC_OscConfig+0x274>)
 800447c:	2201      	movs	r2, #1
 800447e:	601a      	str	r2, [r3, #0]

      /* Get Start Tick */
      tickstart = HAL_GetTick();
 8004480:	f7ff f946 	bl	8003710 <HAL_GetTick>
 8004484:	6138      	str	r0, [r7, #16]

      /* Wait till LSI is ready */
      while (__HAL_RCC_GET_FLAG(RCC_FLAG_LSIRDY) == RESET)
 8004486:	e008      	b.n	800449a <HAL_RCC_OscConfig+0x236>
      {
        if ((HAL_GetTick() - tickstart) > LSI_TIMEOUT_VALUE)
 8004488:	f7ff f942 	bl	8003710 <HAL_GetTick>
 800448c:	4602      	mov	r2, r0
 800448e:	693b      	ldr	r3, [r7, #16]
 8004490:	1ad3      	subs	r3, r2, r3
 8004492:	2b02      	cmp	r3, #2
 8004494:	d901      	bls.n	800449a <HAL_RCC_OscConfig+0x236>
        {
          return HAL_TIMEOUT;
 8004496:	2303      	movs	r3, #3
 8004498:	e160      	b.n	800475c <HAL_RCC_OscConfig+0x4f8>
      while (__HAL_RCC_GET_FLAG(RCC_FLAG_LSIRDY) == RESET)
 800449a:	4b0d      	ldr	r3, [pc, #52]	@ (80044d0 <HAL_RCC_OscConfig+0x26c>)
 800449c:	6a5b      	ldr	r3, [r3, #36]	@ 0x24
 800449e:	f003 0302 	and.w	r3, r3, #2
 80044a2:	2b00      	cmp	r3, #0
 80044a4:	d0f0      	beq.n	8004488 <HAL_RCC_OscConfig+0x224>
        }
      }
      /*  To have a fully stabilized clock in the specified range, a software delay of 1ms
          should be added.*/
      RCC_Delay(1);
 80044a6:	2001      	movs	r0, #1
 80044a8:	f000 face 	bl	8004a48 <RCC_Delay>
 80044ac:	e01c      	b.n	80044e8 <HAL_RCC_OscConfig+0x284>
    }
    else
    {
      /* Disable the Internal Low Speed oscillator (LSI). */
      __HAL_RCC_LSI_DISABLE();
 80044ae:	4b0a      	ldr	r3, [pc, #40]	@ (80044d8 <HAL_RCC_OscConfig+0x274>)
 80044b0:	2200      	movs	r2, #0
 80044b2:	601a      	str	r2, [r3, #0]

      /* Get Start Tick */
      tickstart = HAL_GetTick();
 80044b4:	f7ff f92c 	bl	8003710 <HAL_GetTick>
 80044b8:	6138      	str	r0, [r7, #16]

      /* Wait till LSI is disabled */
      while (__HAL_RCC_GET_FLAG(RCC_FLAG_LSIRDY) != RESET)
 80044ba:	e00f      	b.n	80044dc <HAL_RCC_OscConfig+0x278>
      {
        if ((HAL_GetTick() - tickstart) > LSI_TIMEOUT_VALUE)
 80044bc:	f7ff f928 	bl	8003710 <HAL_GetTick>
 80044c0:	4602      	mov	r2, r0
 80044c2:	693b      	ldr	r3, [r7, #16]
 80044c4:	1ad3      	subs	r3, r2, r3
 80044c6:	2b02      	cmp	r3, #2
 80044c8:	d908      	bls.n	80044dc <HAL_RCC_OscConfig+0x278>
        {
          return HAL_TIMEOUT;
 80044ca:	2303      	movs	r3, #3
 80044cc:	e146      	b.n	800475c <HAL_RCC_OscConfig+0x4f8>
 80044ce:	bf00      	nop
 80044d0:	40021000 	.word	0x40021000
 80044d4:	42420000 	.word	0x42420000
 80044d8:	42420480 	.word	0x42420480
      while (__HAL_RCC_GET_FLAG(RCC_FLAG_LSIRDY) != RESET)
 80044dc:	4b92      	ldr	r3, [pc, #584]	@ (8004728 <HAL_RCC_OscConfig+0x4c4>)
 80044de:	6a5b      	ldr	r3, [r3, #36]	@ 0x24
 80044e0:	f003 0302 	and.w	r3, r3, #2
 80044e4:	2b00      	cmp	r3, #0
 80044e6:	d1e9      	bne.n	80044bc <HAL_RCC_OscConfig+0x258>
        }
      }
    }
  }
  /*------------------------------ LSE Configuration -------------------------*/
  if (((RCC_OscInitStruct->OscillatorType) & RCC_OSCILLATORTYPE_LSE) == RCC_OSCILLATORTYPE_LSE)
 80044e8:	687b      	ldr	r3, [r7, #4]
 80044ea:	681b      	ldr	r3, [r3, #0]
 80044ec:	f003 0304 	and.w	r3, r3, #4
 80044f0:	2b00      	cmp	r3, #0
 80044f2:	f000 80a6 	beq.w	8004642 <HAL_RCC_OscConfig+0x3de>
  {
    FlagStatus       pwrclkchanged = RESET;
 80044f6:	2300      	movs	r3, #0
 80044f8:	75fb      	strb	r3, [r7, #23]
    /* Check the parameters */
    assert_param(IS_RCC_LSE(RCC_OscInitStruct->LSEState));

    /* Update LSE configuration in Backup Domain control register    */
    /* Requires to enable write access to Backup Domain of necessary */
    if (__HAL_RCC_PWR_IS_CLK_DISABLED())
 80044fa:	4b8b      	ldr	r3, [pc, #556]	@ (8004728 <HAL_RCC_OscConfig+0x4c4>)
 80044fc:	69db      	ldr	r3, [r3, #28]
 80044fe:	f003 5380 	and.w	r3, r3, #268435456	@ 0x10000000
 8004502:	2b00      	cmp	r3, #0
 8004504:	d10d      	bne.n	8004522 <HAL_RCC_OscConfig+0x2be>
    {
      __HAL_RCC_PWR_CLK_ENABLE();
 8004506:	4b88      	ldr	r3, [pc, #544]	@ (8004728 <HAL_RCC_OscConfig+0x4c4>)
 8004508:	69db      	ldr	r3, [r3, #28]
 800450a:	4a87      	ldr	r2, [pc, #540]	@ (8004728 <HAL_RCC_OscConfig+0x4c4>)
 800450c:	f043 5380 	orr.w	r3, r3, #268435456	@ 0x10000000
 8004510:	61d3      	str	r3, [r2, #28]
 8004512:	4b85      	ldr	r3, [pc, #532]	@ (8004728 <HAL_RCC_OscConfig+0x4c4>)
 8004514:	69db      	ldr	r3, [r3, #28]
 8004516:	f003 5380 	and.w	r3, r3, #268435456	@ 0x10000000
 800451a:	60bb      	str	r3, [r7, #8]
 800451c:	68bb      	ldr	r3, [r7, #8]
      pwrclkchanged = SET;
 800451e:	2301      	movs	r3, #1
 8004520:	75fb      	strb	r3, [r7, #23]
    }

    if (HAL_IS_BIT_CLR(PWR->CR, PWR_CR_DBP))
 8004522:	4b82      	ldr	r3, [pc, #520]	@ (800472c <HAL_RCC_OscConfig+0x4c8>)
 8004524:	681b      	ldr	r3, [r3, #0]
 8004526:	f403 7380 	and.w	r3, r3, #256	@ 0x100
 800452a:	2b00      	cmp	r3, #0
 800452c:	d118      	bne.n	8004560 <HAL_RCC_OscConfig+0x2fc>
    {
      /* Enable write access to Backup domain */
      SET_BIT(PWR->CR, PWR_CR_DBP);
 800452e:	4b7f      	ldr	r3, [pc, #508]	@ (800472c <HAL_RCC_OscConfig+0x4c8>)
 8004530:	681b      	ldr	r3, [r3, #0]
 8004532:	4a7e      	ldr	r2, [pc, #504]	@ (800472c <HAL_RCC_OscConfig+0x4c8>)
 8004534:	f443 7380 	orr.w	r3, r3, #256	@ 0x100
 8004538:	6013      	str	r3, [r2, #0]

      /* Wait for Backup domain Write protection disable */
      tickstart = HAL_GetTick();
 800453a:	f7ff f8e9 	bl	8003710 <HAL_GetTick>
 800453e:	6138      	str	r0, [r7, #16]

      while (HAL_IS_BIT_CLR(PWR->CR, PWR_CR_DBP))
 8004540:	e008      	b.n	8004554 <HAL_RCC_OscConfig+0x2f0>
      {
        if ((HAL_GetTick() - tickstart) > RCC_DBP_TIMEOUT_VALUE)
 8004542:	f7ff f8e5 	bl	8003710 <HAL_GetTick>
 8004546:	4602      	mov	r2, r0
 8004548:	693b      	ldr	r3, [r7, #16]
 800454a:	1ad3      	subs	r3, r2, r3
 800454c:	2b64      	cmp	r3, #100	@ 0x64
 800454e:	d901      	bls.n	8004554 <HAL_RCC_OscConfig+0x2f0>
        {
          return HAL_TIMEOUT;
 8004550:	2303      	movs	r3, #3
 8004552:	e103      	b.n	800475c <HAL_RCC_OscConfig+0x4f8>
      while (HAL_IS_BIT_CLR(PWR->CR, PWR_CR_DBP))
 8004554:	4b75      	ldr	r3, [pc, #468]	@ (800472c <HAL_RCC_OscConfig+0x4c8>)
 8004556:	681b      	ldr	r3, [r3, #0]
 8004558:	f403 7380 	and.w	r3, r3, #256	@ 0x100
 800455c:	2b00      	cmp	r3, #0
 800455e:	d0f0      	beq.n	8004542 <HAL_RCC_OscConfig+0x2de>
        }
      }
    }

    /* Set the new LSE configuration -----------------------------------------*/
    __HAL_RCC_LSE_CONFIG(RCC_OscInitStruct->LSEState);
 8004560:	687b      	ldr	r3, [r7, #4]
 8004562:	68db      	ldr	r3, [r3, #12]
 8004564:	2b01      	cmp	r3, #1
 8004566:	d106      	bne.n	8004576 <HAL_RCC_OscConfig+0x312>
 8004568:	4b6f      	ldr	r3, [pc, #444]	@ (8004728 <HAL_RCC_OscConfig+0x4c4>)
 800456a:	6a1b      	ldr	r3, [r3, #32]
 800456c:	4a6e      	ldr	r2, [pc, #440]	@ (8004728 <HAL_RCC_OscConfig+0x4c4>)
 800456e:	f043 0301 	orr.w	r3, r3, #1
 8004572:	6213      	str	r3, [r2, #32]
 8004574:	e02d      	b.n	80045d2 <HAL_RCC_OscConfig+0x36e>
 8004576:	687b      	ldr	r3, [r7, #4]
 8004578:	68db      	ldr	r3, [r3, #12]
 800457a:	2b00      	cmp	r3, #0
 800457c:	d10c      	bne.n	8004598 <HAL_RCC_OscConfig+0x334>
 800457e:	4b6a      	ldr	r3, [pc, #424]	@ (8004728 <HAL_RCC_OscConfig+0x4c4>)
 8004580:	6a1b      	ldr	r3, [r3, #32]
 8004582:	4a69      	ldr	r2, [pc, #420]	@ (8004728 <HAL_RCC_OscConfig+0x4c4>)
 8004584:	f023 0301 	bic.w	r3, r3, #1
 8004588:	6213      	str	r3, [r2, #32]
 800458a:	4b67      	ldr	r3, [pc, #412]	@ (8004728 <HAL_RCC_OscConfig+0x4c4>)
 800458c:	6a1b      	ldr	r3, [r3, #32]
 800458e:	4a66      	ldr	r2, [pc, #408]	@ (8004728 <HAL_RCC_OscConfig+0x4c4>)
 8004590:	f023 0304 	bic.w	r3, r3, #4
 8004594:	6213      	str	r3, [r2, #32]
 8004596:	e01c      	b.n	80045d2 <HAL_RCC_OscConfig+0x36e>
 8004598:	687b      	ldr	r3, [r7, #4]
 800459a:	68db      	ldr	r3, [r3, #12]
 800459c:	2b05      	cmp	r3, #5
 800459e:	d10c      	bne.n	80045ba <HAL_RCC_OscConfig+0x356>
 80045a0:	4b61      	ldr	r3, [pc, #388]	@ (8004728 <HAL_RCC_OscConfig+0x4c4>)
 80045a2:	6a1b      	ldr	r3, [r3, #32]
 80045a4:	4a60      	ldr	r2, [pc, #384]	@ (8004728 <HAL_RCC_OscConfig+0x4c4>)
 80045a6:	f043 0304 	orr.w	r3, r3, #4
 80045aa:	6213      	str	r3, [r2, #32]
 80045ac:	4b5e      	ldr	r3, [pc, #376]	@ (8004728 <HAL_RCC_OscConfig+0x4c4>)
 80045ae:	6a1b      	ldr	r3, [r3, #32]
 80045b0:	4a5d      	ldr	r2, [pc, #372]	@ (8004728 <HAL_RCC_OscConfig+0x4c4>)
 80045b2:	f043 0301 	orr.w	r3, r3, #1
 80045b6:	6213      	str	r3, [r2, #32]
 80045b8:	e00b      	b.n	80045d2 <HAL_RCC_OscConfig+0x36e>
 80045ba:	4b5b      	ldr	r3, [pc, #364]	@ (8004728 <HAL_RCC_OscConfig+0x4c4>)
 80045bc:	6a1b      	ldr	r3, [r3, #32]
 80045be:	4a5a      	ldr	r2, [pc, #360]	@ (8004728 <HAL_RCC_OscConfig+0x4c4>)
 80045c0:	f023 0301 	bic.w	r3, r3, #1
 80045c4:	6213      	str	r3, [r2, #32]
 80045c6:	4b58      	ldr	r3, [pc, #352]	@ (8004728 <HAL_RCC_OscConfig+0x4c4>)
 80045c8:	6a1b      	ldr	r3, [r3, #32]
 80045ca:	4a57      	ldr	r2, [pc, #348]	@ (8004728 <HAL_RCC_OscConfig+0x4c4>)
 80045cc:	f023 0304 	bic.w	r3, r3, #4
 80045d0:	6213      	str	r3, [r2, #32]
    /* Check the LSE State */
    if (RCC_OscInitStruct->LSEState != RCC_LSE_OFF)
 80045d2:	687b      	ldr	r3, [r7, #4]
 80045d4:	68db      	ldr	r3, [r3, #12]
 80045d6:	2b00      	cmp	r3, #0
 80045d8:	d015      	beq.n	8004606 <HAL_RCC_OscConfig+0x3a2>
    {
      /* Get Start Tick */
      tickstart = HAL_GetTick();
 80045da:	f7ff f899 	bl	8003710 <HAL_GetTick>
 80045de:	6138      	str	r0, [r7, #16]

      /* Wait till LSE is ready */
      while (__HAL_RCC_GET_FLAG(RCC_FLAG_LSERDY) == RESET)
 80045e0:	e00a      	b.n	80045f8 <HAL_RCC_OscConfig+0x394>
      {
        if ((HAL_GetTick() - tickstart) > RCC_LSE_TIMEOUT_VALUE)
 80045e2:	f7ff f895 	bl	8003710 <HAL_GetTick>
 80045e6:	4602      	mov	r2, r0
 80045e8:	693b      	ldr	r3, [r7, #16]
 80045ea:	1ad3      	subs	r3, r2, r3
 80045ec:	f241 3288 	movw	r2, #5000	@ 0x1388
 80045f0:	4293      	cmp	r3, r2
 80045f2:	d901      	bls.n	80045f8 <HAL_RCC_OscConfig+0x394>
        {
          return HAL_TIMEOUT;
 80045f4:	2303      	movs	r3, #3
 80045f6:	e0b1      	b.n	800475c <HAL_RCC_OscConfig+0x4f8>
      while (__HAL_RCC_GET_FLAG(RCC_FLAG_LSERDY) == RESET)
 80045f8:	4b4b      	ldr	r3, [pc, #300]	@ (8004728 <HAL_RCC_OscConfig+0x4c4>)
 80045fa:	6a1b      	ldr	r3, [r3, #32]
 80045fc:	f003 0302 	and.w	r3, r3, #2
 8004600:	2b00      	cmp	r3, #0
 8004602:	d0ee      	beq.n	80045e2 <HAL_RCC_OscConfig+0x37e>
 8004604:	e014      	b.n	8004630 <HAL_RCC_OscConfig+0x3cc>
      }
    }
    else
    {
      /* Get Start Tick */
      tickstart = HAL_GetTick();
 8004606:	f7ff f883 	bl	8003710 <HAL_GetTick>
 800460a:	6138      	str	r0, [r7, #16]

      /* Wait till LSE is disabled */
      while (__HAL_RCC_GET_FLAG(RCC_FLAG_LSERDY) != RESET)
 800460c:	e00a      	b.n	8004624 <HAL_RCC_OscConfig+0x3c0>
      {
        if ((HAL_GetTick() - tickstart) > RCC_LSE_TIMEOUT_VALUE)
 800460e:	f7ff f87f 	bl	8003710 <HAL_GetTick>
 8004612:	4602      	mov	r2, r0
 8004614:	693b      	ldr	r3, [r7, #16]
 8004616:	1ad3      	subs	r3, r2, r3
 8004618:	f241 3288 	movw	r2, #5000	@ 0x1388
 800461c:	4293      	cmp	r3, r2
 800461e:	d901      	bls.n	8004624 <HAL_RCC_OscConfig+0x3c0>
        {
          return HAL_TIMEOUT;
 8004620:	2303      	movs	r3, #3
 8004622:	e09b      	b.n	800475c <HAL_RCC_OscConfig+0x4f8>
      while (__HAL_RCC_GET_FLAG(RCC_FLAG_LSERDY) != RESET)
 8004624:	4b40      	ldr	r3, [pc, #256]	@ (8004728 <HAL_RCC_OscConfig+0x4c4>)
 8004626:	6a1b      	ldr	r3, [r3, #32]
 8004628:	f003 0302 	and.w	r3, r3, #2
 800462c:	2b00      	cmp	r3, #0
 800462e:	d1ee      	bne.n	800460e <HAL_RCC_OscConfig+0x3aa>
        }
      }
    }

    /* Require to disable power clock if necessary */
    if (pwrclkchanged == SET)
 8004630:	7dfb      	ldrb	r3, [r7, #23]
 8004632:	2b01      	cmp	r3, #1
 8004634:	d105      	bne.n	8004642 <HAL_RCC_OscConfig+0x3de>
    {
      __HAL_RCC_PWR_CLK_DISABLE();
 8004636:	4b3c      	ldr	r3, [pc, #240]	@ (8004728 <HAL_RCC_OscConfig+0x4c4>)
 8004638:	69db      	ldr	r3, [r3, #28]
 800463a:	4a3b      	ldr	r2, [pc, #236]	@ (8004728 <HAL_RCC_OscConfig+0x4c4>)
 800463c:	f023 5380 	bic.w	r3, r3, #268435456	@ 0x10000000
 8004640:	61d3      	str	r3, [r2, #28]

#endif /* RCC_CR_PLL2ON */
  /*-------------------------------- PLL Configuration -----------------------*/
  /* Check the parameters */
  assert_param(IS_RCC_PLL(RCC_OscInitStruct->PLL.PLLState));
  if ((RCC_OscInitStruct->PLL.PLLState) != RCC_PLL_NONE)
 8004642:	687b      	ldr	r3, [r7, #4]
 8004644:	69db      	ldr	r3, [r3, #28]
 8004646:	2b00      	cmp	r3, #0
 8004648:	f000 8087 	beq.w	800475a <HAL_RCC_OscConfig+0x4f6>
  {
    /* Check if the PLL is used as system clock or not */
    if (__HAL_RCC_GET_SYSCLK_SOURCE() != RCC_SYSCLKSOURCE_STATUS_PLLCLK)
 800464c:	4b36      	ldr	r3, [pc, #216]	@ (8004728 <HAL_RCC_OscConfig+0x4c4>)
 800464e:	685b      	ldr	r3, [r3, #4]
 8004650:	f003 030c 	and.w	r3, r3, #12
 8004654:	2b08      	cmp	r3, #8
 8004656:	d061      	beq.n	800471c <HAL_RCC_OscConfig+0x4b8>
    {
      if ((RCC_OscInitStruct->PLL.PLLState) == RCC_PLL_ON)
 8004658:	687b      	ldr	r3, [r7, #4]
 800465a:	69db      	ldr	r3, [r3, #28]
 800465c:	2b02      	cmp	r3, #2
 800465e:	d146      	bne.n	80046ee <HAL_RCC_OscConfig+0x48a>
        /* Check the parameters */
        assert_param(IS_RCC_PLLSOURCE(RCC_OscInitStruct->PLL.PLLSource));
        assert_param(IS_RCC_PLL_MUL(RCC_OscInitStruct->PLL.PLLMUL));

        /* Disable the main PLL. */
        __HAL_RCC_PLL_DISABLE();
 8004660:	4b33      	ldr	r3, [pc, #204]	@ (8004730 <HAL_RCC_OscConfig+0x4cc>)
 8004662:	2200      	movs	r2, #0
 8004664:	601a      	str	r2, [r3, #0]

        /* Get Start Tick */
        tickstart = HAL_GetTick();
 8004666:	f7ff f853 	bl	8003710 <HAL_GetTick>
 800466a:	6138      	str	r0, [r7, #16]

        /* Wait till PLL is disabled */
        while (__HAL_RCC_GET_FLAG(RCC_FLAG_PLLRDY)  != RESET)
 800466c:	e008      	b.n	8004680 <HAL_RCC_OscConfig+0x41c>
        {
          if ((HAL_GetTick() - tickstart) > PLL_TIMEOUT_VALUE)
 800466e:	f7ff f84f 	bl	8003710 <HAL_GetTick>
 8004672:	4602      	mov	r2, r0
 8004674:	693b      	ldr	r3, [r7, #16]
 8004676:	1ad3      	subs	r3, r2, r3
 8004678:	2b02      	cmp	r3, #2
 800467a:	d901      	bls.n	8004680 <HAL_RCC_OscConfig+0x41c>
          {
            return HAL_TIMEOUT;
 800467c:	2303      	movs	r3, #3
 800467e:	e06d      	b.n	800475c <HAL_RCC_OscConfig+0x4f8>
        while (__HAL_RCC_GET_FLAG(RCC_FLAG_PLLRDY)  != RESET)
 8004680:	4b29      	ldr	r3, [pc, #164]	@ (8004728 <HAL_RCC_OscConfig+0x4c4>)
 8004682:	681b      	ldr	r3, [r3, #0]
 8004684:	f003 7300 	and.w	r3, r3, #33554432	@ 0x2000000
 8004688:	2b00      	cmp	r3, #0
 800468a:	d1f0      	bne.n	800466e <HAL_RCC_OscConfig+0x40a>
          }
        }

        /* Configure the HSE prediv factor --------------------------------*/
        /* It can be written only when the PLL is disabled. Not used in PLL source is different than HSE */
        if (RCC_OscInitStruct->PLL.PLLSource == RCC_PLLSOURCE_HSE)
 800468c:	687b      	ldr	r3, [r7, #4]
 800468e:	6a1b      	ldr	r3, [r3, #32]
 8004690:	f5b3 3f80 	cmp.w	r3, #65536	@ 0x10000
 8004694:	d108      	bne.n	80046a8 <HAL_RCC_OscConfig+0x444>
          /* Set PREDIV1 source */
          SET_BIT(RCC->CFGR2, RCC_OscInitStruct->Prediv1Source);
#endif /* RCC_CFGR2_PREDIV1SRC */

          /* Set PREDIV1 Value */
          __HAL_RCC_HSE_PREDIV_CONFIG(RCC_OscInitStruct->HSEPredivValue);
 8004696:	4b24      	ldr	r3, [pc, #144]	@ (8004728 <HAL_RCC_OscConfig+0x4c4>)
 8004698:	685b      	ldr	r3, [r3, #4]
 800469a:	f423 3200 	bic.w	r2, r3, #131072	@ 0x20000
 800469e:	687b      	ldr	r3, [r7, #4]
 80046a0:	689b      	ldr	r3, [r3, #8]
 80046a2:	4921      	ldr	r1, [pc, #132]	@ (8004728 <HAL_RCC_OscConfig+0x4c4>)
 80046a4:	4313      	orrs	r3, r2
 80046a6:	604b      	str	r3, [r1, #4]
        }

        /* Configure the main PLL clock source and multiplication factors. */
        __HAL_RCC_PLL_CONFIG(RCC_OscInitStruct->PLL.PLLSource,
 80046a8:	4b1f      	ldr	r3, [pc, #124]	@ (8004728 <HAL_RCC_OscConfig+0x4c4>)
 80046aa:	685b      	ldr	r3, [r3, #4]
 80046ac:	f423 1274 	bic.w	r2, r3, #3997696	@ 0x3d0000
 80046b0:	687b      	ldr	r3, [r7, #4]
 80046b2:	6a19      	ldr	r1, [r3, #32]
 80046b4:	687b      	ldr	r3, [r7, #4]
 80046b6:	6a5b      	ldr	r3, [r3, #36]	@ 0x24
 80046b8:	430b      	orrs	r3, r1
 80046ba:	491b      	ldr	r1, [pc, #108]	@ (8004728 <HAL_RCC_OscConfig+0x4c4>)
 80046bc:	4313      	orrs	r3, r2
 80046be:	604b      	str	r3, [r1, #4]
                             RCC_OscInitStruct->PLL.PLLMUL);
        /* Enable the main PLL. */
        __HAL_RCC_PLL_ENABLE();
 80046c0:	4b1b      	ldr	r3, [pc, #108]	@ (8004730 <HAL_RCC_OscConfig+0x4cc>)
 80046c2:	2201      	movs	r2, #1
 80046c4:	601a      	str	r2, [r3, #0]

        /* Get Start Tick */
        tickstart = HAL_GetTick();
 80046c6:	f7ff f823 	bl	8003710 <HAL_GetTick>
 80046ca:	6138      	str	r0, [r7, #16]

        /* Wait till PLL is ready */
        while (__HAL_RCC_GET_FLAG(RCC_FLAG_PLLRDY)  == RESET)
 80046cc:	e008      	b.n	80046e0 <HAL_RCC_OscConfig+0x47c>
        {
          if ((HAL_GetTick() - tickstart) > PLL_TIMEOUT_VALUE)
 80046ce:	f7ff f81f 	bl	8003710 <HAL_GetTick>
 80046d2:	4602      	mov	r2, r0
 80046d4:	693b      	ldr	r3, [r7, #16]
 80046d6:	1ad3      	subs	r3, r2, r3
 80046d8:	2b02      	cmp	r3, #2
 80046da:	d901      	bls.n	80046e0 <HAL_RCC_OscConfig+0x47c>
          {
            return HAL_TIMEOUT;
 80046dc:	2303      	movs	r3, #3
 80046de:	e03d      	b.n	800475c <HAL_RCC_OscConfig+0x4f8>
        while (__HAL_RCC_GET_FLAG(RCC_FLAG_PLLRDY)  == RESET)
 80046e0:	4b11      	ldr	r3, [pc, #68]	@ (8004728 <HAL_RCC_OscConfig+0x4c4>)
 80046e2:	681b      	ldr	r3, [r3, #0]
 80046e4:	f003 7300 	and.w	r3, r3, #33554432	@ 0x2000000
 80046e8:	2b00      	cmp	r3, #0
 80046ea:	d0f0      	beq.n	80046ce <HAL_RCC_OscConfig+0x46a>
 80046ec:	e035      	b.n	800475a <HAL_RCC_OscConfig+0x4f6>
        }
      }
      else
      {
        /* Disable the main PLL. */
        __HAL_RCC_PLL_DISABLE();
 80046ee:	4b10      	ldr	r3, [pc, #64]	@ (8004730 <HAL_RCC_OscConfig+0x4cc>)
 80046f0:	2200      	movs	r2, #0
 80046f2:	601a      	str	r2, [r3, #0]

        /* Get Start Tick */
        tickstart = HAL_GetTick();
 80046f4:	f7ff f80c 	bl	8003710 <HAL_GetTick>
 80046f8:	6138      	str	r0, [r7, #16]

        /* Wait till PLL is disabled */
        while (__HAL_RCC_GET_FLAG(RCC_FLAG_PLLRDY)  != RESET)
 80046fa:	e008      	b.n	800470e <HAL_RCC_OscConfig+0x4aa>
        {
          if ((HAL_GetTick() - tickstart) > PLL_TIMEOUT_VALUE)
 80046fc:	f7ff f808 	bl	8003710 <HAL_GetTick>
 8004700:	4602      	mov	r2, r0
 8004702:	693b      	ldr	r3, [r7, #16]
 8004704:	1ad3      	subs	r3, r2, r3
 8004706:	2b02      	cmp	r3, #2
 8004708:	d901      	bls.n	800470e <HAL_RCC_OscConfig+0x4aa>
          {
            return HAL_TIMEOUT;
 800470a:	2303      	movs	r3, #3
 800470c:	e026      	b.n	800475c <HAL_RCC_OscConfig+0x4f8>
        while (__HAL_RCC_GET_FLAG(RCC_FLAG_PLLRDY)  != RESET)
 800470e:	4b06      	ldr	r3, [pc, #24]	@ (8004728 <HAL_RCC_OscConfig+0x4c4>)
 8004710:	681b      	ldr	r3, [r3, #0]
 8004712:	f003 7300 	and.w	r3, r3, #33554432	@ 0x2000000
 8004716:	2b00      	cmp	r3, #0
 8004718:	d1f0      	bne.n	80046fc <HAL_RCC_OscConfig+0x498>
 800471a:	e01e      	b.n	800475a <HAL_RCC_OscConfig+0x4f6>
      }
    }
    else
    {
      /* Check if there is a request to disable the PLL used as System clock source */
      if ((RCC_OscInitStruct->PLL.PLLState) == RCC_PLL_OFF)
 800471c:	687b      	ldr	r3, [r7, #4]
 800471e:	69db      	ldr	r3, [r3, #28]
 8004720:	2b01      	cmp	r3, #1
 8004722:	d107      	bne.n	8004734 <HAL_RCC_OscConfig+0x4d0>
      {
        return HAL_ERROR;
 8004724:	2301      	movs	r3, #1
 8004726:	e019      	b.n	800475c <HAL_RCC_OscConfig+0x4f8>
 8004728:	40021000 	.word	0x40021000
 800472c:	40007000 	.word	0x40007000
 8004730:	42420060 	.word	0x42420060
      }
      else
      {
        /* Do not return HAL_ERROR if request repeats the current configuration */
        pll_config = RCC->CFGR;
 8004734:	4b0b      	ldr	r3, [pc, #44]	@ (8004764 <HAL_RCC_OscConfig+0x500>)
 8004736:	685b      	ldr	r3, [r3, #4]
 8004738:	60fb      	str	r3, [r7, #12]
        if ((READ_BIT(pll_config, RCC_CFGR_PLLSRC) != RCC_OscInitStruct->PLL.PLLSource) ||
 800473a:	68fb      	ldr	r3, [r7, #12]
 800473c:	f403 3280 	and.w	r2, r3, #65536	@ 0x10000
 8004740:	687b      	ldr	r3, [r7, #4]
 8004742:	6a1b      	ldr	r3, [r3, #32]
 8004744:	429a      	cmp	r2, r3
 8004746:	d106      	bne.n	8004756 <HAL_RCC_OscConfig+0x4f2>
            (READ_BIT(pll_config, RCC_CFGR_PLLMULL) != RCC_OscInitStruct->PLL.PLLMUL))
 8004748:	68fb      	ldr	r3, [r7, #12]
 800474a:	f403 1270 	and.w	r2, r3, #3932160	@ 0x3c0000
 800474e:	687b      	ldr	r3, [r7, #4]
 8004750:	6a5b      	ldr	r3, [r3, #36]	@ 0x24
        if ((READ_BIT(pll_config, RCC_CFGR_PLLSRC) != RCC_OscInitStruct->PLL.PLLSource) ||
 8004752:	429a      	cmp	r2, r3
 8004754:	d001      	beq.n	800475a <HAL_RCC_OscConfig+0x4f6>
        {
          return HAL_ERROR;
 8004756:	2301      	movs	r3, #1
 8004758:	e000      	b.n	800475c <HAL_RCC_OscConfig+0x4f8>
        }
      }
    }
  }

  return HAL_OK;
 800475a:	2300      	movs	r3, #0
}
 800475c:	4618      	mov	r0, r3
 800475e:	3718      	adds	r7, #24
 8004760:	46bd      	mov	sp, r7
 8004762:	bd80      	pop	{r7, pc}
 8004764:	40021000 	.word	0x40021000

08004768 <HAL_RCC_ClockConfig>:
  *         You can use @ref HAL_RCC_GetClockConfig() function to know which clock is
  *         currently used as system clock source.
  * @retval HAL status
  */
HAL_StatusTypeDef HAL_RCC_ClockConfig(RCC_ClkInitTypeDef  *RCC_ClkInitStruct, uint32_t FLatency)
{
 8004768:	b580      	push	{r7, lr}
 800476a:	b084      	sub	sp, #16
 800476c:	af00      	add	r7, sp, #0
 800476e:	6078      	str	r0, [r7, #4]
 8004770:	6039      	str	r1, [r7, #0]
  uint32_t tickstart;

  /* Check Null pointer */
  if (RCC_ClkInitStruct == NULL)
 8004772:	687b      	ldr	r3, [r7, #4]
 8004774:	2b00      	cmp	r3, #0
 8004776:	d101      	bne.n	800477c <HAL_RCC_ClockConfig+0x14>
  {
    return HAL_ERROR;
 8004778:	2301      	movs	r3, #1
 800477a:	e0d0      	b.n	800491e <HAL_RCC_ClockConfig+0x1b6>
  must be correctly programmed according to the frequency of the CPU clock
    (HCLK) of the device. */

#if defined(FLASH_ACR_LATENCY)
  /* Increasing the number of wait states because of higher CPU frequency */
  if (FLatency > __HAL_FLASH_GET_LATENCY())
 800477c:	4b6a      	ldr	r3, [pc, #424]	@ (8004928 <HAL_RCC_ClockConfig+0x1c0>)
 800477e:	681b      	ldr	r3, [r3, #0]
 8004780:	f003 0307 	and.w	r3, r3, #7
 8004784:	683a      	ldr	r2, [r7, #0]
 8004786:	429a      	cmp	r2, r3
 8004788:	d910      	bls.n	80047ac <HAL_RCC_ClockConfig+0x44>
  {
    /* Program the new number of wait states to the LATENCY bits in the FLASH_ACR register */
    __HAL_FLASH_SET_LATENCY(FLatency);
 800478a:	4b67      	ldr	r3, [pc, #412]	@ (8004928 <HAL_RCC_ClockConfig+0x1c0>)
 800478c:	681b      	ldr	r3, [r3, #0]
 800478e:	f023 0207 	bic.w	r2, r3, #7
 8004792:	4965      	ldr	r1, [pc, #404]	@ (8004928 <HAL_RCC_ClockConfig+0x1c0>)
 8004794:	683b      	ldr	r3, [r7, #0]
 8004796:	4313      	orrs	r3, r2
 8004798:	600b      	str	r3, [r1, #0]

    /* Check that the new number of wait states is taken into account to access the Flash
    memory by reading the FLASH_ACR register */
    if (__HAL_FLASH_GET_LATENCY() != FLatency)
 800479a:	4b63      	ldr	r3, [pc, #396]	@ (8004928 <HAL_RCC_ClockConfig+0x1c0>)
 800479c:	681b      	ldr	r3, [r3, #0]
 800479e:	f003 0307 	and.w	r3, r3, #7
 80047a2:	683a      	ldr	r2, [r7, #0]
 80047a4:	429a      	cmp	r2, r3
 80047a6:	d001      	beq.n	80047ac <HAL_RCC_ClockConfig+0x44>
  {
    return HAL_ERROR;
 80047a8:	2301      	movs	r3, #1
 80047aa:	e0b8      	b.n	800491e <HAL_RCC_ClockConfig+0x1b6>
  }
}

#endif /* FLASH_ACR_LATENCY */
/*-------------------------- HCLK Configuration --------------------------*/
if (((RCC_ClkInitStruct->ClockType) & RCC_CLOCKTYPE_HCLK) == RCC_CLOCKTYPE_HCLK)
 80047ac:	687b      	ldr	r3, [r7, #4]
 80047ae:	681b      	ldr	r3, [r3, #0]
 80047b0:	f003 0302 	and.w	r3, r3, #2
 80047b4:	2b00      	cmp	r3, #0
 80047b6:	d020      	beq.n	80047fa <HAL_RCC_ClockConfig+0x92>
  {
    /* Set the highest APBx dividers in order to ensure that we do not go through
    a non-spec phase whatever we decrease or increase HCLK. */
    if (((RCC_ClkInitStruct->ClockType) & RCC_CLOCKTYPE_PCLK1) == RCC_CLOCKTYPE_PCLK1)
 80047b8:	687b      	ldr	r3, [r7, #4]
 80047ba:	681b      	ldr	r3, [r3, #0]
 80047bc:	f003 0304 	and.w	r3, r3, #4
 80047c0:	2b00      	cmp	r3, #0
 80047c2:	d005      	beq.n	80047d0 <HAL_RCC_ClockConfig+0x68>
    {
      MODIFY_REG(RCC->CFGR, RCC_CFGR_PPRE1, RCC_HCLK_DIV16);
 80047c4:	4b59      	ldr	r3, [pc, #356]	@ (800492c <HAL_RCC_ClockConfig+0x1c4>)
 80047c6:	685b      	ldr	r3, [r3, #4]
 80047c8:	4a58      	ldr	r2, [pc, #352]	@ (800492c <HAL_RCC_ClockConfig+0x1c4>)
 80047ca:	f443 63e0 	orr.w	r3, r3, #1792	@ 0x700
 80047ce:	6053      	str	r3, [r2, #4]
    }

    if (((RCC_ClkInitStruct->ClockType) & RCC_CLOCKTYPE_PCLK2) == RCC_CLOCKTYPE_PCLK2)
 80047d0:	687b      	ldr	r3, [r7, #4]
 80047d2:	681b      	ldr	r3, [r3, #0]
 80047d4:	f003 0308 	and.w	r3, r3, #8
 80047d8:	2b00      	cmp	r3, #0
 80047da:	d005      	beq.n	80047e8 <HAL_RCC_ClockConfig+0x80>
    {
      MODIFY_REG(RCC->CFGR, RCC_CFGR_PPRE2, (RCC_HCLK_DIV16 << 3));
 80047dc:	4b53      	ldr	r3, [pc, #332]	@ (800492c <HAL_RCC_ClockConfig+0x1c4>)
 80047de:	685b      	ldr	r3, [r3, #4]
 80047e0:	4a52      	ldr	r2, [pc, #328]	@ (800492c <HAL_RCC_ClockConfig+0x1c4>)
 80047e2:	f443 5360 	orr.w	r3, r3, #14336	@ 0x3800
 80047e6:	6053      	str	r3, [r2, #4]
    }

    /* Set the new HCLK clock divider */
    assert_param(IS_RCC_HCLK(RCC_ClkInitStruct->AHBCLKDivider));
    MODIFY_REG(RCC->CFGR, RCC_CFGR_HPRE, RCC_ClkInitStruct->AHBCLKDivider);
 80047e8:	4b50      	ldr	r3, [pc, #320]	@ (800492c <HAL_RCC_ClockConfig+0x1c4>)
 80047ea:	685b      	ldr	r3, [r3, #4]
 80047ec:	f023 02f0 	bic.w	r2, r3, #240	@ 0xf0
 80047f0:	687b      	ldr	r3, [r7, #4]
 80047f2:	689b      	ldr	r3, [r3, #8]
 80047f4:	494d      	ldr	r1, [pc, #308]	@ (800492c <HAL_RCC_ClockConfig+0x1c4>)
 80047f6:	4313      	orrs	r3, r2
 80047f8:	604b      	str	r3, [r1, #4]
  }

  /*------------------------- SYSCLK Configuration ---------------------------*/
  if (((RCC_ClkInitStruct->ClockType) & RCC_CLOCKTYPE_SYSCLK) == RCC_CLOCKTYPE_SYSCLK)
 80047fa:	687b      	ldr	r3, [r7, #4]
 80047fc:	681b      	ldr	r3, [r3, #0]
 80047fe:	f003 0301 	and.w	r3, r3, #1
 8004802:	2b00      	cmp	r3, #0
 8004804:	d040      	beq.n	8004888 <HAL_RCC_ClockConfig+0x120>
  {
    assert_param(IS_RCC_SYSCLKSOURCE(RCC_ClkInitStruct->SYSCLKSource));

    /* HSE is selected as System Clock Source */
    if (RCC_ClkInitStruct->SYSCLKSource == RCC_SYSCLKSOURCE_HSE)
 8004806:	687b      	ldr	r3, [r7, #4]
 8004808:	685b      	ldr	r3, [r3, #4]
 800480a:	2b01      	cmp	r3, #1
 800480c:	d107      	bne.n	800481e <HAL_RCC_ClockConfig+0xb6>
    {
      /* Check the HSE ready flag */
      if (__HAL_RCC_GET_FLAG(RCC_FLAG_HSERDY) == RESET)
 800480e:	4b47      	ldr	r3, [pc, #284]	@ (800492c <HAL_RCC_ClockConfig+0x1c4>)
 8004810:	681b      	ldr	r3, [r3, #0]
 8004812:	f403 3300 	and.w	r3, r3, #131072	@ 0x20000
 8004816:	2b00      	cmp	r3, #0
 8004818:	d115      	bne.n	8004846 <HAL_RCC_ClockConfig+0xde>
      {
        return HAL_ERROR;
 800481a:	2301      	movs	r3, #1
 800481c:	e07f      	b.n	800491e <HAL_RCC_ClockConfig+0x1b6>
      }
    }
    /* PLL is selected as System Clock Source */
    else if (RCC_ClkInitStruct->SYSCLKSource == RCC_SYSCLKSOURCE_PLLCLK)
 800481e:	687b      	ldr	r3, [r7, #4]
 8004820:	685b      	ldr	r3, [r3, #4]
 8004822:	2b02      	cmp	r3, #2
 8004824:	d107      	bne.n	8004836 <HAL_RCC_ClockConfig+0xce>
    {
      /* Check the PLL ready flag */
      if (__HAL_RCC_GET_FLAG(RCC_FLAG_PLLRDY) == RESET)
 8004826:	4b41      	ldr	r3, [pc, #260]	@ (800492c <HAL_RCC_ClockConfig+0x1c4>)
 8004828:	681b      	ldr	r3, [r3, #0]
 800482a:	f003 7300 	and.w	r3, r3, #33554432	@ 0x2000000
 800482e:	2b00      	cmp	r3, #0
 8004830:	d109      	bne.n	8004846 <HAL_RCC_ClockConfig+0xde>
      {
        return HAL_ERROR;
 8004832:	2301      	movs	r3, #1
 8004834:	e073      	b.n	800491e <HAL_RCC_ClockConfig+0x1b6>
    }
    /* HSI is selected as System Clock Source */
    else
    {
      /* Check the HSI ready flag */
      if (__HAL_RCC_GET_FLAG(RCC_FLAG_HSIRDY) == RESET)
 8004836:	4b3d      	ldr	r3, [pc, #244]	@ (800492c <HAL_RCC_ClockConfig+0x1c4>)
 8004838:	681b      	ldr	r3, [r3, #0]
 800483a:	f003 0302 	and.w	r3, r3, #2
 800483e:	2b00      	cmp	r3, #0
 8004840:	d101      	bne.n	8004846 <HAL_RCC_ClockConfig+0xde>
      {
        return HAL_ERROR;
 8004842:	2301      	movs	r3, #1
 8004844:	e06b      	b.n	800491e <HAL_RCC_ClockConfig+0x1b6>
      }
    }
    __HAL_RCC_SYSCLK_CONFIG(RCC_ClkInitStruct->SYSCLKSource);
 8004846:	4b39      	ldr	r3, [pc, #228]	@ (800492c <HAL_RCC_ClockConfig+0x1c4>)
 8004848:	685b      	ldr	r3, [r3, #4]
 800484a:	f023 0203 	bic.w	r2, r3, #3
 800484e:	687b      	ldr	r3, [r7, #4]
 8004850:	685b      	ldr	r3, [r3, #4]
 8004852:	4936      	ldr	r1, [pc, #216]	@ (800492c <HAL_RCC_ClockConfig+0x1c4>)
 8004854:	4313      	orrs	r3, r2
 8004856:	604b      	str	r3, [r1, #4]

    /* Get Start Tick */
    tickstart = HAL_GetTick();
 8004858:	f7fe ff5a 	bl	8003710 <HAL_GetTick>
 800485c:	60f8      	str	r0, [r7, #12]

    while (__HAL_RCC_GET_SYSCLK_SOURCE() != (RCC_ClkInitStruct->SYSCLKSource << RCC_CFGR_SWS_Pos))
 800485e:	e00a      	b.n	8004876 <HAL_RCC_ClockConfig+0x10e>
    {
      if ((HAL_GetTick() - tickstart) > CLOCKSWITCH_TIMEOUT_VALUE)
 8004860:	f7fe ff56 	bl	8003710 <HAL_GetTick>
 8004864:	4602      	mov	r2, r0
 8004866:	68fb      	ldr	r3, [r7, #12]
 8004868:	1ad3      	subs	r3, r2, r3
 800486a:	f241 3288 	movw	r2, #5000	@ 0x1388
 800486e:	4293      	cmp	r3, r2
 8004870:	d901      	bls.n	8004876 <HAL_RCC_ClockConfig+0x10e>
      {
        return HAL_TIMEOUT;
 8004872:	2303      	movs	r3, #3
 8004874:	e053      	b.n	800491e <HAL_RCC_ClockConfig+0x1b6>
    while (__HAL_RCC_GET_SYSCLK_SOURCE() != (RCC_ClkInitStruct->SYSCLKSource << RCC_CFGR_SWS_Pos))
 8004876:	4b2d      	ldr	r3, [pc, #180]	@ (800492c <HAL_RCC_ClockConfig+0x1c4>)
 8004878:	685b      	ldr	r3, [r3, #4]
 800487a:	f003 020c 	and.w	r2, r3, #12
 800487e:	687b      	ldr	r3, [r7, #4]
 8004880:	685b      	ldr	r3, [r3, #4]
 8004882:	009b      	lsls	r3, r3, #2
 8004884:	429a      	cmp	r2, r3
 8004886:	d1eb      	bne.n	8004860 <HAL_RCC_ClockConfig+0xf8>
    }
  }

#if defined(FLASH_ACR_LATENCY)
  /* Decreasing the number of wait states because of lower CPU frequency */
  if (FLatency < __HAL_FLASH_GET_LATENCY())
 8004888:	4b27      	ldr	r3, [pc, #156]	@ (8004928 <HAL_RCC_ClockConfig+0x1c0>)
 800488a:	681b      	ldr	r3, [r3, #0]
 800488c:	f003 0307 	and.w	r3, r3, #7
 8004890:	683a      	ldr	r2, [r7, #0]
 8004892:	429a      	cmp	r2, r3
 8004894:	d210      	bcs.n	80048b8 <HAL_RCC_ClockConfig+0x150>
  {
    /* Program the new number of wait states to the LATENCY bits in the FLASH_ACR register */
    __HAL_FLASH_SET_LATENCY(FLatency);
 8004896:	4b24      	ldr	r3, [pc, #144]	@ (8004928 <HAL_RCC_ClockConfig+0x1c0>)
 8004898:	681b      	ldr	r3, [r3, #0]
 800489a:	f023 0207 	bic.w	r2, r3, #7
 800489e:	4922      	ldr	r1, [pc, #136]	@ (8004928 <HAL_RCC_ClockConfig+0x1c0>)
 80048a0:	683b      	ldr	r3, [r7, #0]
 80048a2:	4313      	orrs	r3, r2
 80048a4:	600b      	str	r3, [r1, #0]

    /* Check that the new number of wait states is taken into account to access the Flash
    memory by reading the FLASH_ACR register */
    if (__HAL_FLASH_GET_LATENCY() != FLatency)
 80048a6:	4b20      	ldr	r3, [pc, #128]	@ (8004928 <HAL_RCC_ClockConfig+0x1c0>)
 80048a8:	681b      	ldr	r3, [r3, #0]
 80048aa:	f003 0307 	and.w	r3, r3, #7
 80048ae:	683a      	ldr	r2, [r7, #0]
 80048b0:	429a      	cmp	r2, r3
 80048b2:	d001      	beq.n	80048b8 <HAL_RCC_ClockConfig+0x150>
  {
    return HAL_ERROR;
 80048b4:	2301      	movs	r3, #1
 80048b6:	e032      	b.n	800491e <HAL_RCC_ClockConfig+0x1b6>
  }
}
#endif /* FLASH_ACR_LATENCY */

/*-------------------------- PCLK1 Configuration ---------------------------*/
if (((RCC_ClkInitStruct->ClockType) & RCC_CLOCKTYPE_PCLK1) == RCC_CLOCKTYPE_PCLK1)
 80048b8:	687b      	ldr	r3, [r7, #4]
 80048ba:	681b      	ldr	r3, [r3, #0]
 80048bc:	f003 0304 	and.w	r3, r3, #4
 80048c0:	2b00      	cmp	r3, #0
 80048c2:	d008      	beq.n	80048d6 <HAL_RCC_ClockConfig+0x16e>
  {
    assert_param(IS_RCC_PCLK(RCC_ClkInitStruct->APB1CLKDivider));
    MODIFY_REG(RCC->CFGR, RCC_CFGR_PPRE1, RCC_ClkInitStruct->APB1CLKDivider);
 80048c4:	4b19      	ldr	r3, [pc, #100]	@ (800492c <HAL_RCC_ClockConfig+0x1c4>)
 80048c6:	685b      	ldr	r3, [r3, #4]
 80048c8:	f423 62e0 	bic.w	r2, r3, #1792	@ 0x700
 80048cc:	687b      	ldr	r3, [r7, #4]
 80048ce:	68db      	ldr	r3, [r3, #12]
 80048d0:	4916      	ldr	r1, [pc, #88]	@ (800492c <HAL_RCC_ClockConfig+0x1c4>)
 80048d2:	4313      	orrs	r3, r2
 80048d4:	604b      	str	r3, [r1, #4]
  }

  /*-------------------------- PCLK2 Configuration ---------------------------*/
  if (((RCC_ClkInitStruct->ClockType) & RCC_CLOCKTYPE_PCLK2) == RCC_CLOCKTYPE_PCLK2)
 80048d6:	687b      	ldr	r3, [r7, #4]
 80048d8:	681b      	ldr	r3, [r3, #0]
 80048da:	f003 0308 	and.w	r3, r3, #8
 80048de:	2b00      	cmp	r3, #0
 80048e0:	d009      	beq.n	80048f6 <HAL_RCC_ClockConfig+0x18e>
  {
    assert_param(IS_RCC_PCLK(RCC_ClkInitStruct->APB2CLKDivider));
    MODIFY_REG(RCC->CFGR, RCC_CFGR_PPRE2, ((RCC_ClkInitStruct->APB2CLKDivider) << 3));
 80048e2:	4b12      	ldr	r3, [pc, #72]	@ (800492c <HAL_RCC_ClockConfig+0x1c4>)
 80048e4:	685b      	ldr	r3, [r3, #4]
 80048e6:	f423 5260 	bic.w	r2, r3, #14336	@ 0x3800
 80048ea:	687b      	ldr	r3, [r7, #4]
 80048ec:	691b      	ldr	r3, [r3, #16]
 80048ee:	00db      	lsls	r3, r3, #3
 80048f0:	490e      	ldr	r1, [pc, #56]	@ (800492c <HAL_RCC_ClockConfig+0x1c4>)
 80048f2:	4313      	orrs	r3, r2
 80048f4:	604b      	str	r3, [r1, #4]
  }

  /* Update the SystemCoreClock global variable */
  SystemCoreClock = HAL_RCC_GetSysClockFreq() >> AHBPrescTable[(RCC->CFGR & RCC_CFGR_HPRE) >> RCC_CFGR_HPRE_Pos];
 80048f6:	f000 f821 	bl	800493c <HAL_RCC_GetSysClockFreq>
 80048fa:	4602      	mov	r2, r0
 80048fc:	4b0b      	ldr	r3, [pc, #44]	@ (800492c <HAL_RCC_ClockConfig+0x1c4>)
 80048fe:	685b      	ldr	r3, [r3, #4]
 8004900:	091b      	lsrs	r3, r3, #4
 8004902:	f003 030f 	and.w	r3, r3, #15
 8004906:	490a      	ldr	r1, [pc, #40]	@ (8004930 <HAL_RCC_ClockConfig+0x1c8>)
 8004908:	5ccb      	ldrb	r3, [r1, r3]
 800490a:	fa22 f303 	lsr.w	r3, r2, r3
 800490e:	4a09      	ldr	r2, [pc, #36]	@ (8004934 <HAL_RCC_ClockConfig+0x1cc>)
 8004910:	6013      	str	r3, [r2, #0]

  /* Configure the source of time base considering new system clocks settings*/
  HAL_InitTick(uwTickPrio);
 8004912:	4b09      	ldr	r3, [pc, #36]	@ (8004938 <HAL_RCC_ClockConfig+0x1d0>)
 8004914:	681b      	ldr	r3, [r3, #0]
 8004916:	4618      	mov	r0, r3
 8004918:	f7fe feb8 	bl	800368c <HAL_InitTick>

  return HAL_OK;
 800491c:	2300      	movs	r3, #0
}
 800491e:	4618      	mov	r0, r3
 8004920:	3710      	adds	r7, #16
 8004922:	46bd      	mov	sp, r7
 8004924:	bd80      	pop	{r7, pc}
 8004926:	bf00      	nop
 8004928:	40022000 	.word	0x40022000
 800492c:	40021000 	.word	0x40021000
 8004930:	08008344 	.word	0x08008344
 8004934:	20000024 	.word	0x20000024
 8004938:	20000028 	.word	0x20000028

0800493c <HAL_RCC_GetSysClockFreq>:
  *         right SYSCLK value. Otherwise, any configuration based on this function will be incorrect.
  *
  * @retval SYSCLK frequency
  */
uint32_t HAL_RCC_GetSysClockFreq(void)
{
 800493c:	b480      	push	{r7}
 800493e:	b087      	sub	sp, #28
 8004940:	af00      	add	r7, sp, #0
#else
  static const uint8_t aPredivFactorTable[2U] = {1, 2};
#endif /*RCC_CFGR2_PREDIV1*/

#endif
  uint32_t tmpreg = 0U, prediv = 0U, pllclk = 0U, pllmul = 0U;
 8004942:	2300      	movs	r3, #0
 8004944:	60fb      	str	r3, [r7, #12]
 8004946:	2300      	movs	r3, #0
 8004948:	60bb      	str	r3, [r7, #8]
 800494a:	2300      	movs	r3, #0
 800494c:	617b      	str	r3, [r7, #20]
 800494e:	2300      	movs	r3, #0
 8004950:	607b      	str	r3, [r7, #4]
  uint32_t sysclockfreq = 0U;
 8004952:	2300      	movs	r3, #0
 8004954:	613b      	str	r3, [r7, #16]
#if defined(RCC_CFGR2_PREDIV1SRC)
  uint32_t prediv2 = 0U, pll2mul = 0U;
#endif /*RCC_CFGR2_PREDIV1SRC*/

  tmpreg = RCC->CFGR;
 8004956:	4b1e      	ldr	r3, [pc, #120]	@ (80049d0 <HAL_RCC_GetSysClockFreq+0x94>)
 8004958:	685b      	ldr	r3, [r3, #4]
 800495a:	60fb      	str	r3, [r7, #12]

  /* Get SYSCLK source -------------------------------------------------------*/
  switch (tmpreg & RCC_CFGR_SWS)
 800495c:	68fb      	ldr	r3, [r7, #12]
 800495e:	f003 030c 	and.w	r3, r3, #12
 8004962:	2b04      	cmp	r3, #4
 8004964:	d002      	beq.n	800496c <HAL_RCC_GetSysClockFreq+0x30>
 8004966:	2b08      	cmp	r3, #8
 8004968:	d003      	beq.n	8004972 <HAL_RCC_GetSysClockFreq+0x36>
 800496a:	e027      	b.n	80049bc <HAL_RCC_GetSysClockFreq+0x80>
  {
    case RCC_SYSCLKSOURCE_STATUS_HSE:  /* HSE used as system clock */
    {
      sysclockfreq = HSE_VALUE;
 800496c:	4b19      	ldr	r3, [pc, #100]	@ (80049d4 <HAL_RCC_GetSysClockFreq+0x98>)
 800496e:	613b      	str	r3, [r7, #16]
      break;
 8004970:	e027      	b.n	80049c2 <HAL_RCC_GetSysClockFreq+0x86>
    }
    case RCC_SYSCLKSOURCE_STATUS_PLLCLK:  /* PLL used as system clock */
    {
      pllmul = aPLLMULFactorTable[(uint32_t)(tmpreg & RCC_CFGR_PLLMULL) >> RCC_CFGR_PLLMULL_Pos];
 8004972:	68fb      	ldr	r3, [r7, #12]
 8004974:	0c9b      	lsrs	r3, r3, #18
 8004976:	f003 030f 	and.w	r3, r3, #15
 800497a:	4a17      	ldr	r2, [pc, #92]	@ (80049d8 <HAL_RCC_GetSysClockFreq+0x9c>)
 800497c:	5cd3      	ldrb	r3, [r2, r3]
 800497e:	607b      	str	r3, [r7, #4]
      if ((tmpreg & RCC_CFGR_PLLSRC) != RCC_PLLSOURCE_HSI_DIV2)
 8004980:	68fb      	ldr	r3, [r7, #12]
 8004982:	f403 3380 	and.w	r3, r3, #65536	@ 0x10000
 8004986:	2b00      	cmp	r3, #0
 8004988:	d010      	beq.n	80049ac <HAL_RCC_GetSysClockFreq+0x70>
      {
#if defined(RCC_CFGR2_PREDIV1)
        prediv = aPredivFactorTable[(uint32_t)(RCC->CFGR2 & RCC_CFGR2_PREDIV1) >> RCC_CFGR2_PREDIV1_Pos];
#else
        prediv = aPredivFactorTable[(uint32_t)(RCC->CFGR & RCC_CFGR_PLLXTPRE) >> RCC_CFGR_PLLXTPRE_Pos];
 800498a:	4b11      	ldr	r3, [pc, #68]	@ (80049d0 <HAL_RCC_GetSysClockFreq+0x94>)
 800498c:	685b      	ldr	r3, [r3, #4]
 800498e:	0c5b      	lsrs	r3, r3, #17
 8004990:	f003 0301 	and.w	r3, r3, #1
 8004994:	4a11      	ldr	r2, [pc, #68]	@ (80049dc <HAL_RCC_GetSysClockFreq+0xa0>)
 8004996:	5cd3      	ldrb	r3, [r2, r3]
 8004998:	60bb      	str	r3, [r7, #8]
        {
          pllclk = pllclk / 2;
        }
#else
        /* HSE used as PLL clock source : PLLCLK = HSE/PREDIV1 * PLLMUL */
        pllclk = (uint32_t)((HSE_VALUE  * pllmul) / prediv);
 800499a:	687b      	ldr	r3, [r7, #4]
 800499c:	4a0d      	ldr	r2, [pc, #52]	@ (80049d4 <HAL_RCC_GetSysClockFreq+0x98>)
 800499e:	fb03 f202 	mul.w	r2, r3, r2
 80049a2:	68bb      	ldr	r3, [r7, #8]
 80049a4:	fbb2 f3f3 	udiv	r3, r2, r3
 80049a8:	617b      	str	r3, [r7, #20]
 80049aa:	e004      	b.n	80049b6 <HAL_RCC_GetSysClockFreq+0x7a>
#endif /*RCC_CFGR2_PREDIV1SRC*/
      }
      else
      {
        /* HSI used as PLL clock source : PLLCLK = HSI/2 * PLLMUL */
        pllclk = (uint32_t)((HSI_VALUE >> 1) * pllmul);
 80049ac:	687b      	ldr	r3, [r7, #4]
 80049ae:	4a0c      	ldr	r2, [pc, #48]	@ (80049e0 <HAL_RCC_GetSysClockFreq+0xa4>)
 80049b0:	fb02 f303 	mul.w	r3, r2, r3
 80049b4:	617b      	str	r3, [r7, #20]
      }
      sysclockfreq = pllclk;
 80049b6:	697b      	ldr	r3, [r7, #20]
 80049b8:	613b      	str	r3, [r7, #16]
      break;
 80049ba:	e002      	b.n	80049c2 <HAL_RCC_GetSysClockFreq+0x86>
    }
    case RCC_SYSCLKSOURCE_STATUS_HSI:  /* HSI used as system clock source */
    default: /* HSI used as system clock */
    {
      sysclockfreq = HSI_VALUE;
 80049bc:	4b05      	ldr	r3, [pc, #20]	@ (80049d4 <HAL_RCC_GetSysClockFreq+0x98>)
 80049be:	613b      	str	r3, [r7, #16]
      break;
 80049c0:	bf00      	nop
    }
  }
  return sysclockfreq;
 80049c2:	693b      	ldr	r3, [r7, #16]
}
 80049c4:	4618      	mov	r0, r3
 80049c6:	371c      	adds	r7, #28
 80049c8:	46bd      	mov	sp, r7
 80049ca:	bc80      	pop	{r7}
 80049cc:	4770      	bx	lr
 80049ce:	bf00      	nop
 80049d0:	40021000 	.word	0x40021000
 80049d4:	007a1200 	.word	0x007a1200
 80049d8:	0800835c 	.word	0x0800835c
 80049dc:	0800836c 	.word	0x0800836c
 80049e0:	003d0900 	.word	0x003d0900

080049e4 <HAL_RCC_GetHCLKFreq>:
  * @note   The SystemCoreClock CMSIS variable is used to store System Clock Frequency
  *         and updated within this function
  * @retval HCLK frequency
  */
uint32_t HAL_RCC_GetHCLKFreq(void)
{
 80049e4:	b480      	push	{r7}
 80049e6:	af00      	add	r7, sp, #0
  return SystemCoreClock;
 80049e8:	4b02      	ldr	r3, [pc, #8]	@ (80049f4 <HAL_RCC_GetHCLKFreq+0x10>)
 80049ea:	681b      	ldr	r3, [r3, #0]
}
 80049ec:	4618      	mov	r0, r3
 80049ee:	46bd      	mov	sp, r7
 80049f0:	bc80      	pop	{r7}
 80049f2:	4770      	bx	lr
 80049f4:	20000024 	.word	0x20000024

080049f8 <HAL_RCC_GetPCLK1Freq>:
  * @note   Each time PCLK1 changes, this function must be called to update the
  *         right PCLK1 value. Otherwise, any configuration based on this function will be incorrect.
  * @retval PCLK1 frequency
  */
uint32_t HAL_RCC_GetPCLK1Freq(void)
{
 80049f8:	b580      	push	{r7, lr}
 80049fa:	af00      	add	r7, sp, #0
  /* Get HCLK source and Compute PCLK1 frequency ---------------------------*/
  return (HAL_RCC_GetHCLKFreq() >> APBPrescTable[(RCC->CFGR & RCC_CFGR_PPRE1) >> RCC_CFGR_PPRE1_Pos]);
 80049fc:	f7ff fff2 	bl	80049e4 <HAL_RCC_GetHCLKFreq>
 8004a00:	4602      	mov	r2, r0
 8004a02:	4b05      	ldr	r3, [pc, #20]	@ (8004a18 <HAL_RCC_GetPCLK1Freq+0x20>)
 8004a04:	685b      	ldr	r3, [r3, #4]
 8004a06:	0a1b      	lsrs	r3, r3, #8
 8004a08:	f003 0307 	and.w	r3, r3, #7
 8004a0c:	4903      	ldr	r1, [pc, #12]	@ (8004a1c <HAL_RCC_GetPCLK1Freq+0x24>)
 8004a0e:	5ccb      	ldrb	r3, [r1, r3]
 8004a10:	fa22 f303 	lsr.w	r3, r2, r3
}
 8004a14:	4618      	mov	r0, r3
 8004a16:	bd80      	pop	{r7, pc}
 8004a18:	40021000 	.word	0x40021000
 8004a1c:	08008354 	.word	0x08008354

08004a20 <HAL_RCC_GetPCLK2Freq>:
  * @note   Each time PCLK2 changes, this function must be called to update the
  *         right PCLK2 value. Otherwise, any configuration based on this function will be incorrect.
  * @retval PCLK2 frequency
  */
uint32_t HAL_RCC_GetPCLK2Freq(void)
{
 8004a20:	b580      	push	{r7, lr}
 8004a22:	af00      	add	r7, sp, #0
  /* Get HCLK source and Compute PCLK2 frequency ---------------------------*/
  return (HAL_RCC_GetHCLKFreq() >> APBPrescTable[(RCC->CFGR & RCC_CFGR_PPRE2) >> RCC_CFGR_PPRE2_Pos]);
 8004a24:	f7ff ffde 	bl	80049e4 <HAL_RCC_GetHCLKFreq>
 8004a28:	4602      	mov	r2, r0
 8004a2a:	4b05      	ldr	r3, [pc, #20]	@ (8004a40 <HAL_RCC_GetPCLK2Freq+0x20>)
 8004a2c:	685b      	ldr	r3, [r3, #4]
 8004a2e:	0adb      	lsrs	r3, r3, #11
 8004a30:	f003 0307 	and.w	r3, r3, #7
 8004a34:	4903      	ldr	r1, [pc, #12]	@ (8004a44 <HAL_RCC_GetPCLK2Freq+0x24>)
 8004a36:	5ccb      	ldrb	r3, [r1, r3]
 8004a38:	fa22 f303 	lsr.w	r3, r2, r3
}
 8004a3c:	4618      	mov	r0, r3
 8004a3e:	bd80      	pop	{r7, pc}
 8004a40:	40021000 	.word	0x40021000
 8004a44:	08008354 	.word	0x08008354

08004a48 <RCC_Delay>:
  * @brief  This function provides delay (in milliseconds) based on CPU cycles method.
  * @param  mdelay: specifies the delay time length, in milliseconds.
  * @retval None
  */
static void RCC_Delay(uint32_t mdelay)
{
 8004a48:	b480      	push	{r7}
 8004a4a:	b085      	sub	sp, #20
 8004a4c:	af00      	add	r7, sp, #0
 8004a4e:	6078      	str	r0, [r7, #4]
  __IO uint32_t Delay = mdelay * (SystemCoreClock / 8U / 1000U);
 8004a50:	4b0a      	ldr	r3, [pc, #40]	@ (8004a7c <RCC_Delay+0x34>)
 8004a52:	681b      	ldr	r3, [r3, #0]
 8004a54:	4a0a      	ldr	r2, [pc, #40]	@ (8004a80 <RCC_Delay+0x38>)
 8004a56:	fba2 2303 	umull	r2, r3, r2, r3
 8004a5a:	0a5b      	lsrs	r3, r3, #9
 8004a5c:	687a      	ldr	r2, [r7, #4]
 8004a5e:	fb02 f303 	mul.w	r3, r2, r3
 8004a62:	60fb      	str	r3, [r7, #12]
  do
  {
    __NOP();
 8004a64:	bf00      	nop
  }
  while (Delay --);
 8004a66:	68fb      	ldr	r3, [r7, #12]
 8004a68:	1e5a      	subs	r2, r3, #1
 8004a6a:	60fa      	str	r2, [r7, #12]
 8004a6c:	2b00      	cmp	r3, #0
 8004a6e:	d1f9      	bne.n	8004a64 <RCC_Delay+0x1c>
}
 8004a70:	bf00      	nop
 8004a72:	bf00      	nop
 8004a74:	3714      	adds	r7, #20
 8004a76:	46bd      	mov	sp, r7
 8004a78:	bc80      	pop	{r7}
 8004a7a:	4770      	bx	lr
 8004a7c:	20000024 	.word	0x20000024
 8004a80:	10624dd3 	.word	0x10624dd3

08004a84 <HAL_UART_Init>:
  * @param  huart  Pointer to a UART_HandleTypeDef structure that contains
  *                the configuration information for the specified UART module.
  * @retval HAL status
  */
HAL_StatusTypeDef HAL_UART_Init(UART_HandleTypeDef *huart)
{
 8004a84:	b580      	push	{r7, lr}
 8004a86:	b082      	sub	sp, #8
 8004a88:	af00      	add	r7, sp, #0
 8004a8a:	6078      	str	r0, [r7, #4]
  /* Check the UART handle allocation */
  if (huart == NULL)
 8004a8c:	687b      	ldr	r3, [r7, #4]
 8004a8e:	2b00      	cmp	r3, #0
 8004a90:	d101      	bne.n	8004a96 <HAL_UART_Init+0x12>
  {
    return HAL_ERROR;
 8004a92:	2301      	movs	r3, #1
 8004a94:	e042      	b.n	8004b1c <HAL_UART_Init+0x98>
  assert_param(IS_UART_WORD_LENGTH(huart->Init.WordLength));
#if defined(USART_CR1_OVER8)
  assert_param(IS_UART_OVERSAMPLING(huart->Init.OverSampling));
#endif /* USART_CR1_OVER8 */

  if (huart->gState == HAL_UART_STATE_RESET)
 8004a96:	687b      	ldr	r3, [r7, #4]
 8004a98:	f893 3041 	ldrb.w	r3, [r3, #65]	@ 0x41
 8004a9c:	b2db      	uxtb	r3, r3
 8004a9e:	2b00      	cmp	r3, #0
 8004aa0:	d106      	bne.n	8004ab0 <HAL_UART_Init+0x2c>
  {
    /* Allocate lock resource and initialize it */
    huart->Lock = HAL_UNLOCKED;
 8004aa2:	687b      	ldr	r3, [r7, #4]
 8004aa4:	2200      	movs	r2, #0
 8004aa6:	f883 2040 	strb.w	r2, [r3, #64]	@ 0x40

    /* Init the low level hardware */
    huart->MspInitCallback(huart);
#else
    /* Init the low level hardware : GPIO, CLOCK */
    HAL_UART_MspInit(huart);
 8004aaa:	6878      	ldr	r0, [r7, #4]
 8004aac:	f7fe fc7e 	bl	80033ac <HAL_UART_MspInit>
#endif /* (USE_HAL_UART_REGISTER_CALLBACKS) */
  }

  huart->gState = HAL_UART_STATE_BUSY;
 8004ab0:	687b      	ldr	r3, [r7, #4]
 8004ab2:	2224      	movs	r2, #36	@ 0x24
 8004ab4:	f883 2041 	strb.w	r2, [r3, #65]	@ 0x41

  /* Disable the peripheral */
  __HAL_UART_DISABLE(huart);
 8004ab8:	687b      	ldr	r3, [r7, #4]
 8004aba:	681b      	ldr	r3, [r3, #0]
 8004abc:	68da      	ldr	r2, [r3, #12]
 8004abe:	687b      	ldr	r3, [r7, #4]
 8004ac0:	681b      	ldr	r3, [r3, #0]
 8004ac2:	f422 5200 	bic.w	r2, r2, #8192	@ 0x2000
 8004ac6:	60da      	str	r2, [r3, #12]

  /* Set the UART Communication parameters */
  UART_SetConfig(huart);
 8004ac8:	6878      	ldr	r0, [r7, #4]
 8004aca:	f001 f8a9 	bl	8005c20 <UART_SetConfig>

  /* In asynchronous mode, the following bits must be kept cleared:
     - LINEN and CLKEN bits in the USART_CR2 register,
     - SCEN, HDSEL and IREN  bits in the USART_CR3 register.*/
  CLEAR_BIT(huart->Instance->CR2, (USART_CR2_LINEN | USART_CR2_CLKEN));
 8004ace:	687b      	ldr	r3, [r7, #4]
 8004ad0:	681b      	ldr	r3, [r3, #0]
 8004ad2:	691a      	ldr	r2, [r3, #16]
 8004ad4:	687b      	ldr	r3, [r7, #4]
 8004ad6:	681b      	ldr	r3, [r3, #0]
 8004ad8:	f422 4290 	bic.w	r2, r2, #18432	@ 0x4800
 8004adc:	611a      	str	r2, [r3, #16]
  CLEAR_BIT(huart->Instance->CR3, (USART_CR3_SCEN | USART_CR3_HDSEL | USART_CR3_IREN));
 8004ade:	687b      	ldr	r3, [r7, #4]
 8004ae0:	681b      	ldr	r3, [r3, #0]
 8004ae2:	695a      	ldr	r2, [r3, #20]
 8004ae4:	687b      	ldr	r3, [r7, #4]
 8004ae6:	681b      	ldr	r3, [r3, #0]
 8004ae8:	f022 022a 	bic.w	r2, r2, #42	@ 0x2a
 8004aec:	615a      	str	r2, [r3, #20]

  /* Enable the peripheral */
  __HAL_UART_ENABLE(huart);
 8004aee:	687b      	ldr	r3, [r7, #4]
 8004af0:	681b      	ldr	r3, [r3, #0]
 8004af2:	68da      	ldr	r2, [r3, #12]
 8004af4:	687b      	ldr	r3, [r7, #4]
 8004af6:	681b      	ldr	r3, [r3, #0]
 8004af8:	f442 5200 	orr.w	r2, r2, #8192	@ 0x2000
 8004afc:	60da      	str	r2, [r3, #12]

  /* Initialize the UART state */
  huart->ErrorCode = HAL_UART_ERROR_NONE;
 8004afe:	687b      	ldr	r3, [r7, #4]
 8004b00:	2200      	movs	r2, #0
 8004b02:	645a      	str	r2, [r3, #68]	@ 0x44
  huart->gState = HAL_UART_STATE_READY;
 8004b04:	687b      	ldr	r3, [r7, #4]
 8004b06:	2220      	movs	r2, #32
 8004b08:	f883 2041 	strb.w	r2, [r3, #65]	@ 0x41
  huart->RxState = HAL_UART_STATE_READY;
 8004b0c:	687b      	ldr	r3, [r7, #4]
 8004b0e:	2220      	movs	r2, #32
 8004b10:	f883 2042 	strb.w	r2, [r3, #66]	@ 0x42
  huart->RxEventType = HAL_UART_RXEVENT_TC;
 8004b14:	687b      	ldr	r3, [r7, #4]
 8004b16:	2200      	movs	r2, #0
 8004b18:	635a      	str	r2, [r3, #52]	@ 0x34

  return HAL_OK;
 8004b1a:	2300      	movs	r3, #0
}
 8004b1c:	4618      	mov	r0, r3
 8004b1e:	3708      	adds	r7, #8
 8004b20:	46bd      	mov	sp, r7
 8004b22:	bd80      	pop	{r7, pc}

08004b24 <HAL_UART_Transmit>:
  * @param  Size  Amount of data elements (u8 or u16) to be sent
  * @param  Timeout Timeout duration
  * @retval HAL status
  */
HAL_StatusTypeDef HAL_UART_Transmit(UART_HandleTypeDef *huart, const uint8_t *pData, uint16_t Size, uint32_t Timeout)
{
 8004b24:	b580      	push	{r7, lr}
 8004b26:	b08a      	sub	sp, #40	@ 0x28
 8004b28:	af02      	add	r7, sp, #8
 8004b2a:	60f8      	str	r0, [r7, #12]
 8004b2c:	60b9      	str	r1, [r7, #8]
 8004b2e:	603b      	str	r3, [r7, #0]
 8004b30:	4613      	mov	r3, r2
 8004b32:	80fb      	strh	r3, [r7, #6]
  const uint8_t  *pdata8bits;
  const uint16_t *pdata16bits;
  uint32_t tickstart = 0U;
 8004b34:	2300      	movs	r3, #0
 8004b36:	617b      	str	r3, [r7, #20]

  /* Check that a Tx process is not already ongoing */
  if (huart->gState == HAL_UART_STATE_READY)
 8004b38:	68fb      	ldr	r3, [r7, #12]
 8004b3a:	f893 3041 	ldrb.w	r3, [r3, #65]	@ 0x41
 8004b3e:	b2db      	uxtb	r3, r3
 8004b40:	2b20      	cmp	r3, #32
 8004b42:	d175      	bne.n	8004c30 <HAL_UART_Transmit+0x10c>
  {
    if ((pData == NULL) || (Size == 0U))
 8004b44:	68bb      	ldr	r3, [r7, #8]
 8004b46:	2b00      	cmp	r3, #0
 8004b48:	d002      	beq.n	8004b50 <HAL_UART_Transmit+0x2c>
 8004b4a:	88fb      	ldrh	r3, [r7, #6]
 8004b4c:	2b00      	cmp	r3, #0
 8004b4e:	d101      	bne.n	8004b54 <HAL_UART_Transmit+0x30>
    {
      return  HAL_ERROR;
 8004b50:	2301      	movs	r3, #1
 8004b52:	e06e      	b.n	8004c32 <HAL_UART_Transmit+0x10e>
    }

    huart->ErrorCode = HAL_UART_ERROR_NONE;
 8004b54:	68fb      	ldr	r3, [r7, #12]
 8004b56:	2200      	movs	r2, #0
 8004b58:	645a      	str	r2, [r3, #68]	@ 0x44
    huart->gState = HAL_UART_STATE_BUSY_TX;
 8004b5a:	68fb      	ldr	r3, [r7, #12]
 8004b5c:	2221      	movs	r2, #33	@ 0x21
 8004b5e:	f883 2041 	strb.w	r2, [r3, #65]	@ 0x41

    /* Init tickstart for timeout management */
    tickstart = HAL_GetTick();
 8004b62:	f7fe fdd5 	bl	8003710 <HAL_GetTick>
 8004b66:	6178      	str	r0, [r7, #20]

    huart->TxXferSize = Size;
 8004b68:	68fb      	ldr	r3, [r7, #12]
 8004b6a:	88fa      	ldrh	r2, [r7, #6]
 8004b6c:	849a      	strh	r2, [r3, #36]	@ 0x24
    huart->TxXferCount = Size;
 8004b6e:	68fb      	ldr	r3, [r7, #12]
 8004b70:	88fa      	ldrh	r2, [r7, #6]
 8004b72:	84da      	strh	r2, [r3, #38]	@ 0x26

    /* In case of 9bits/No Parity transfer, pData needs to be handled as a uint16_t pointer */
    if ((huart->Init.WordLength == UART_WORDLENGTH_9B) && (huart->Init.Parity == UART_PARITY_NONE))
 8004b74:	68fb      	ldr	r3, [r7, #12]
 8004b76:	689b      	ldr	r3, [r3, #8]
 8004b78:	f5b3 5f80 	cmp.w	r3, #4096	@ 0x1000
 8004b7c:	d108      	bne.n	8004b90 <HAL_UART_Transmit+0x6c>
 8004b7e:	68fb      	ldr	r3, [r7, #12]
 8004b80:	691b      	ldr	r3, [r3, #16]
 8004b82:	2b00      	cmp	r3, #0
 8004b84:	d104      	bne.n	8004b90 <HAL_UART_Transmit+0x6c>
    {
      pdata8bits  = NULL;
 8004b86:	2300      	movs	r3, #0
 8004b88:	61fb      	str	r3, [r7, #28]
      pdata16bits = (const uint16_t *) pData;
 8004b8a:	68bb      	ldr	r3, [r7, #8]
 8004b8c:	61bb      	str	r3, [r7, #24]
 8004b8e:	e003      	b.n	8004b98 <HAL_UART_Transmit+0x74>
    }
    else
    {
      pdata8bits  = pData;
 8004b90:	68bb      	ldr	r3, [r7, #8]
 8004b92:	61fb      	str	r3, [r7, #28]
      pdata16bits = NULL;
 8004b94:	2300      	movs	r3, #0
 8004b96:	61bb      	str	r3, [r7, #24]
    }

    while (huart->TxXferCount > 0U)
 8004b98:	e02e      	b.n	8004bf8 <HAL_UART_Transmit+0xd4>
    {
      if (UART_WaitOnFlagUntilTimeout(huart, UART_FLAG_TXE, RESET, tickstart, Timeout) != HAL_OK)
 8004b9a:	683b      	ldr	r3, [r7, #0]
 8004b9c:	9300      	str	r3, [sp, #0]
 8004b9e:	697b      	ldr	r3, [r7, #20]
 8004ba0:	2200      	movs	r2, #0
 8004ba2:	2180      	movs	r1, #128	@ 0x80
 8004ba4:	68f8      	ldr	r0, [r7, #12]
 8004ba6:	f000 fd86 	bl	80056b6 <UART_WaitOnFlagUntilTimeout>
 8004baa:	4603      	mov	r3, r0
 8004bac:	2b00      	cmp	r3, #0
 8004bae:	d005      	beq.n	8004bbc <HAL_UART_Transmit+0x98>
      {
        huart->gState = HAL_UART_STATE_READY;
 8004bb0:	68fb      	ldr	r3, [r7, #12]
 8004bb2:	2220      	movs	r2, #32
 8004bb4:	f883 2041 	strb.w	r2, [r3, #65]	@ 0x41

        return HAL_TIMEOUT;
 8004bb8:	2303      	movs	r3, #3
 8004bba:	e03a      	b.n	8004c32 <HAL_UART_Transmit+0x10e>
      }
      if (pdata8bits == NULL)
 8004bbc:	69fb      	ldr	r3, [r7, #28]
 8004bbe:	2b00      	cmp	r3, #0
 8004bc0:	d10b      	bne.n	8004bda <HAL_UART_Transmit+0xb6>
      {
        huart->Instance->DR = (uint16_t)(*pdata16bits & 0x01FFU);
 8004bc2:	69bb      	ldr	r3, [r7, #24]
 8004bc4:	881b      	ldrh	r3, [r3, #0]
 8004bc6:	461a      	mov	r2, r3
 8004bc8:	68fb      	ldr	r3, [r7, #12]
 8004bca:	681b      	ldr	r3, [r3, #0]
 8004bcc:	f3c2 0208 	ubfx	r2, r2, #0, #9
 8004bd0:	605a      	str	r2, [r3, #4]
        pdata16bits++;
 8004bd2:	69bb      	ldr	r3, [r7, #24]
 8004bd4:	3302      	adds	r3, #2
 8004bd6:	61bb      	str	r3, [r7, #24]
 8004bd8:	e007      	b.n	8004bea <HAL_UART_Transmit+0xc6>
      }
      else
      {
        huart->Instance->DR = (uint8_t)(*pdata8bits & 0xFFU);
 8004bda:	69fb      	ldr	r3, [r7, #28]
 8004bdc:	781a      	ldrb	r2, [r3, #0]
 8004bde:	68fb      	ldr	r3, [r7, #12]
 8004be0:	681b      	ldr	r3, [r3, #0]
 8004be2:	605a      	str	r2, [r3, #4]
        pdata8bits++;
 8004be4:	69fb      	ldr	r3, [r7, #28]
 8004be6:	3301      	adds	r3, #1
 8004be8:	61fb      	str	r3, [r7, #28]
      }
      huart->TxXferCount--;
 8004bea:	68fb      	ldr	r3, [r7, #12]
 8004bec:	8cdb      	ldrh	r3, [r3, #38]	@ 0x26
 8004bee:	b29b      	uxth	r3, r3
 8004bf0:	3b01      	subs	r3, #1
 8004bf2:	b29a      	uxth	r2, r3
 8004bf4:	68fb      	ldr	r3, [r7, #12]
 8004bf6:	84da      	strh	r2, [r3, #38]	@ 0x26
    while (huart->TxXferCount > 0U)
 8004bf8:	68fb      	ldr	r3, [r7, #12]
 8004bfa:	8cdb      	ldrh	r3, [r3, #38]	@ 0x26
 8004bfc:	b29b      	uxth	r3, r3
 8004bfe:	2b00      	cmp	r3, #0
 8004c00:	d1cb      	bne.n	8004b9a <HAL_UART_Transmit+0x76>
    }

    if (UART_WaitOnFlagUntilTimeout(huart, UART_FLAG_TC, RESET, tickstart, Timeout) != HAL_OK)
 8004c02:	683b      	ldr	r3, [r7, #0]
 8004c04:	9300      	str	r3, [sp, #0]
 8004c06:	697b      	ldr	r3, [r7, #20]
 8004c08:	2200      	movs	r2, #0
 8004c0a:	2140      	movs	r1, #64	@ 0x40
 8004c0c:	68f8      	ldr	r0, [r7, #12]
 8004c0e:	f000 fd52 	bl	80056b6 <UART_WaitOnFlagUntilTimeout>
 8004c12:	4603      	mov	r3, r0
 8004c14:	2b00      	cmp	r3, #0
 8004c16:	d005      	beq.n	8004c24 <HAL_UART_Transmit+0x100>
    {
      huart->gState = HAL_UART_STATE_READY;
 8004c18:	68fb      	ldr	r3, [r7, #12]
 8004c1a:	2220      	movs	r2, #32
 8004c1c:	f883 2041 	strb.w	r2, [r3, #65]	@ 0x41

      return HAL_TIMEOUT;
 8004c20:	2303      	movs	r3, #3
 8004c22:	e006      	b.n	8004c32 <HAL_UART_Transmit+0x10e>
    }

    /* At end of Tx process, restore huart->gState to Ready */
    huart->gState = HAL_UART_STATE_READY;
 8004c24:	68fb      	ldr	r3, [r7, #12]
 8004c26:	2220      	movs	r2, #32
 8004c28:	f883 2041 	strb.w	r2, [r3, #65]	@ 0x41

    return HAL_OK;
 8004c2c:	2300      	movs	r3, #0
 8004c2e:	e000      	b.n	8004c32 <HAL_UART_Transmit+0x10e>
  }
  else
  {
    return HAL_BUSY;
 8004c30:	2302      	movs	r3, #2
  }
}
 8004c32:	4618      	mov	r0, r3
 8004c34:	3720      	adds	r7, #32
 8004c36:	46bd      	mov	sp, r7
 8004c38:	bd80      	pop	{r7, pc}

08004c3a <HAL_UART_Receive>:
  * @param  Size  Amount of data elements (u8 or u16) to be received.
  * @param  Timeout Timeout duration
  * @retval HAL status
  */
HAL_StatusTypeDef HAL_UART_Receive(UART_HandleTypeDef *huart, uint8_t *pData, uint16_t Size, uint32_t Timeout)
{
 8004c3a:	b580      	push	{r7, lr}
 8004c3c:	b08a      	sub	sp, #40	@ 0x28
 8004c3e:	af02      	add	r7, sp, #8
 8004c40:	60f8      	str	r0, [r7, #12]
 8004c42:	60b9      	str	r1, [r7, #8]
 8004c44:	603b      	str	r3, [r7, #0]
 8004c46:	4613      	mov	r3, r2
 8004c48:	80fb      	strh	r3, [r7, #6]
  uint8_t  *pdata8bits;
  uint16_t *pdata16bits;
  uint32_t tickstart = 0U;
 8004c4a:	2300      	movs	r3, #0
 8004c4c:	617b      	str	r3, [r7, #20]

  /* Check that a Rx process is not already ongoing */
  if (huart->RxState == HAL_UART_STATE_READY)
 8004c4e:	68fb      	ldr	r3, [r7, #12]
 8004c50:	f893 3042 	ldrb.w	r3, [r3, #66]	@ 0x42
 8004c54:	b2db      	uxtb	r3, r3
 8004c56:	2b20      	cmp	r3, #32
 8004c58:	f040 8081 	bne.w	8004d5e <HAL_UART_Receive+0x124>
  {
    if ((pData == NULL) || (Size == 0U))
 8004c5c:	68bb      	ldr	r3, [r7, #8]
 8004c5e:	2b00      	cmp	r3, #0
 8004c60:	d002      	beq.n	8004c68 <HAL_UART_Receive+0x2e>
 8004c62:	88fb      	ldrh	r3, [r7, #6]
 8004c64:	2b00      	cmp	r3, #0
 8004c66:	d101      	bne.n	8004c6c <HAL_UART_Receive+0x32>
    {
      return  HAL_ERROR;
 8004c68:	2301      	movs	r3, #1
 8004c6a:	e079      	b.n	8004d60 <HAL_UART_Receive+0x126>
    }

    huart->ErrorCode = HAL_UART_ERROR_NONE;
 8004c6c:	68fb      	ldr	r3, [r7, #12]
 8004c6e:	2200      	movs	r2, #0
 8004c70:	645a      	str	r2, [r3, #68]	@ 0x44
    huart->RxState = HAL_UART_STATE_BUSY_RX;
 8004c72:	68fb      	ldr	r3, [r7, #12]
 8004c74:	2222      	movs	r2, #34	@ 0x22
 8004c76:	f883 2042 	strb.w	r2, [r3, #66]	@ 0x42
    huart->ReceptionType = HAL_UART_RECEPTION_STANDARD;
 8004c7a:	68fb      	ldr	r3, [r7, #12]
 8004c7c:	2200      	movs	r2, #0
 8004c7e:	631a      	str	r2, [r3, #48]	@ 0x30

    /* Init tickstart for timeout management */
    tickstart = HAL_GetTick();
 8004c80:	f7fe fd46 	bl	8003710 <HAL_GetTick>
 8004c84:	6178      	str	r0, [r7, #20]

    huart->RxXferSize = Size;
 8004c86:	68fb      	ldr	r3, [r7, #12]
 8004c88:	88fa      	ldrh	r2, [r7, #6]
 8004c8a:	859a      	strh	r2, [r3, #44]	@ 0x2c
    huart->RxXferCount = Size;
 8004c8c:	68fb      	ldr	r3, [r7, #12]
 8004c8e:	88fa      	ldrh	r2, [r7, #6]
 8004c90:	85da      	strh	r2, [r3, #46]	@ 0x2e

    /* In case of 9bits/No Parity transfer, pRxData needs to be handled as a uint16_t pointer */
    if ((huart->Init.WordLength == UART_WORDLENGTH_9B) && (huart->Init.Parity == UART_PARITY_NONE))
 8004c92:	68fb      	ldr	r3, [r7, #12]
 8004c94:	689b      	ldr	r3, [r3, #8]
 8004c96:	f5b3 5f80 	cmp.w	r3, #4096	@ 0x1000
 8004c9a:	d108      	bne.n	8004cae <HAL_UART_Receive+0x74>
 8004c9c:	68fb      	ldr	r3, [r7, #12]
 8004c9e:	691b      	ldr	r3, [r3, #16]
 8004ca0:	2b00      	cmp	r3, #0
 8004ca2:	d104      	bne.n	8004cae <HAL_UART_Receive+0x74>
    {
      pdata8bits  = NULL;
 8004ca4:	2300      	movs	r3, #0
 8004ca6:	61fb      	str	r3, [r7, #28]
      pdata16bits = (uint16_t *) pData;
 8004ca8:	68bb      	ldr	r3, [r7, #8]
 8004caa:	61bb      	str	r3, [r7, #24]
 8004cac:	e003      	b.n	8004cb6 <HAL_UART_Receive+0x7c>
    }
    else
    {
      pdata8bits  = pData;
 8004cae:	68bb      	ldr	r3, [r7, #8]
 8004cb0:	61fb      	str	r3, [r7, #28]
      pdata16bits = NULL;
 8004cb2:	2300      	movs	r3, #0
 8004cb4:	61bb      	str	r3, [r7, #24]
    }

    /* Check the remain data to be received */
    while (huart->RxXferCount > 0U)
 8004cb6:	e047      	b.n	8004d48 <HAL_UART_Receive+0x10e>
    {
      if (UART_WaitOnFlagUntilTimeout(huart, UART_FLAG_RXNE, RESET, tickstart, Timeout) != HAL_OK)
 8004cb8:	683b      	ldr	r3, [r7, #0]
 8004cba:	9300      	str	r3, [sp, #0]
 8004cbc:	697b      	ldr	r3, [r7, #20]
 8004cbe:	2200      	movs	r2, #0
 8004cc0:	2120      	movs	r1, #32
 8004cc2:	68f8      	ldr	r0, [r7, #12]
 8004cc4:	f000 fcf7 	bl	80056b6 <UART_WaitOnFlagUntilTimeout>
 8004cc8:	4603      	mov	r3, r0
 8004cca:	2b00      	cmp	r3, #0
 8004ccc:	d005      	beq.n	8004cda <HAL_UART_Receive+0xa0>
      {
        huart->RxState = HAL_UART_STATE_READY;
 8004cce:	68fb      	ldr	r3, [r7, #12]
 8004cd0:	2220      	movs	r2, #32
 8004cd2:	f883 2042 	strb.w	r2, [r3, #66]	@ 0x42

        return HAL_TIMEOUT;
 8004cd6:	2303      	movs	r3, #3
 8004cd8:	e042      	b.n	8004d60 <HAL_UART_Receive+0x126>
      }
      if (pdata8bits == NULL)
 8004cda:	69fb      	ldr	r3, [r7, #28]
 8004cdc:	2b00      	cmp	r3, #0
 8004cde:	d10c      	bne.n	8004cfa <HAL_UART_Receive+0xc0>
      {
        *pdata16bits = (uint16_t)(huart->Instance->DR & 0x01FF);
 8004ce0:	68fb      	ldr	r3, [r7, #12]
 8004ce2:	681b      	ldr	r3, [r3, #0]
 8004ce4:	685b      	ldr	r3, [r3, #4]
 8004ce6:	b29b      	uxth	r3, r3
 8004ce8:	f3c3 0308 	ubfx	r3, r3, #0, #9
 8004cec:	b29a      	uxth	r2, r3
 8004cee:	69bb      	ldr	r3, [r7, #24]
 8004cf0:	801a      	strh	r2, [r3, #0]
        pdata16bits++;
 8004cf2:	69bb      	ldr	r3, [r7, #24]
 8004cf4:	3302      	adds	r3, #2
 8004cf6:	61bb      	str	r3, [r7, #24]
 8004cf8:	e01f      	b.n	8004d3a <HAL_UART_Receive+0x100>
      }
      else
      {
        if ((huart->Init.WordLength == UART_WORDLENGTH_9B) || ((huart->Init.WordLength == UART_WORDLENGTH_8B) && (huart->Init.Parity == UART_PARITY_NONE)))
 8004cfa:	68fb      	ldr	r3, [r7, #12]
 8004cfc:	689b      	ldr	r3, [r3, #8]
 8004cfe:	f5b3 5f80 	cmp.w	r3, #4096	@ 0x1000
 8004d02:	d007      	beq.n	8004d14 <HAL_UART_Receive+0xda>
 8004d04:	68fb      	ldr	r3, [r7, #12]
 8004d06:	689b      	ldr	r3, [r3, #8]
 8004d08:	2b00      	cmp	r3, #0
 8004d0a:	d10a      	bne.n	8004d22 <HAL_UART_Receive+0xe8>
 8004d0c:	68fb      	ldr	r3, [r7, #12]
 8004d0e:	691b      	ldr	r3, [r3, #16]
 8004d10:	2b00      	cmp	r3, #0
 8004d12:	d106      	bne.n	8004d22 <HAL_UART_Receive+0xe8>
        {
          *pdata8bits = (uint8_t)(huart->Instance->DR & (uint8_t)0x00FF);
 8004d14:	68fb      	ldr	r3, [r7, #12]
 8004d16:	681b      	ldr	r3, [r3, #0]
 8004d18:	685b      	ldr	r3, [r3, #4]
 8004d1a:	b2da      	uxtb	r2, r3
 8004d1c:	69fb      	ldr	r3, [r7, #28]
 8004d1e:	701a      	strb	r2, [r3, #0]
 8004d20:	e008      	b.n	8004d34 <HAL_UART_Receive+0xfa>
        }
        else
        {
          *pdata8bits = (uint8_t)(huart->Instance->DR & (uint8_t)0x007F);
 8004d22:	68fb      	ldr	r3, [r7, #12]
 8004d24:	681b      	ldr	r3, [r3, #0]
 8004d26:	685b      	ldr	r3, [r3, #4]
 8004d28:	b2db      	uxtb	r3, r3
 8004d2a:	f003 037f 	and.w	r3, r3, #127	@ 0x7f
 8004d2e:	b2da      	uxtb	r2, r3
 8004d30:	69fb      	ldr	r3, [r7, #28]
 8004d32:	701a      	strb	r2, [r3, #0]
        }
        pdata8bits++;
 8004d34:	69fb      	ldr	r3, [r7, #28]
 8004d36:	3301      	adds	r3, #1
 8004d38:	61fb      	str	r3, [r7, #28]
      }
      huart->RxXferCount--;
 8004d3a:	68fb      	ldr	r3, [r7, #12]
 8004d3c:	8ddb      	ldrh	r3, [r3, #46]	@ 0x2e
 8004d3e:	b29b      	uxth	r3, r3
 8004d40:	3b01      	subs	r3, #1
 8004d42:	b29a      	uxth	r2, r3
 8004d44:	68fb      	ldr	r3, [r7, #12]
 8004d46:	85da      	strh	r2, [r3, #46]	@ 0x2e
    while (huart->RxXferCount > 0U)
 8004d48:	68fb      	ldr	r3, [r7, #12]
 8004d4a:	8ddb      	ldrh	r3, [r3, #46]	@ 0x2e
 8004d4c:	b29b      	uxth	r3, r3
 8004d4e:	2b00      	cmp	r3, #0
 8004d50:	d1b2      	bne.n	8004cb8 <HAL_UART_Receive+0x7e>
    }

    /* At end of Rx process, restore huart->RxState to Ready */
    huart->RxState = HAL_UART_STATE_READY;
 8004d52:	68fb      	ldr	r3, [r7, #12]
 8004d54:	2220      	movs	r2, #32
 8004d56:	f883 2042 	strb.w	r2, [r3, #66]	@ 0x42

    return HAL_OK;
 8004d5a:	2300      	movs	r3, #0
 8004d5c:	e000      	b.n	8004d60 <HAL_UART_Receive+0x126>
  }
  else
  {
    return HAL_BUSY;
 8004d5e:	2302      	movs	r3, #2
  }
}
 8004d60:	4618      	mov	r0, r3
 8004d62:	3720      	adds	r7, #32
 8004d64:	46bd      	mov	sp, r7
 8004d66:	bd80      	pop	{r7, pc}

08004d68 <HAL_UART_Transmit_DMA>:
  * @param  pData Pointer to data buffer (u8 or u16 data elements).
  * @param  Size  Amount of data elements (u8 or u16) to be sent
  * @retval HAL status
  */
HAL_StatusTypeDef HAL_UART_Transmit_DMA(UART_HandleTypeDef *huart, const uint8_t *pData, uint16_t Size)
{
 8004d68:	b580      	push	{r7, lr}
 8004d6a:	b08c      	sub	sp, #48	@ 0x30
 8004d6c:	af00      	add	r7, sp, #0
 8004d6e:	60f8      	str	r0, [r7, #12]
 8004d70:	60b9      	str	r1, [r7, #8]
 8004d72:	4613      	mov	r3, r2
 8004d74:	80fb      	strh	r3, [r7, #6]
  const uint32_t *tmp;

  /* Check that a Tx process is not already ongoing */
  if (huart->gState == HAL_UART_STATE_READY)
 8004d76:	68fb      	ldr	r3, [r7, #12]
 8004d78:	f893 3041 	ldrb.w	r3, [r3, #65]	@ 0x41
 8004d7c:	b2db      	uxtb	r3, r3
 8004d7e:	2b20      	cmp	r3, #32
 8004d80:	d156      	bne.n	8004e30 <HAL_UART_Transmit_DMA+0xc8>
  {
    if ((pData == NULL) || (Size == 0U))
 8004d82:	68bb      	ldr	r3, [r7, #8]
 8004d84:	2b00      	cmp	r3, #0
 8004d86:	d002      	beq.n	8004d8e <HAL_UART_Transmit_DMA+0x26>
 8004d88:	88fb      	ldrh	r3, [r7, #6]
 8004d8a:	2b00      	cmp	r3, #0
 8004d8c:	d101      	bne.n	8004d92 <HAL_UART_Transmit_DMA+0x2a>
    {
      return HAL_ERROR;
 8004d8e:	2301      	movs	r3, #1
 8004d90:	e04f      	b.n	8004e32 <HAL_UART_Transmit_DMA+0xca>
    }

    huart->pTxBuffPtr = pData;
 8004d92:	68ba      	ldr	r2, [r7, #8]
 8004d94:	68fb      	ldr	r3, [r7, #12]
 8004d96:	621a      	str	r2, [r3, #32]
    huart->TxXferSize = Size;
 8004d98:	68fb      	ldr	r3, [r7, #12]
 8004d9a:	88fa      	ldrh	r2, [r7, #6]
 8004d9c:	849a      	strh	r2, [r3, #36]	@ 0x24
    huart->TxXferCount = Size;
 8004d9e:	68fb      	ldr	r3, [r7, #12]
 8004da0:	88fa      	ldrh	r2, [r7, #6]
 8004da2:	84da      	strh	r2, [r3, #38]	@ 0x26

    huart->ErrorCode = HAL_UART_ERROR_NONE;
 8004da4:	68fb      	ldr	r3, [r7, #12]
 8004da6:	2200      	movs	r2, #0
 8004da8:	645a      	str	r2, [r3, #68]	@ 0x44
    huart->gState = HAL_UART_STATE_BUSY_TX;
 8004daa:	68fb      	ldr	r3, [r7, #12]
 8004dac:	2221      	movs	r2, #33	@ 0x21
 8004dae:	f883 2041 	strb.w	r2, [r3, #65]	@ 0x41

    /* Set the UART DMA transfer complete callback */
    huart->hdmatx->XferCpltCallback = UART_DMATransmitCplt;
 8004db2:	68fb      	ldr	r3, [r7, #12]
 8004db4:	6b9b      	ldr	r3, [r3, #56]	@ 0x38
 8004db6:	4a21      	ldr	r2, [pc, #132]	@ (8004e3c <HAL_UART_Transmit_DMA+0xd4>)
 8004db8:	629a      	str	r2, [r3, #40]	@ 0x28

    /* Set the UART DMA Half transfer complete callback */
    huart->hdmatx->XferHalfCpltCallback = UART_DMATxHalfCplt;
 8004dba:	68fb      	ldr	r3, [r7, #12]
 8004dbc:	6b9b      	ldr	r3, [r3, #56]	@ 0x38
 8004dbe:	4a20      	ldr	r2, [pc, #128]	@ (8004e40 <HAL_UART_Transmit_DMA+0xd8>)
 8004dc0:	62da      	str	r2, [r3, #44]	@ 0x2c

    /* Set the DMA error callback */
    huart->hdmatx->XferErrorCallback = UART_DMAError;
 8004dc2:	68fb      	ldr	r3, [r7, #12]
 8004dc4:	6b9b      	ldr	r3, [r3, #56]	@ 0x38
 8004dc6:	4a1f      	ldr	r2, [pc, #124]	@ (8004e44 <HAL_UART_Transmit_DMA+0xdc>)
 8004dc8:	631a      	str	r2, [r3, #48]	@ 0x30

    /* Set the DMA abort callback */
    huart->hdmatx->XferAbortCallback = NULL;
 8004dca:	68fb      	ldr	r3, [r7, #12]
 8004dcc:	6b9b      	ldr	r3, [r3, #56]	@ 0x38
 8004dce:	2200      	movs	r2, #0
 8004dd0:	635a      	str	r2, [r3, #52]	@ 0x34

    /* Enable the UART transmit DMA channel */
    tmp = (const uint32_t *)&pData;
 8004dd2:	f107 0308 	add.w	r3, r7, #8
 8004dd6:	62fb      	str	r3, [r7, #44]	@ 0x2c
    HAL_DMA_Start_IT(huart->hdmatx, *(const uint32_t *)tmp, (uint32_t)&huart->Instance->DR, Size);
 8004dd8:	68fb      	ldr	r3, [r7, #12]
 8004dda:	6b98      	ldr	r0, [r3, #56]	@ 0x38
 8004ddc:	6afb      	ldr	r3, [r7, #44]	@ 0x2c
 8004dde:	6819      	ldr	r1, [r3, #0]
 8004de0:	68fb      	ldr	r3, [r7, #12]
 8004de2:	681b      	ldr	r3, [r3, #0]
 8004de4:	3304      	adds	r3, #4
 8004de6:	461a      	mov	r2, r3
 8004de8:	88fb      	ldrh	r3, [r7, #6]
 8004dea:	f7fe fe27 	bl	8003a3c <HAL_DMA_Start_IT>

    /* Clear the TC flag in the SR register by writing 0 to it */
    __HAL_UART_CLEAR_FLAG(huart, UART_FLAG_TC);
 8004dee:	68fb      	ldr	r3, [r7, #12]
 8004df0:	681b      	ldr	r3, [r3, #0]
 8004df2:	f06f 0240 	mvn.w	r2, #64	@ 0x40
 8004df6:	601a      	str	r2, [r3, #0]

    /* Enable the DMA transfer for transmit request by setting the DMAT bit
       in the UART CR3 register */
    ATOMIC_SET_BIT(huart->Instance->CR3, USART_CR3_DMAT);
 8004df8:	68fb      	ldr	r3, [r7, #12]
 8004dfa:	681b      	ldr	r3, [r3, #0]
 8004dfc:	3314      	adds	r3, #20
 8004dfe:	61bb      	str	r3, [r7, #24]
 */
__STATIC_FORCEINLINE uint32_t __LDREXW(volatile uint32_t *addr)
{
    uint32_t result;

   __ASM volatile ("ldrex %0, %1" : "=r" (result) : "Q" (*addr) );
 8004e00:	69bb      	ldr	r3, [r7, #24]
 8004e02:	e853 3f00 	ldrex	r3, [r3]
 8004e06:	617b      	str	r3, [r7, #20]
   return(result);
 8004e08:	697b      	ldr	r3, [r7, #20]
 8004e0a:	f043 0380 	orr.w	r3, r3, #128	@ 0x80
 8004e0e:	62bb      	str	r3, [r7, #40]	@ 0x28
 8004e10:	68fb      	ldr	r3, [r7, #12]
 8004e12:	681b      	ldr	r3, [r3, #0]
 8004e14:	3314      	adds	r3, #20
 8004e16:	6aba      	ldr	r2, [r7, #40]	@ 0x28
 8004e18:	627a      	str	r2, [r7, #36]	@ 0x24
 8004e1a:	623b      	str	r3, [r7, #32]
 */
__STATIC_FORCEINLINE uint32_t __STREXW(uint32_t value, volatile uint32_t *addr)
{
   uint32_t result;

   __ASM volatile ("strex %0, %2, %1" : "=&r" (result), "=Q" (*addr) : "r" (value) );
 8004e1c:	6a39      	ldr	r1, [r7, #32]
 8004e1e:	6a7a      	ldr	r2, [r7, #36]	@ 0x24
 8004e20:	e841 2300 	strex	r3, r2, [r1]
 8004e24:	61fb      	str	r3, [r7, #28]
   return(result);
 8004e26:	69fb      	ldr	r3, [r7, #28]
 8004e28:	2b00      	cmp	r3, #0
 8004e2a:	d1e5      	bne.n	8004df8 <HAL_UART_Transmit_DMA+0x90>

    return HAL_OK;
 8004e2c:	2300      	movs	r3, #0
 8004e2e:	e000      	b.n	8004e32 <HAL_UART_Transmit_DMA+0xca>
  }
  else
  {
    return HAL_BUSY;
 8004e30:	2302      	movs	r3, #2
  }
}
 8004e32:	4618      	mov	r0, r3
 8004e34:	3730      	adds	r7, #48	@ 0x30
 8004e36:	46bd      	mov	sp, r7
 8004e38:	bd80      	pop	{r7, pc}
 8004e3a:	bf00      	nop
 8004e3c:	08005405 	.word	0x08005405
 8004e40:	0800549f 	.word	0x0800549f
 8004e44:	08005623 	.word	0x08005623

08004e48 <HAL_UART_Receive_DMA>:
  * @param  Size  Amount of data elements (u8 or u16) to be received.
  * @note   When the UART parity is enabled (PCE = 1) the received data contains the parity bit.
  * @retval HAL status
  */
HAL_StatusTypeDef HAL_UART_Receive_DMA(UART_HandleTypeDef *huart, uint8_t *pData, uint16_t Size)
{
 8004e48:	b580      	push	{r7, lr}
 8004e4a:	b084      	sub	sp, #16
 8004e4c:	af00      	add	r7, sp, #0
 8004e4e:	60f8      	str	r0, [r7, #12]
 8004e50:	60b9      	str	r1, [r7, #8]
 8004e52:	4613      	mov	r3, r2
 8004e54:	80fb      	strh	r3, [r7, #6]
  /* Check that a Rx process is not already ongoing */
  if (huart->RxState == HAL_UART_STATE_READY)
 8004e56:	68fb      	ldr	r3, [r7, #12]
 8004e58:	f893 3042 	ldrb.w	r3, [r3, #66]	@ 0x42
 8004e5c:	b2db      	uxtb	r3, r3
 8004e5e:	2b20      	cmp	r3, #32
 8004e60:	d112      	bne.n	8004e88 <HAL_UART_Receive_DMA+0x40>
  {
    if ((pData == NULL) || (Size == 0U))
 8004e62:	68bb      	ldr	r3, [r7, #8]
 8004e64:	2b00      	cmp	r3, #0
 8004e66:	d002      	beq.n	8004e6e <HAL_UART_Receive_DMA+0x26>
 8004e68:	88fb      	ldrh	r3, [r7, #6]
 8004e6a:	2b00      	cmp	r3, #0
 8004e6c:	d101      	bne.n	8004e72 <HAL_UART_Receive_DMA+0x2a>
    {
      return HAL_ERROR;
 8004e6e:	2301      	movs	r3, #1
 8004e70:	e00b      	b.n	8004e8a <HAL_UART_Receive_DMA+0x42>
    }

    /* Set Reception type to Standard reception */
    huart->ReceptionType = HAL_UART_RECEPTION_STANDARD;
 8004e72:	68fb      	ldr	r3, [r7, #12]
 8004e74:	2200      	movs	r2, #0
 8004e76:	631a      	str	r2, [r3, #48]	@ 0x30

    return (UART_Start_Receive_DMA(huart, pData, Size));
 8004e78:	88fb      	ldrh	r3, [r7, #6]
 8004e7a:	461a      	mov	r2, r3
 8004e7c:	68b9      	ldr	r1, [r7, #8]
 8004e7e:	68f8      	ldr	r0, [r7, #12]
 8004e80:	f000 fc72 	bl	8005768 <UART_Start_Receive_DMA>
 8004e84:	4603      	mov	r3, r0
 8004e86:	e000      	b.n	8004e8a <HAL_UART_Receive_DMA+0x42>
  }
  else
  {
    return HAL_BUSY;
 8004e88:	2302      	movs	r3, #2
  }
}
 8004e8a:	4618      	mov	r0, r3
 8004e8c:	3710      	adds	r7, #16
 8004e8e:	46bd      	mov	sp, r7
 8004e90:	bd80      	pop	{r7, pc}
	...

08004e94 <HAL_UART_IRQHandler>:
  * @param  huart  Pointer to a UART_HandleTypeDef structure that contains
  *                the configuration information for the specified UART module.
  * @retval None
  */
void HAL_UART_IRQHandler(UART_HandleTypeDef *huart)
{
 8004e94:	b580      	push	{r7, lr}
 8004e96:	b0ba      	sub	sp, #232	@ 0xe8
 8004e98:	af00      	add	r7, sp, #0
 8004e9a:	6078      	str	r0, [r7, #4]
  uint32_t isrflags   = READ_REG(huart->Instance->SR);
 8004e9c:	687b      	ldr	r3, [r7, #4]
 8004e9e:	681b      	ldr	r3, [r3, #0]
 8004ea0:	681b      	ldr	r3, [r3, #0]
 8004ea2:	f8c7 30e4 	str.w	r3, [r7, #228]	@ 0xe4
  uint32_t cr1its     = READ_REG(huart->Instance->CR1);
 8004ea6:	687b      	ldr	r3, [r7, #4]
 8004ea8:	681b      	ldr	r3, [r3, #0]
 8004eaa:	68db      	ldr	r3, [r3, #12]
 8004eac:	f8c7 30e0 	str.w	r3, [r7, #224]	@ 0xe0
  uint32_t cr3its     = READ_REG(huart->Instance->CR3);
 8004eb0:	687b      	ldr	r3, [r7, #4]
 8004eb2:	681b      	ldr	r3, [r3, #0]
 8004eb4:	695b      	ldr	r3, [r3, #20]
 8004eb6:	f8c7 30dc 	str.w	r3, [r7, #220]	@ 0xdc
  uint32_t errorflags = 0x00U;
 8004eba:	2300      	movs	r3, #0
 8004ebc:	f8c7 30d8 	str.w	r3, [r7, #216]	@ 0xd8
  uint32_t dmarequest = 0x00U;
 8004ec0:	2300      	movs	r3, #0
 8004ec2:	f8c7 30d4 	str.w	r3, [r7, #212]	@ 0xd4

  /* If no error occurs */
  errorflags = (isrflags & (uint32_t)(USART_SR_PE | USART_SR_FE | USART_SR_ORE | USART_SR_NE));
 8004ec6:	f8d7 30e4 	ldr.w	r3, [r7, #228]	@ 0xe4
 8004eca:	f003 030f 	and.w	r3, r3, #15
 8004ece:	f8c7 30d8 	str.w	r3, [r7, #216]	@ 0xd8
  if (errorflags == RESET)
 8004ed2:	f8d7 30d8 	ldr.w	r3, [r7, #216]	@ 0xd8
 8004ed6:	2b00      	cmp	r3, #0
 8004ed8:	d10f      	bne.n	8004efa <HAL_UART_IRQHandler+0x66>
  {
    /* UART in mode Receiver -------------------------------------------------*/
    if (((isrflags & USART_SR_RXNE) != RESET) && ((cr1its & USART_CR1_RXNEIE) != RESET))
 8004eda:	f8d7 30e4 	ldr.w	r3, [r7, #228]	@ 0xe4
 8004ede:	f003 0320 	and.w	r3, r3, #32
 8004ee2:	2b00      	cmp	r3, #0
 8004ee4:	d009      	beq.n	8004efa <HAL_UART_IRQHandler+0x66>
 8004ee6:	f8d7 30e0 	ldr.w	r3, [r7, #224]	@ 0xe0
 8004eea:	f003 0320 	and.w	r3, r3, #32
 8004eee:	2b00      	cmp	r3, #0
 8004ef0:	d003      	beq.n	8004efa <HAL_UART_IRQHandler+0x66>
    {
      UART_Receive_IT(huart);
 8004ef2:	6878      	ldr	r0, [r7, #4]
 8004ef4:	f000 fdd6 	bl	8005aa4 <UART_Receive_IT>
      return;
 8004ef8:	e25b      	b.n	80053b2 <HAL_UART_IRQHandler+0x51e>
    }
  }

  /* If some errors occur */
  if ((errorflags != RESET) && (((cr3its & USART_CR3_EIE) != RESET)
 8004efa:	f8d7 30d8 	ldr.w	r3, [r7, #216]	@ 0xd8
 8004efe:	2b00      	cmp	r3, #0
 8004f00:	f000 80de 	beq.w	80050c0 <HAL_UART_IRQHandler+0x22c>
 8004f04:	f8d7 30dc 	ldr.w	r3, [r7, #220]	@ 0xdc
 8004f08:	f003 0301 	and.w	r3, r3, #1
 8004f0c:	2b00      	cmp	r3, #0
 8004f0e:	d106      	bne.n	8004f1e <HAL_UART_IRQHandler+0x8a>
                                || ((cr1its & (USART_CR1_RXNEIE | USART_CR1_PEIE)) != RESET)))
 8004f10:	f8d7 30e0 	ldr.w	r3, [r7, #224]	@ 0xe0
 8004f14:	f403 7390 	and.w	r3, r3, #288	@ 0x120
 8004f18:	2b00      	cmp	r3, #0
 8004f1a:	f000 80d1 	beq.w	80050c0 <HAL_UART_IRQHandler+0x22c>
  {
    /* UART parity error interrupt occurred ----------------------------------*/
    if (((isrflags & USART_SR_PE) != RESET) && ((cr1its & USART_CR1_PEIE) != RESET))
 8004f1e:	f8d7 30e4 	ldr.w	r3, [r7, #228]	@ 0xe4
 8004f22:	f003 0301 	and.w	r3, r3, #1
 8004f26:	2b00      	cmp	r3, #0
 8004f28:	d00b      	beq.n	8004f42 <HAL_UART_IRQHandler+0xae>
 8004f2a:	f8d7 30e0 	ldr.w	r3, [r7, #224]	@ 0xe0
 8004f2e:	f403 7380 	and.w	r3, r3, #256	@ 0x100
 8004f32:	2b00      	cmp	r3, #0
 8004f34:	d005      	beq.n	8004f42 <HAL_UART_IRQHandler+0xae>
    {
      huart->ErrorCode |= HAL_UART_ERROR_PE;
 8004f36:	687b      	ldr	r3, [r7, #4]
 8004f38:	6c5b      	ldr	r3, [r3, #68]	@ 0x44
 8004f3a:	f043 0201 	orr.w	r2, r3, #1
 8004f3e:	687b      	ldr	r3, [r7, #4]
 8004f40:	645a      	str	r2, [r3, #68]	@ 0x44
    }

    /* UART noise error interrupt occurred -----------------------------------*/
    if (((isrflags & USART_SR_NE) != RESET) && ((cr3its & USART_CR3_EIE) != RESET))
 8004f42:	f8d7 30e4 	ldr.w	r3, [r7, #228]	@ 0xe4
 8004f46:	f003 0304 	and.w	r3, r3, #4
 8004f4a:	2b00      	cmp	r3, #0
 8004f4c:	d00b      	beq.n	8004f66 <HAL_UART_IRQHandler+0xd2>
 8004f4e:	f8d7 30dc 	ldr.w	r3, [r7, #220]	@ 0xdc
 8004f52:	f003 0301 	and.w	r3, r3, #1
 8004f56:	2b00      	cmp	r3, #0
 8004f58:	d005      	beq.n	8004f66 <HAL_UART_IRQHandler+0xd2>
    {
      huart->ErrorCode |= HAL_UART_ERROR_NE;
 8004f5a:	687b      	ldr	r3, [r7, #4]
 8004f5c:	6c5b      	ldr	r3, [r3, #68]	@ 0x44
 8004f5e:	f043 0202 	orr.w	r2, r3, #2
 8004f62:	687b      	ldr	r3, [r7, #4]
 8004f64:	645a      	str	r2, [r3, #68]	@ 0x44
    }

    /* UART frame error interrupt occurred -----------------------------------*/
    if (((isrflags & USART_SR_FE) != RESET) && ((cr3its & USART_CR3_EIE) != RESET))
 8004f66:	f8d7 30e4 	ldr.w	r3, [r7, #228]	@ 0xe4
 8004f6a:	f003 0302 	and.w	r3, r3, #2
 8004f6e:	2b00      	cmp	r3, #0
 8004f70:	d00b      	beq.n	8004f8a <HAL_UART_IRQHandler+0xf6>
 8004f72:	f8d7 30dc 	ldr.w	r3, [r7, #220]	@ 0xdc
 8004f76:	f003 0301 	and.w	r3, r3, #1
 8004f7a:	2b00      	cmp	r3, #0
 8004f7c:	d005      	beq.n	8004f8a <HAL_UART_IRQHandler+0xf6>
    {
      huart->ErrorCode |= HAL_UART_ERROR_FE;
 8004f7e:	687b      	ldr	r3, [r7, #4]
 8004f80:	6c5b      	ldr	r3, [r3, #68]	@ 0x44
 8004f82:	f043 0204 	orr.w	r2, r3, #4
 8004f86:	687b      	ldr	r3, [r7, #4]
 8004f88:	645a      	str	r2, [r3, #68]	@ 0x44
    }

    /* UART Over-Run interrupt occurred --------------------------------------*/
    if (((isrflags & USART_SR_ORE) != RESET) && (((cr1its & USART_CR1_RXNEIE) != RESET)
 8004f8a:	f8d7 30e4 	ldr.w	r3, [r7, #228]	@ 0xe4
 8004f8e:	f003 0308 	and.w	r3, r3, #8
 8004f92:	2b00      	cmp	r3, #0
 8004f94:	d011      	beq.n	8004fba <HAL_UART_IRQHandler+0x126>
 8004f96:	f8d7 30e0 	ldr.w	r3, [r7, #224]	@ 0xe0
 8004f9a:	f003 0320 	and.w	r3, r3, #32
 8004f9e:	2b00      	cmp	r3, #0
 8004fa0:	d105      	bne.n	8004fae <HAL_UART_IRQHandler+0x11a>
                                                 || ((cr3its & USART_CR3_EIE) != RESET)))
 8004fa2:	f8d7 30dc 	ldr.w	r3, [r7, #220]	@ 0xdc
 8004fa6:	f003 0301 	and.w	r3, r3, #1
 8004faa:	2b00      	cmp	r3, #0
 8004fac:	d005      	beq.n	8004fba <HAL_UART_IRQHandler+0x126>
    {
      huart->ErrorCode |= HAL_UART_ERROR_ORE;
 8004fae:	687b      	ldr	r3, [r7, #4]
 8004fb0:	6c5b      	ldr	r3, [r3, #68]	@ 0x44
 8004fb2:	f043 0208 	orr.w	r2, r3, #8
 8004fb6:	687b      	ldr	r3, [r7, #4]
 8004fb8:	645a      	str	r2, [r3, #68]	@ 0x44
    }

    /* Call UART Error Call back function if need be --------------------------*/
    if (huart->ErrorCode != HAL_UART_ERROR_NONE)
 8004fba:	687b      	ldr	r3, [r7, #4]
 8004fbc:	6c5b      	ldr	r3, [r3, #68]	@ 0x44
 8004fbe:	2b00      	cmp	r3, #0
 8004fc0:	f000 81f2 	beq.w	80053a8 <HAL_UART_IRQHandler+0x514>
    {
      /* UART in mode Receiver -----------------------------------------------*/
      if (((isrflags & USART_SR_RXNE) != RESET) && ((cr1its & USART_CR1_RXNEIE) != RESET))
 8004fc4:	f8d7 30e4 	ldr.w	r3, [r7, #228]	@ 0xe4
 8004fc8:	f003 0320 	and.w	r3, r3, #32
 8004fcc:	2b00      	cmp	r3, #0
 8004fce:	d008      	beq.n	8004fe2 <HAL_UART_IRQHandler+0x14e>
 8004fd0:	f8d7 30e0 	ldr.w	r3, [r7, #224]	@ 0xe0
 8004fd4:	f003 0320 	and.w	r3, r3, #32
 8004fd8:	2b00      	cmp	r3, #0
 8004fda:	d002      	beq.n	8004fe2 <HAL_UART_IRQHandler+0x14e>
      {
        UART_Receive_IT(huart);
 8004fdc:	6878      	ldr	r0, [r7, #4]
 8004fde:	f000 fd61 	bl	8005aa4 <UART_Receive_IT>
      }

      /* If Overrun error occurs, or if any error occurs in DMA mode reception,
         consider error as blocking */
      dmarequest = HAL_IS_BIT_SET(huart->Instance->CR3, USART_CR3_DMAR);
 8004fe2:	687b      	ldr	r3, [r7, #4]
 8004fe4:	681b      	ldr	r3, [r3, #0]
 8004fe6:	695b      	ldr	r3, [r3, #20]
 8004fe8:	f003 0340 	and.w	r3, r3, #64	@ 0x40
 8004fec:	2b00      	cmp	r3, #0
 8004fee:	bf14      	ite	ne
 8004ff0:	2301      	movne	r3, #1
 8004ff2:	2300      	moveq	r3, #0
 8004ff4:	b2db      	uxtb	r3, r3
 8004ff6:	f8c7 30d4 	str.w	r3, [r7, #212]	@ 0xd4
      if (((huart->ErrorCode & HAL_UART_ERROR_ORE) != RESET) || dmarequest)
 8004ffa:	687b      	ldr	r3, [r7, #4]
 8004ffc:	6c5b      	ldr	r3, [r3, #68]	@ 0x44
 8004ffe:	f003 0308 	and.w	r3, r3, #8
 8005002:	2b00      	cmp	r3, #0
 8005004:	d103      	bne.n	800500e <HAL_UART_IRQHandler+0x17a>
 8005006:	f8d7 30d4 	ldr.w	r3, [r7, #212]	@ 0xd4
 800500a:	2b00      	cmp	r3, #0
 800500c:	d04f      	beq.n	80050ae <HAL_UART_IRQHandler+0x21a>
      {
        /* Blocking error : transfer is aborted
           Set the UART state ready to be able to start again the process,
           Disable Rx Interrupts, and disable Rx DMA request, if ongoing */
        UART_EndRxTransfer(huart);
 800500e:	6878      	ldr	r0, [r7, #4]
 8005010:	f000 fc6b 	bl	80058ea <UART_EndRxTransfer>

        /* Disable the UART DMA Rx request if enabled */
        if (HAL_IS_BIT_SET(huart->Instance->CR3, USART_CR3_DMAR))
 8005014:	687b      	ldr	r3, [r7, #4]
 8005016:	681b      	ldr	r3, [r3, #0]
 8005018:	695b      	ldr	r3, [r3, #20]
 800501a:	f003 0340 	and.w	r3, r3, #64	@ 0x40
 800501e:	2b00      	cmp	r3, #0
 8005020:	d041      	beq.n	80050a6 <HAL_UART_IRQHandler+0x212>
        {
          ATOMIC_CLEAR_BIT(huart->Instance->CR3, USART_CR3_DMAR);
 8005022:	687b      	ldr	r3, [r7, #4]
 8005024:	681b      	ldr	r3, [r3, #0]
 8005026:	3314      	adds	r3, #20
 8005028:	f8c7 309c 	str.w	r3, [r7, #156]	@ 0x9c
   __ASM volatile ("ldrex %0, %1" : "=r" (result) : "Q" (*addr) );
 800502c:	f8d7 309c 	ldr.w	r3, [r7, #156]	@ 0x9c
 8005030:	e853 3f00 	ldrex	r3, [r3]
 8005034:	f8c7 3098 	str.w	r3, [r7, #152]	@ 0x98
   return(result);
 8005038:	f8d7 3098 	ldr.w	r3, [r7, #152]	@ 0x98
 800503c:	f023 0340 	bic.w	r3, r3, #64	@ 0x40
 8005040:	f8c7 30d0 	str.w	r3, [r7, #208]	@ 0xd0
 8005044:	687b      	ldr	r3, [r7, #4]
 8005046:	681b      	ldr	r3, [r3, #0]
 8005048:	3314      	adds	r3, #20
 800504a:	f8d7 20d0 	ldr.w	r2, [r7, #208]	@ 0xd0
 800504e:	f8c7 20a8 	str.w	r2, [r7, #168]	@ 0xa8
 8005052:	f8c7 30a4 	str.w	r3, [r7, #164]	@ 0xa4
   __ASM volatile ("strex %0, %2, %1" : "=&r" (result), "=Q" (*addr) : "r" (value) );
 8005056:	f8d7 10a4 	ldr.w	r1, [r7, #164]	@ 0xa4
 800505a:	f8d7 20a8 	ldr.w	r2, [r7, #168]	@ 0xa8
 800505e:	e841 2300 	strex	r3, r2, [r1]
 8005062:	f8c7 30a0 	str.w	r3, [r7, #160]	@ 0xa0
   return(result);
 8005066:	f8d7 30a0 	ldr.w	r3, [r7, #160]	@ 0xa0
 800506a:	2b00      	cmp	r3, #0
 800506c:	d1d9      	bne.n	8005022 <HAL_UART_IRQHandler+0x18e>

          /* Abort the UART DMA Rx channel */
          if (huart->hdmarx != NULL)
 800506e:	687b      	ldr	r3, [r7, #4]
 8005070:	6bdb      	ldr	r3, [r3, #60]	@ 0x3c
 8005072:	2b00      	cmp	r3, #0
 8005074:	d013      	beq.n	800509e <HAL_UART_IRQHandler+0x20a>
          {
            /* Set the UART DMA Abort callback :
               will lead to call HAL_UART_ErrorCallback() at end of DMA abort procedure */
            huart->hdmarx->XferAbortCallback = UART_DMAAbortOnError;
 8005076:	687b      	ldr	r3, [r7, #4]
 8005078:	6bdb      	ldr	r3, [r3, #60]	@ 0x3c
 800507a:	4a7e      	ldr	r2, [pc, #504]	@ (8005274 <HAL_UART_IRQHandler+0x3e0>)
 800507c:	635a      	str	r2, [r3, #52]	@ 0x34
            if (HAL_DMA_Abort_IT(huart->hdmarx) != HAL_OK)
 800507e:	687b      	ldr	r3, [r7, #4]
 8005080:	6bdb      	ldr	r3, [r3, #60]	@ 0x3c
 8005082:	4618      	mov	r0, r3
 8005084:	f7fe fd76 	bl	8003b74 <HAL_DMA_Abort_IT>
 8005088:	4603      	mov	r3, r0
 800508a:	2b00      	cmp	r3, #0
 800508c:	d016      	beq.n	80050bc <HAL_UART_IRQHandler+0x228>
            {
              /* Call Directly XferAbortCallback function in case of error */
              huart->hdmarx->XferAbortCallback(huart->hdmarx);
 800508e:	687b      	ldr	r3, [r7, #4]
 8005090:	6bdb      	ldr	r3, [r3, #60]	@ 0x3c
 8005092:	6b5b      	ldr	r3, [r3, #52]	@ 0x34
 8005094:	687a      	ldr	r2, [r7, #4]
 8005096:	6bd2      	ldr	r2, [r2, #60]	@ 0x3c
 8005098:	4610      	mov	r0, r2
 800509a:	4798      	blx	r3
        if (HAL_IS_BIT_SET(huart->Instance->CR3, USART_CR3_DMAR))
 800509c:	e00e      	b.n	80050bc <HAL_UART_IRQHandler+0x228>
#if (USE_HAL_UART_REGISTER_CALLBACKS == 1)
            /*Call registered error callback*/
            huart->ErrorCallback(huart);
#else
            /*Call legacy weak error callback*/
            HAL_UART_ErrorCallback(huart);
 800509e:	6878      	ldr	r0, [r7, #4]
 80050a0:	f000 f99c 	bl	80053dc <HAL_UART_ErrorCallback>
        if (HAL_IS_BIT_SET(huart->Instance->CR3, USART_CR3_DMAR))
 80050a4:	e00a      	b.n	80050bc <HAL_UART_IRQHandler+0x228>
#if (USE_HAL_UART_REGISTER_CALLBACKS == 1)
          /*Call registered error callback*/
          huart->ErrorCallback(huart);
#else
          /*Call legacy weak error callback*/
          HAL_UART_ErrorCallback(huart);
 80050a6:	6878      	ldr	r0, [r7, #4]
 80050a8:	f000 f998 	bl	80053dc <HAL_UART_ErrorCallback>
        if (HAL_IS_BIT_SET(huart->Instance->CR3, USART_CR3_DMAR))
 80050ac:	e006      	b.n	80050bc <HAL_UART_IRQHandler+0x228>
#if (USE_HAL_UART_REGISTER_CALLBACKS == 1)
        /*Call registered error callback*/
        huart->ErrorCallback(huart);
#else
        /*Call legacy weak error callback*/
        HAL_UART_ErrorCallback(huart);
 80050ae:	6878      	ldr	r0, [r7, #4]
 80050b0:	f000 f994 	bl	80053dc <HAL_UART_ErrorCallback>
#endif /* USE_HAL_UART_REGISTER_CALLBACKS */

        huart->ErrorCode = HAL_UART_ERROR_NONE;
 80050b4:	687b      	ldr	r3, [r7, #4]
 80050b6:	2200      	movs	r2, #0
 80050b8:	645a      	str	r2, [r3, #68]	@ 0x44
      }
    }
    return;
 80050ba:	e175      	b.n	80053a8 <HAL_UART_IRQHandler+0x514>
        if (HAL_IS_BIT_SET(huart->Instance->CR3, USART_CR3_DMAR))
 80050bc:	bf00      	nop
    return;
 80050be:	e173      	b.n	80053a8 <HAL_UART_IRQHandler+0x514>
  } /* End if some error occurs */

  /* Check current reception Mode :
     If Reception till IDLE event has been selected : */
  if ((huart->ReceptionType == HAL_UART_RECEPTION_TOIDLE)
 80050c0:	687b      	ldr	r3, [r7, #4]
 80050c2:	6b1b      	ldr	r3, [r3, #48]	@ 0x30
 80050c4:	2b01      	cmp	r3, #1
 80050c6:	f040 814f 	bne.w	8005368 <HAL_UART_IRQHandler+0x4d4>
      && ((isrflags & USART_SR_IDLE) != 0U)
 80050ca:	f8d7 30e4 	ldr.w	r3, [r7, #228]	@ 0xe4
 80050ce:	f003 0310 	and.w	r3, r3, #16
 80050d2:	2b00      	cmp	r3, #0
 80050d4:	f000 8148 	beq.w	8005368 <HAL_UART_IRQHandler+0x4d4>
      && ((cr1its & USART_SR_IDLE) != 0U))
 80050d8:	f8d7 30e0 	ldr.w	r3, [r7, #224]	@ 0xe0
 80050dc:	f003 0310 	and.w	r3, r3, #16
 80050e0:	2b00      	cmp	r3, #0
 80050e2:	f000 8141 	beq.w	8005368 <HAL_UART_IRQHandler+0x4d4>
  {
    __HAL_UART_CLEAR_IDLEFLAG(huart);
 80050e6:	2300      	movs	r3, #0
 80050e8:	60bb      	str	r3, [r7, #8]
 80050ea:	687b      	ldr	r3, [r7, #4]
 80050ec:	681b      	ldr	r3, [r3, #0]
 80050ee:	681b      	ldr	r3, [r3, #0]
 80050f0:	60bb      	str	r3, [r7, #8]
 80050f2:	687b      	ldr	r3, [r7, #4]
 80050f4:	681b      	ldr	r3, [r3, #0]
 80050f6:	685b      	ldr	r3, [r3, #4]
 80050f8:	60bb      	str	r3, [r7, #8]
 80050fa:	68bb      	ldr	r3, [r7, #8]

    /* Check if DMA mode is enabled in UART */
    if (HAL_IS_BIT_SET(huart->Instance->CR3, USART_CR3_DMAR))
 80050fc:	687b      	ldr	r3, [r7, #4]
 80050fe:	681b      	ldr	r3, [r3, #0]
 8005100:	695b      	ldr	r3, [r3, #20]
 8005102:	f003 0340 	and.w	r3, r3, #64	@ 0x40
 8005106:	2b00      	cmp	r3, #0
 8005108:	f000 80b6 	beq.w	8005278 <HAL_UART_IRQHandler+0x3e4>
    {
      /* DMA mode enabled */
      /* Check received length : If all expected data are received, do nothing,
         (DMA cplt callback will be called).
         Otherwise, if at least one data has already been received, IDLE event is to be notified to user */
      uint16_t nb_remaining_rx_data = (uint16_t) __HAL_DMA_GET_COUNTER(huart->hdmarx);
 800510c:	687b      	ldr	r3, [r7, #4]
 800510e:	6bdb      	ldr	r3, [r3, #60]	@ 0x3c
 8005110:	681b      	ldr	r3, [r3, #0]
 8005112:	685b      	ldr	r3, [r3, #4]
 8005114:	f8a7 30be 	strh.w	r3, [r7, #190]	@ 0xbe
      if ((nb_remaining_rx_data > 0U)
 8005118:	f8b7 30be 	ldrh.w	r3, [r7, #190]	@ 0xbe
 800511c:	2b00      	cmp	r3, #0
 800511e:	f000 8145 	beq.w	80053ac <HAL_UART_IRQHandler+0x518>
          && (nb_remaining_rx_data < huart->RxXferSize))
 8005122:	687b      	ldr	r3, [r7, #4]
 8005124:	8d9b      	ldrh	r3, [r3, #44]	@ 0x2c
 8005126:	f8b7 20be 	ldrh.w	r2, [r7, #190]	@ 0xbe
 800512a:	429a      	cmp	r2, r3
 800512c:	f080 813e 	bcs.w	80053ac <HAL_UART_IRQHandler+0x518>
      {
        /* Reception is not complete */
        huart->RxXferCount = nb_remaining_rx_data;
 8005130:	687b      	ldr	r3, [r7, #4]
 8005132:	f8b7 20be 	ldrh.w	r2, [r7, #190]	@ 0xbe
 8005136:	85da      	strh	r2, [r3, #46]	@ 0x2e

        /* In Normal mode, end DMA xfer and HAL UART Rx process*/
        if (huart->hdmarx->Init.Mode != DMA_CIRCULAR)
 8005138:	687b      	ldr	r3, [r7, #4]
 800513a:	6bdb      	ldr	r3, [r3, #60]	@ 0x3c
 800513c:	699b      	ldr	r3, [r3, #24]
 800513e:	2b20      	cmp	r3, #32
 8005140:	f000 8088 	beq.w	8005254 <HAL_UART_IRQHandler+0x3c0>
        {
          /* Disable PE and ERR (Frame error, noise error, overrun error) interrupts */
          ATOMIC_CLEAR_BIT(huart->Instance->CR1, USART_CR1_PEIE);
 8005144:	687b      	ldr	r3, [r7, #4]
 8005146:	681b      	ldr	r3, [r3, #0]
 8005148:	330c      	adds	r3, #12
 800514a:	f8c7 3088 	str.w	r3, [r7, #136]	@ 0x88
   __ASM volatile ("ldrex %0, %1" : "=r" (result) : "Q" (*addr) );
 800514e:	f8d7 3088 	ldr.w	r3, [r7, #136]	@ 0x88
 8005152:	e853 3f00 	ldrex	r3, [r3]
 8005156:	f8c7 3084 	str.w	r3, [r7, #132]	@ 0x84
   return(result);
 800515a:	f8d7 3084 	ldr.w	r3, [r7, #132]	@ 0x84
 800515e:	f423 7380 	bic.w	r3, r3, #256	@ 0x100
 8005162:	f8c7 30b8 	str.w	r3, [r7, #184]	@ 0xb8
 8005166:	687b      	ldr	r3, [r7, #4]
 8005168:	681b      	ldr	r3, [r3, #0]
 800516a:	330c      	adds	r3, #12
 800516c:	f8d7 20b8 	ldr.w	r2, [r7, #184]	@ 0xb8
 8005170:	f8c7 2094 	str.w	r2, [r7, #148]	@ 0x94
 8005174:	f8c7 3090 	str.w	r3, [r7, #144]	@ 0x90
   __ASM volatile ("strex %0, %2, %1" : "=&r" (result), "=Q" (*addr) : "r" (value) );
 8005178:	f8d7 1090 	ldr.w	r1, [r7, #144]	@ 0x90
 800517c:	f8d7 2094 	ldr.w	r2, [r7, #148]	@ 0x94
 8005180:	e841 2300 	strex	r3, r2, [r1]
 8005184:	f8c7 308c 	str.w	r3, [r7, #140]	@ 0x8c
   return(result);
 8005188:	f8d7 308c 	ldr.w	r3, [r7, #140]	@ 0x8c
 800518c:	2b00      	cmp	r3, #0
 800518e:	d1d9      	bne.n	8005144 <HAL_UART_IRQHandler+0x2b0>
          ATOMIC_CLEAR_BIT(huart->Instance->CR3, USART_CR3_EIE);
 8005190:	687b      	ldr	r3, [r7, #4]
 8005192:	681b      	ldr	r3, [r3, #0]
 8005194:	3314      	adds	r3, #20
 8005196:	677b      	str	r3, [r7, #116]	@ 0x74
   __ASM volatile ("ldrex %0, %1" : "=r" (result) : "Q" (*addr) );
 8005198:	6f7b      	ldr	r3, [r7, #116]	@ 0x74
 800519a:	e853 3f00 	ldrex	r3, [r3]
 800519e:	673b      	str	r3, [r7, #112]	@ 0x70
   return(result);
 80051a0:	6f3b      	ldr	r3, [r7, #112]	@ 0x70
 80051a2:	f023 0301 	bic.w	r3, r3, #1
 80051a6:	f8c7 30b4 	str.w	r3, [r7, #180]	@ 0xb4
 80051aa:	687b      	ldr	r3, [r7, #4]
 80051ac:	681b      	ldr	r3, [r3, #0]
 80051ae:	3314      	adds	r3, #20
 80051b0:	f8d7 20b4 	ldr.w	r2, [r7, #180]	@ 0xb4
 80051b4:	f8c7 2080 	str.w	r2, [r7, #128]	@ 0x80
 80051b8:	67fb      	str	r3, [r7, #124]	@ 0x7c
   __ASM volatile ("strex %0, %2, %1" : "=&r" (result), "=Q" (*addr) : "r" (value) );
 80051ba:	6ff9      	ldr	r1, [r7, #124]	@ 0x7c
 80051bc:	f8d7 2080 	ldr.w	r2, [r7, #128]	@ 0x80
 80051c0:	e841 2300 	strex	r3, r2, [r1]
 80051c4:	67bb      	str	r3, [r7, #120]	@ 0x78
   return(result);
 80051c6:	6fbb      	ldr	r3, [r7, #120]	@ 0x78
 80051c8:	2b00      	cmp	r3, #0
 80051ca:	d1e1      	bne.n	8005190 <HAL_UART_IRQHandler+0x2fc>

          /* Disable the DMA transfer for the receiver request by resetting the DMAR bit
             in the UART CR3 register */
          ATOMIC_CLEAR_BIT(huart->Instance->CR3, USART_CR3_DMAR);
 80051cc:	687b      	ldr	r3, [r7, #4]
 80051ce:	681b      	ldr	r3, [r3, #0]
 80051d0:	3314      	adds	r3, #20
 80051d2:	663b      	str	r3, [r7, #96]	@ 0x60
   __ASM volatile ("ldrex %0, %1" : "=r" (result) : "Q" (*addr) );
 80051d4:	6e3b      	ldr	r3, [r7, #96]	@ 0x60
 80051d6:	e853 3f00 	ldrex	r3, [r3]
 80051da:	65fb      	str	r3, [r7, #92]	@ 0x5c
   return(result);
 80051dc:	6dfb      	ldr	r3, [r7, #92]	@ 0x5c
 80051de:	f023 0340 	bic.w	r3, r3, #64	@ 0x40
 80051e2:	f8c7 30b0 	str.w	r3, [r7, #176]	@ 0xb0
 80051e6:	687b      	ldr	r3, [r7, #4]
 80051e8:	681b      	ldr	r3, [r3, #0]
 80051ea:	3314      	adds	r3, #20
 80051ec:	f8d7 20b0 	ldr.w	r2, [r7, #176]	@ 0xb0
 80051f0:	66fa      	str	r2, [r7, #108]	@ 0x6c
 80051f2:	66bb      	str	r3, [r7, #104]	@ 0x68
   __ASM volatile ("strex %0, %2, %1" : "=&r" (result), "=Q" (*addr) : "r" (value) );
 80051f4:	6eb9      	ldr	r1, [r7, #104]	@ 0x68
 80051f6:	6efa      	ldr	r2, [r7, #108]	@ 0x6c
 80051f8:	e841 2300 	strex	r3, r2, [r1]
 80051fc:	667b      	str	r3, [r7, #100]	@ 0x64
   return(result);
 80051fe:	6e7b      	ldr	r3, [r7, #100]	@ 0x64
 8005200:	2b00      	cmp	r3, #0
 8005202:	d1e3      	bne.n	80051cc <HAL_UART_IRQHandler+0x338>

          /* At end of Rx process, restore huart->RxState to Ready */
          huart->RxState = HAL_UART_STATE_READY;
 8005204:	687b      	ldr	r3, [r7, #4]
 8005206:	2220      	movs	r2, #32
 8005208:	f883 2042 	strb.w	r2, [r3, #66]	@ 0x42
          huart->ReceptionType = HAL_UART_RECEPTION_STANDARD;
 800520c:	687b      	ldr	r3, [r7, #4]
 800520e:	2200      	movs	r2, #0
 8005210:	631a      	str	r2, [r3, #48]	@ 0x30

          ATOMIC_CLEAR_BIT(huart->Instance->CR1, USART_CR1_IDLEIE);
 8005212:	687b      	ldr	r3, [r7, #4]
 8005214:	681b      	ldr	r3, [r3, #0]
 8005216:	330c      	adds	r3, #12
 8005218:	64fb      	str	r3, [r7, #76]	@ 0x4c
   __ASM volatile ("ldrex %0, %1" : "=r" (result) : "Q" (*addr) );
 800521a:	6cfb      	ldr	r3, [r7, #76]	@ 0x4c
 800521c:	e853 3f00 	ldrex	r3, [r3]
 8005220:	64bb      	str	r3, [r7, #72]	@ 0x48
   return(result);
 8005222:	6cbb      	ldr	r3, [r7, #72]	@ 0x48
 8005224:	f023 0310 	bic.w	r3, r3, #16
 8005228:	f8c7 30ac 	str.w	r3, [r7, #172]	@ 0xac
 800522c:	687b      	ldr	r3, [r7, #4]
 800522e:	681b      	ldr	r3, [r3, #0]
 8005230:	330c      	adds	r3, #12
 8005232:	f8d7 20ac 	ldr.w	r2, [r7, #172]	@ 0xac
 8005236:	65ba      	str	r2, [r7, #88]	@ 0x58
 8005238:	657b      	str	r3, [r7, #84]	@ 0x54
   __ASM volatile ("strex %0, %2, %1" : "=&r" (result), "=Q" (*addr) : "r" (value) );
 800523a:	6d79      	ldr	r1, [r7, #84]	@ 0x54
 800523c:	6dba      	ldr	r2, [r7, #88]	@ 0x58
 800523e:	e841 2300 	strex	r3, r2, [r1]
 8005242:	653b      	str	r3, [r7, #80]	@ 0x50
   return(result);
 8005244:	6d3b      	ldr	r3, [r7, #80]	@ 0x50
 8005246:	2b00      	cmp	r3, #0
 8005248:	d1e3      	bne.n	8005212 <HAL_UART_IRQHandler+0x37e>

          /* Last bytes received, so no need as the abort is immediate */
          (void)HAL_DMA_Abort(huart->hdmarx);
 800524a:	687b      	ldr	r3, [r7, #4]
 800524c:	6bdb      	ldr	r3, [r3, #60]	@ 0x3c
 800524e:	4618      	mov	r0, r3
 8005250:	f7fe fc54 	bl	8003afc <HAL_DMA_Abort>
        }

        /* Initialize type of RxEvent that correspond to RxEvent callback execution;
        In this case, Rx Event type is Idle Event */
        huart->RxEventType = HAL_UART_RXEVENT_IDLE;
 8005254:	687b      	ldr	r3, [r7, #4]
 8005256:	2202      	movs	r2, #2
 8005258:	635a      	str	r2, [r3, #52]	@ 0x34
#if (USE_HAL_UART_REGISTER_CALLBACKS == 1)
        /*Call registered Rx Event callback*/
        huart->RxEventCallback(huart, (huart->RxXferSize - huart->RxXferCount));
#else
        /*Call legacy weak Rx Event callback*/
        HAL_UARTEx_RxEventCallback(huart, (huart->RxXferSize - huart->RxXferCount));
 800525a:	687b      	ldr	r3, [r7, #4]
 800525c:	8d9a      	ldrh	r2, [r3, #44]	@ 0x2c
 800525e:	687b      	ldr	r3, [r7, #4]
 8005260:	8ddb      	ldrh	r3, [r3, #46]	@ 0x2e
 8005262:	b29b      	uxth	r3, r3
 8005264:	1ad3      	subs	r3, r2, r3
 8005266:	b29b      	uxth	r3, r3
 8005268:	4619      	mov	r1, r3
 800526a:	6878      	ldr	r0, [r7, #4]
 800526c:	f000 f8bf 	bl	80053ee <HAL_UARTEx_RxEventCallback>
#endif /* USE_HAL_UART_REGISTER_CALLBACKS */
      }
      return;
 8005270:	e09c      	b.n	80053ac <HAL_UART_IRQHandler+0x518>
 8005272:	bf00      	nop
 8005274:	080059af 	.word	0x080059af
    else
    {
      /* DMA mode not enabled */
      /* Check received length : If all expected data are received, do nothing.
         Otherwise, if at least one data has already been received, IDLE event is to be notified to user */
      uint16_t nb_rx_data = huart->RxXferSize - huart->RxXferCount;
 8005278:	687b      	ldr	r3, [r7, #4]
 800527a:	8d9a      	ldrh	r2, [r3, #44]	@ 0x2c
 800527c:	687b      	ldr	r3, [r7, #4]
 800527e:	8ddb      	ldrh	r3, [r3, #46]	@ 0x2e
 8005280:	b29b      	uxth	r3, r3
 8005282:	1ad3      	subs	r3, r2, r3
 8005284:	f8a7 30ce 	strh.w	r3, [r7, #206]	@ 0xce
      if ((huart->RxXferCount > 0U)
 8005288:	687b      	ldr	r3, [r7, #4]
 800528a:	8ddb      	ldrh	r3, [r3, #46]	@ 0x2e
 800528c:	b29b      	uxth	r3, r3
 800528e:	2b00      	cmp	r3, #0
 8005290:	f000 808e 	beq.w	80053b0 <HAL_UART_IRQHandler+0x51c>
          && (nb_rx_data > 0U))
 8005294:	f8b7 30ce 	ldrh.w	r3, [r7, #206]	@ 0xce
 8005298:	2b00      	cmp	r3, #0
 800529a:	f000 8089 	beq.w	80053b0 <HAL_UART_IRQHandler+0x51c>
      {
        /* Disable the UART Parity Error Interrupt and RXNE interrupts */
        ATOMIC_CLEAR_BIT(huart->Instance->CR1, (USART_CR1_RXNEIE | USART_CR1_PEIE));
 800529e:	687b      	ldr	r3, [r7, #4]
 80052a0:	681b      	ldr	r3, [r3, #0]
 80052a2:	330c      	adds	r3, #12
 80052a4:	63bb      	str	r3, [r7, #56]	@ 0x38
   __ASM volatile ("ldrex %0, %1" : "=r" (result) : "Q" (*addr) );
 80052a6:	6bbb      	ldr	r3, [r7, #56]	@ 0x38
 80052a8:	e853 3f00 	ldrex	r3, [r3]
 80052ac:	637b      	str	r3, [r7, #52]	@ 0x34
   return(result);
 80052ae:	6b7b      	ldr	r3, [r7, #52]	@ 0x34
 80052b0:	f423 7390 	bic.w	r3, r3, #288	@ 0x120
 80052b4:	f8c7 30c8 	str.w	r3, [r7, #200]	@ 0xc8
 80052b8:	687b      	ldr	r3, [r7, #4]
 80052ba:	681b      	ldr	r3, [r3, #0]
 80052bc:	330c      	adds	r3, #12
 80052be:	f8d7 20c8 	ldr.w	r2, [r7, #200]	@ 0xc8
 80052c2:	647a      	str	r2, [r7, #68]	@ 0x44
 80052c4:	643b      	str	r3, [r7, #64]	@ 0x40
   __ASM volatile ("strex %0, %2, %1" : "=&r" (result), "=Q" (*addr) : "r" (value) );
 80052c6:	6c39      	ldr	r1, [r7, #64]	@ 0x40
 80052c8:	6c7a      	ldr	r2, [r7, #68]	@ 0x44
 80052ca:	e841 2300 	strex	r3, r2, [r1]
 80052ce:	63fb      	str	r3, [r7, #60]	@ 0x3c
   return(result);
 80052d0:	6bfb      	ldr	r3, [r7, #60]	@ 0x3c
 80052d2:	2b00      	cmp	r3, #0
 80052d4:	d1e3      	bne.n	800529e <HAL_UART_IRQHandler+0x40a>

        /* Disable the UART Error Interrupt: (Frame error, noise error, overrun error) */
        ATOMIC_CLEAR_BIT(huart->Instance->CR3, USART_CR3_EIE);
 80052d6:	687b      	ldr	r3, [r7, #4]
 80052d8:	681b      	ldr	r3, [r3, #0]
 80052da:	3314      	adds	r3, #20
 80052dc:	627b      	str	r3, [r7, #36]	@ 0x24
   __ASM volatile ("ldrex %0, %1" : "=r" (result) : "Q" (*addr) );
 80052de:	6a7b      	ldr	r3, [r7, #36]	@ 0x24
 80052e0:	e853 3f00 	ldrex	r3, [r3]
 80052e4:	623b      	str	r3, [r7, #32]
   return(result);
 80052e6:	6a3b      	ldr	r3, [r7, #32]
 80052e8:	f023 0301 	bic.w	r3, r3, #1
 80052ec:	f8c7 30c4 	str.w	r3, [r7, #196]	@ 0xc4
 80052f0:	687b      	ldr	r3, [r7, #4]
 80052f2:	681b      	ldr	r3, [r3, #0]
 80052f4:	3314      	adds	r3, #20
 80052f6:	f8d7 20c4 	ldr.w	r2, [r7, #196]	@ 0xc4
 80052fa:	633a      	str	r2, [r7, #48]	@ 0x30
 80052fc:	62fb      	str	r3, [r7, #44]	@ 0x2c
   __ASM volatile ("strex %0, %2, %1" : "=&r" (result), "=Q" (*addr) : "r" (value) );
 80052fe:	6af9      	ldr	r1, [r7, #44]	@ 0x2c
 8005300:	6b3a      	ldr	r2, [r7, #48]	@ 0x30
 8005302:	e841 2300 	strex	r3, r2, [r1]
 8005306:	62bb      	str	r3, [r7, #40]	@ 0x28
   return(result);
 8005308:	6abb      	ldr	r3, [r7, #40]	@ 0x28
 800530a:	2b00      	cmp	r3, #0
 800530c:	d1e3      	bne.n	80052d6 <HAL_UART_IRQHandler+0x442>

        /* Rx process is completed, restore huart->RxState to Ready */
        huart->RxState = HAL_UART_STATE_READY;
 800530e:	687b      	ldr	r3, [r7, #4]
 8005310:	2220      	movs	r2, #32
 8005312:	f883 2042 	strb.w	r2, [r3, #66]	@ 0x42
        huart->ReceptionType = HAL_UART_RECEPTION_STANDARD;
 8005316:	687b      	ldr	r3, [r7, #4]
 8005318:	2200      	movs	r2, #0
 800531a:	631a      	str	r2, [r3, #48]	@ 0x30

        ATOMIC_CLEAR_BIT(huart->Instance->CR1, USART_CR1_IDLEIE);
 800531c:	687b      	ldr	r3, [r7, #4]
 800531e:	681b      	ldr	r3, [r3, #0]
 8005320:	330c      	adds	r3, #12
 8005322:	613b      	str	r3, [r7, #16]
   __ASM volatile ("ldrex %0, %1" : "=r" (result) : "Q" (*addr) );
 8005324:	693b      	ldr	r3, [r7, #16]
 8005326:	e853 3f00 	ldrex	r3, [r3]
 800532a:	60fb      	str	r3, [r7, #12]
   return(result);
 800532c:	68fb      	ldr	r3, [r7, #12]
 800532e:	f023 0310 	bic.w	r3, r3, #16
 8005332:	f8c7 30c0 	str.w	r3, [r7, #192]	@ 0xc0
 8005336:	687b      	ldr	r3, [r7, #4]
 8005338:	681b      	ldr	r3, [r3, #0]
 800533a:	330c      	adds	r3, #12
 800533c:	f8d7 20c0 	ldr.w	r2, [r7, #192]	@ 0xc0
 8005340:	61fa      	str	r2, [r7, #28]
 8005342:	61bb      	str	r3, [r7, #24]
   __ASM volatile ("strex %0, %2, %1" : "=&r" (result), "=Q" (*addr) : "r" (value) );
 8005344:	69b9      	ldr	r1, [r7, #24]
 8005346:	69fa      	ldr	r2, [r7, #28]
 8005348:	e841 2300 	strex	r3, r2, [r1]
 800534c:	617b      	str	r3, [r7, #20]
   return(result);
 800534e:	697b      	ldr	r3, [r7, #20]
 8005350:	2b00      	cmp	r3, #0
 8005352:	d1e3      	bne.n	800531c <HAL_UART_IRQHandler+0x488>

        /* Initialize type of RxEvent that correspond to RxEvent callback execution;
           In this case, Rx Event type is Idle Event */
        huart->RxEventType = HAL_UART_RXEVENT_IDLE;
 8005354:	687b      	ldr	r3, [r7, #4]
 8005356:	2202      	movs	r2, #2
 8005358:	635a      	str	r2, [r3, #52]	@ 0x34
#if (USE_HAL_UART_REGISTER_CALLBACKS == 1)
        /*Call registered Rx complete callback*/
        huart->RxEventCallback(huart, nb_rx_data);
#else
        /*Call legacy weak Rx Event callback*/
        HAL_UARTEx_RxEventCallback(huart, nb_rx_data);
 800535a:	f8b7 30ce 	ldrh.w	r3, [r7, #206]	@ 0xce
 800535e:	4619      	mov	r1, r3
 8005360:	6878      	ldr	r0, [r7, #4]
 8005362:	f000 f844 	bl	80053ee <HAL_UARTEx_RxEventCallback>
#endif /* USE_HAL_UART_REGISTER_CALLBACKS */
      }
      return;
 8005366:	e023      	b.n	80053b0 <HAL_UART_IRQHandler+0x51c>
    }
  }

  /* UART in mode Transmitter ------------------------------------------------*/
  if (((isrflags & USART_SR_TXE) != RESET) && ((cr1its & USART_CR1_TXEIE) != RESET))
 8005368:	f8d7 30e4 	ldr.w	r3, [r7, #228]	@ 0xe4
 800536c:	f003 0380 	and.w	r3, r3, #128	@ 0x80
 8005370:	2b00      	cmp	r3, #0
 8005372:	d009      	beq.n	8005388 <HAL_UART_IRQHandler+0x4f4>
 8005374:	f8d7 30e0 	ldr.w	r3, [r7, #224]	@ 0xe0
 8005378:	f003 0380 	and.w	r3, r3, #128	@ 0x80
 800537c:	2b00      	cmp	r3, #0
 800537e:	d003      	beq.n	8005388 <HAL_UART_IRQHandler+0x4f4>
  {
    UART_Transmit_IT(huart);
 8005380:	6878      	ldr	r0, [r7, #4]
 8005382:	f000 fb28 	bl	80059d6 <UART_Transmit_IT>
    return;
 8005386:	e014      	b.n	80053b2 <HAL_UART_IRQHandler+0x51e>
  }

  /* UART in mode Transmitter end --------------------------------------------*/
  if (((isrflags & USART_SR_TC) != RESET) && ((cr1its & USART_CR1_TCIE) != RESET))
 8005388:	f8d7 30e4 	ldr.w	r3, [r7, #228]	@ 0xe4
 800538c:	f003 0340 	and.w	r3, r3, #64	@ 0x40
 8005390:	2b00      	cmp	r3, #0
 8005392:	d00e      	beq.n	80053b2 <HAL_UART_IRQHandler+0x51e>
 8005394:	f8d7 30e0 	ldr.w	r3, [r7, #224]	@ 0xe0
 8005398:	f003 0340 	and.w	r3, r3, #64	@ 0x40
 800539c:	2b00      	cmp	r3, #0
 800539e:	d008      	beq.n	80053b2 <HAL_UART_IRQHandler+0x51e>
  {
    UART_EndTransmit_IT(huart);
 80053a0:	6878      	ldr	r0, [r7, #4]
 80053a2:	f000 fb67 	bl	8005a74 <UART_EndTransmit_IT>
    return;
 80053a6:	e004      	b.n	80053b2 <HAL_UART_IRQHandler+0x51e>
    return;
 80053a8:	bf00      	nop
 80053aa:	e002      	b.n	80053b2 <HAL_UART_IRQHandler+0x51e>
      return;
 80053ac:	bf00      	nop
 80053ae:	e000      	b.n	80053b2 <HAL_UART_IRQHandler+0x51e>
      return;
 80053b0:	bf00      	nop
  }
}
 80053b2:	37e8      	adds	r7, #232	@ 0xe8
 80053b4:	46bd      	mov	sp, r7
 80053b6:	bd80      	pop	{r7, pc}

080053b8 <HAL_UART_TxHalfCpltCallback>:
  * @param  huart  Pointer to a UART_HandleTypeDef structure that contains
  *                the configuration information for the specified UART module.
  * @retval None
  */
__weak void HAL_UART_TxHalfCpltCallback(UART_HandleTypeDef *huart)
{
 80053b8:	b480      	push	{r7}
 80053ba:	b083      	sub	sp, #12
 80053bc:	af00      	add	r7, sp, #0
 80053be:	6078      	str	r0, [r7, #4]
  /* Prevent unused argument(s) compilation warning */
  UNUSED(huart);
  /* NOTE: This function should not be modified, when the callback is needed,
           the HAL_UART_TxHalfCpltCallback could be implemented in the user file
   */
}
 80053c0:	bf00      	nop
 80053c2:	370c      	adds	r7, #12
 80053c4:	46bd      	mov	sp, r7
 80053c6:	bc80      	pop	{r7}
 80053c8:	4770      	bx	lr

080053ca <HAL_UART_RxHalfCpltCallback>:
  * @param  huart  Pointer to a UART_HandleTypeDef structure that contains
  *                the configuration information for the specified UART module.
  * @retval None
  */
__weak void HAL_UART_RxHalfCpltCallback(UART_HandleTypeDef *huart)
{
 80053ca:	b480      	push	{r7}
 80053cc:	b083      	sub	sp, #12
 80053ce:	af00      	add	r7, sp, #0
 80053d0:	6078      	str	r0, [r7, #4]
  /* Prevent unused argument(s) compilation warning */
  UNUSED(huart);
  /* NOTE: This function should not be modified, when the callback is needed,
           the HAL_UART_RxHalfCpltCallback could be implemented in the user file
   */
}
 80053d2:	bf00      	nop
 80053d4:	370c      	adds	r7, #12
 80053d6:	46bd      	mov	sp, r7
 80053d8:	bc80      	pop	{r7}
 80053da:	4770      	bx	lr

080053dc <HAL_UART_ErrorCallback>:
  * @param  huart  Pointer to a UART_HandleTypeDef structure that contains
  *                the configuration information for the specified UART module.
  * @retval None
  */
__weak void HAL_UART_ErrorCallback(UART_HandleTypeDef *huart)
{
 80053dc:	b480      	push	{r7}
 80053de:	b083      	sub	sp, #12
 80053e0:	af00      	add	r7, sp, #0
 80053e2:	6078      	str	r0, [r7, #4]
  /* Prevent unused argument(s) compilation warning */
  UNUSED(huart);
  /* NOTE: This function should not be modified, when the callback is needed,
           the HAL_UART_ErrorCallback could be implemented in the user file
   */
}
 80053e4:	bf00      	nop
 80053e6:	370c      	adds	r7, #12
 80053e8:	46bd      	mov	sp, r7
 80053ea:	bc80      	pop	{r7}
 80053ec:	4770      	bx	lr

080053ee <HAL_UARTEx_RxEventCallback>:
  * @param  Size  Number of data available in application reception buffer (indicates a position in
  *               reception buffer until which, data are available)
  * @retval None
  */
__weak void HAL_UARTEx_RxEventCallback(UART_HandleTypeDef *huart, uint16_t Size)
{
 80053ee:	b480      	push	{r7}
 80053f0:	b083      	sub	sp, #12
 80053f2:	af00      	add	r7, sp, #0
 80053f4:	6078      	str	r0, [r7, #4]
 80053f6:	460b      	mov	r3, r1
 80053f8:	807b      	strh	r3, [r7, #2]
  UNUSED(Size);

  /* NOTE : This function should not be modified, when the callback is needed,
            the HAL_UARTEx_RxEventCallback can be implemented in the user file.
   */
}
 80053fa:	bf00      	nop
 80053fc:	370c      	adds	r7, #12
 80053fe:	46bd      	mov	sp, r7
 8005400:	bc80      	pop	{r7}
 8005402:	4770      	bx	lr

08005404 <UART_DMATransmitCplt>:
  * @param  hdma  Pointer to a DMA_HandleTypeDef structure that contains
  *               the configuration information for the specified DMA module.
  * @retval None
  */
static void UART_DMATransmitCplt(DMA_HandleTypeDef *hdma)
{
 8005404:	b580      	push	{r7, lr}
 8005406:	b090      	sub	sp, #64	@ 0x40
 8005408:	af00      	add	r7, sp, #0
 800540a:	6078      	str	r0, [r7, #4]
  UART_HandleTypeDef *huart = (UART_HandleTypeDef *)((DMA_HandleTypeDef *)hdma)->Parent;
 800540c:	687b      	ldr	r3, [r7, #4]
 800540e:	6a5b      	ldr	r3, [r3, #36]	@ 0x24
 8005410:	63fb      	str	r3, [r7, #60]	@ 0x3c
  /* DMA Normal mode*/
  if ((hdma->Instance->CCR & DMA_CCR_CIRC) == 0U)
 8005412:	687b      	ldr	r3, [r7, #4]
 8005414:	681b      	ldr	r3, [r3, #0]
 8005416:	681b      	ldr	r3, [r3, #0]
 8005418:	f003 0320 	and.w	r3, r3, #32
 800541c:	2b00      	cmp	r3, #0
 800541e:	d137      	bne.n	8005490 <UART_DMATransmitCplt+0x8c>
  {
    huart->TxXferCount = 0x00U;
 8005420:	6bfb      	ldr	r3, [r7, #60]	@ 0x3c
 8005422:	2200      	movs	r2, #0
 8005424:	84da      	strh	r2, [r3, #38]	@ 0x26

    /* Disable the DMA transfer for transmit request by setting the DMAT bit
       in the UART CR3 register */
    ATOMIC_CLEAR_BIT(huart->Instance->CR3, USART_CR3_DMAT);
 8005426:	6bfb      	ldr	r3, [r7, #60]	@ 0x3c
 8005428:	681b      	ldr	r3, [r3, #0]
 800542a:	3314      	adds	r3, #20
 800542c:	627b      	str	r3, [r7, #36]	@ 0x24
   __ASM volatile ("ldrex %0, %1" : "=r" (result) : "Q" (*addr) );
 800542e:	6a7b      	ldr	r3, [r7, #36]	@ 0x24
 8005430:	e853 3f00 	ldrex	r3, [r3]
 8005434:	623b      	str	r3, [r7, #32]
   return(result);
 8005436:	6a3b      	ldr	r3, [r7, #32]
 8005438:	f023 0380 	bic.w	r3, r3, #128	@ 0x80
 800543c:	63bb      	str	r3, [r7, #56]	@ 0x38
 800543e:	6bfb      	ldr	r3, [r7, #60]	@ 0x3c
 8005440:	681b      	ldr	r3, [r3, #0]
 8005442:	3314      	adds	r3, #20
 8005444:	6bba      	ldr	r2, [r7, #56]	@ 0x38
 8005446:	633a      	str	r2, [r7, #48]	@ 0x30
 8005448:	62fb      	str	r3, [r7, #44]	@ 0x2c
   __ASM volatile ("strex %0, %2, %1" : "=&r" (result), "=Q" (*addr) : "r" (value) );
 800544a:	6af9      	ldr	r1, [r7, #44]	@ 0x2c
 800544c:	6b3a      	ldr	r2, [r7, #48]	@ 0x30
 800544e:	e841 2300 	strex	r3, r2, [r1]
 8005452:	62bb      	str	r3, [r7, #40]	@ 0x28
   return(result);
 8005454:	6abb      	ldr	r3, [r7, #40]	@ 0x28
 8005456:	2b00      	cmp	r3, #0
 8005458:	d1e5      	bne.n	8005426 <UART_DMATransmitCplt+0x22>

    /* Enable the UART Transmit Complete Interrupt */
    ATOMIC_SET_BIT(huart->Instance->CR1, USART_CR1_TCIE);
 800545a:	6bfb      	ldr	r3, [r7, #60]	@ 0x3c
 800545c:	681b      	ldr	r3, [r3, #0]
 800545e:	330c      	adds	r3, #12
 8005460:	613b      	str	r3, [r7, #16]
   __ASM volatile ("ldrex %0, %1" : "=r" (result) : "Q" (*addr) );
 8005462:	693b      	ldr	r3, [r7, #16]
 8005464:	e853 3f00 	ldrex	r3, [r3]
 8005468:	60fb      	str	r3, [r7, #12]
   return(result);
 800546a:	68fb      	ldr	r3, [r7, #12]
 800546c:	f043 0340 	orr.w	r3, r3, #64	@ 0x40
 8005470:	637b      	str	r3, [r7, #52]	@ 0x34
 8005472:	6bfb      	ldr	r3, [r7, #60]	@ 0x3c
 8005474:	681b      	ldr	r3, [r3, #0]
 8005476:	330c      	adds	r3, #12
 8005478:	6b7a      	ldr	r2, [r7, #52]	@ 0x34
 800547a:	61fa      	str	r2, [r7, #28]
 800547c:	61bb      	str	r3, [r7, #24]
   __ASM volatile ("strex %0, %2, %1" : "=&r" (result), "=Q" (*addr) : "r" (value) );
 800547e:	69b9      	ldr	r1, [r7, #24]
 8005480:	69fa      	ldr	r2, [r7, #28]
 8005482:	e841 2300 	strex	r3, r2, [r1]
 8005486:	617b      	str	r3, [r7, #20]
   return(result);
 8005488:	697b      	ldr	r3, [r7, #20]
 800548a:	2b00      	cmp	r3, #0
 800548c:	d1e5      	bne.n	800545a <UART_DMATransmitCplt+0x56>
#else
    /*Call legacy weak Tx complete callback*/
    HAL_UART_TxCpltCallback(huart);
#endif /* USE_HAL_UART_REGISTER_CALLBACKS */
  }
}
 800548e:	e002      	b.n	8005496 <UART_DMATransmitCplt+0x92>
    HAL_UART_TxCpltCallback(huart);
 8005490:	6bf8      	ldr	r0, [r7, #60]	@ 0x3c
 8005492:	f7fd fdd1 	bl	8003038 <HAL_UART_TxCpltCallback>
}
 8005496:	bf00      	nop
 8005498:	3740      	adds	r7, #64	@ 0x40
 800549a:	46bd      	mov	sp, r7
 800549c:	bd80      	pop	{r7, pc}

0800549e <UART_DMATxHalfCplt>:
  * @param  hdma  Pointer to a DMA_HandleTypeDef structure that contains
  *               the configuration information for the specified DMA module.
  * @retval None
  */
static void UART_DMATxHalfCplt(DMA_HandleTypeDef *hdma)
{
 800549e:	b580      	push	{r7, lr}
 80054a0:	b084      	sub	sp, #16
 80054a2:	af00      	add	r7, sp, #0
 80054a4:	6078      	str	r0, [r7, #4]
  UART_HandleTypeDef *huart = (UART_HandleTypeDef *)((DMA_HandleTypeDef *)hdma)->Parent;
 80054a6:	687b      	ldr	r3, [r7, #4]
 80054a8:	6a5b      	ldr	r3, [r3, #36]	@ 0x24
 80054aa:	60fb      	str	r3, [r7, #12]
#if (USE_HAL_UART_REGISTER_CALLBACKS == 1)
  /*Call registered Tx complete callback*/
  huart->TxHalfCpltCallback(huart);
#else
  /*Call legacy weak Tx complete callback*/
  HAL_UART_TxHalfCpltCallback(huart);
 80054ac:	68f8      	ldr	r0, [r7, #12]
 80054ae:	f7ff ff83 	bl	80053b8 <HAL_UART_TxHalfCpltCallback>
#endif /* USE_HAL_UART_REGISTER_CALLBACKS */
}
 80054b2:	bf00      	nop
 80054b4:	3710      	adds	r7, #16
 80054b6:	46bd      	mov	sp, r7
 80054b8:	bd80      	pop	{r7, pc}

080054ba <UART_DMAReceiveCplt>:
  * @param  hdma  Pointer to a DMA_HandleTypeDef structure that contains
  *               the configuration information for the specified DMA module.
  * @retval None
  */
static void UART_DMAReceiveCplt(DMA_HandleTypeDef *hdma)
{
 80054ba:	b580      	push	{r7, lr}
 80054bc:	b09c      	sub	sp, #112	@ 0x70
 80054be:	af00      	add	r7, sp, #0
 80054c0:	6078      	str	r0, [r7, #4]
  UART_HandleTypeDef *huart = (UART_HandleTypeDef *)((DMA_HandleTypeDef *)hdma)->Parent;
 80054c2:	687b      	ldr	r3, [r7, #4]
 80054c4:	6a5b      	ldr	r3, [r3, #36]	@ 0x24
 80054c6:	66fb      	str	r3, [r7, #108]	@ 0x6c

  /* DMA Normal mode*/
  if ((hdma->Instance->CCR & DMA_CCR_CIRC) == 0U)
 80054c8:	687b      	ldr	r3, [r7, #4]
 80054ca:	681b      	ldr	r3, [r3, #0]
 80054cc:	681b      	ldr	r3, [r3, #0]
 80054ce:	f003 0320 	and.w	r3, r3, #32
 80054d2:	2b00      	cmp	r3, #0
 80054d4:	d172      	bne.n	80055bc <UART_DMAReceiveCplt+0x102>
  {
    huart->RxXferCount = 0U;
 80054d6:	6efb      	ldr	r3, [r7, #108]	@ 0x6c
 80054d8:	2200      	movs	r2, #0
 80054da:	85da      	strh	r2, [r3, #46]	@ 0x2e

    /* Disable RXNE, PE and ERR (Frame error, noise error, overrun error) interrupts */
    ATOMIC_CLEAR_BIT(huart->Instance->CR1, USART_CR1_PEIE);
 80054dc:	6efb      	ldr	r3, [r7, #108]	@ 0x6c
 80054de:	681b      	ldr	r3, [r3, #0]
 80054e0:	330c      	adds	r3, #12
 80054e2:	64fb      	str	r3, [r7, #76]	@ 0x4c
   __ASM volatile ("ldrex %0, %1" : "=r" (result) : "Q" (*addr) );
 80054e4:	6cfb      	ldr	r3, [r7, #76]	@ 0x4c
 80054e6:	e853 3f00 	ldrex	r3, [r3]
 80054ea:	64bb      	str	r3, [r7, #72]	@ 0x48
   return(result);
 80054ec:	6cbb      	ldr	r3, [r7, #72]	@ 0x48
 80054ee:	f423 7380 	bic.w	r3, r3, #256	@ 0x100
 80054f2:	66bb      	str	r3, [r7, #104]	@ 0x68
 80054f4:	6efb      	ldr	r3, [r7, #108]	@ 0x6c
 80054f6:	681b      	ldr	r3, [r3, #0]
 80054f8:	330c      	adds	r3, #12
 80054fa:	6eba      	ldr	r2, [r7, #104]	@ 0x68
 80054fc:	65ba      	str	r2, [r7, #88]	@ 0x58
 80054fe:	657b      	str	r3, [r7, #84]	@ 0x54
   __ASM volatile ("strex %0, %2, %1" : "=&r" (result), "=Q" (*addr) : "r" (value) );
 8005500:	6d79      	ldr	r1, [r7, #84]	@ 0x54
 8005502:	6dba      	ldr	r2, [r7, #88]	@ 0x58
 8005504:	e841 2300 	strex	r3, r2, [r1]
 8005508:	653b      	str	r3, [r7, #80]	@ 0x50
   return(result);
 800550a:	6d3b      	ldr	r3, [r7, #80]	@ 0x50
 800550c:	2b00      	cmp	r3, #0
 800550e:	d1e5      	bne.n	80054dc <UART_DMAReceiveCplt+0x22>
    ATOMIC_CLEAR_BIT(huart->Instance->CR3, USART_CR3_EIE);
 8005510:	6efb      	ldr	r3, [r7, #108]	@ 0x6c
 8005512:	681b      	ldr	r3, [r3, #0]
 8005514:	3314      	adds	r3, #20
 8005516:	63bb      	str	r3, [r7, #56]	@ 0x38
   __ASM volatile ("ldrex %0, %1" : "=r" (result) : "Q" (*addr) );
 8005518:	6bbb      	ldr	r3, [r7, #56]	@ 0x38
 800551a:	e853 3f00 	ldrex	r3, [r3]
 800551e:	637b      	str	r3, [r7, #52]	@ 0x34
   return(result);
 8005520:	6b7b      	ldr	r3, [r7, #52]	@ 0x34
 8005522:	f023 0301 	bic.w	r3, r3, #1
 8005526:	667b      	str	r3, [r7, #100]	@ 0x64
 8005528:	6efb      	ldr	r3, [r7, #108]	@ 0x6c
 800552a:	681b      	ldr	r3, [r3, #0]
 800552c:	3314      	adds	r3, #20
 800552e:	6e7a      	ldr	r2, [r7, #100]	@ 0x64
 8005530:	647a      	str	r2, [r7, #68]	@ 0x44
 8005532:	643b      	str	r3, [r7, #64]	@ 0x40
   __ASM volatile ("strex %0, %2, %1" : "=&r" (result), "=Q" (*addr) : "r" (value) );
 8005534:	6c39      	ldr	r1, [r7, #64]	@ 0x40
 8005536:	6c7a      	ldr	r2, [r7, #68]	@ 0x44
 8005538:	e841 2300 	strex	r3, r2, [r1]
 800553c:	63fb      	str	r3, [r7, #60]	@ 0x3c
   return(result);
 800553e:	6bfb      	ldr	r3, [r7, #60]	@ 0x3c
 8005540:	2b00      	cmp	r3, #0
 8005542:	d1e5      	bne.n	8005510 <UART_DMAReceiveCplt+0x56>

    /* Disable the DMA transfer for the receiver request by setting the DMAR bit
       in the UART CR3 register */
    ATOMIC_CLEAR_BIT(huart->Instance->CR3, USART_CR3_DMAR);
 8005544:	6efb      	ldr	r3, [r7, #108]	@ 0x6c
 8005546:	681b      	ldr	r3, [r3, #0]
 8005548:	3314      	adds	r3, #20
 800554a:	627b      	str	r3, [r7, #36]	@ 0x24
   __ASM volatile ("ldrex %0, %1" : "=r" (result) : "Q" (*addr) );
 800554c:	6a7b      	ldr	r3, [r7, #36]	@ 0x24
 800554e:	e853 3f00 	ldrex	r3, [r3]
 8005552:	623b      	str	r3, [r7, #32]
   return(result);
 8005554:	6a3b      	ldr	r3, [r7, #32]
 8005556:	f023 0340 	bic.w	r3, r3, #64	@ 0x40
 800555a:	663b      	str	r3, [r7, #96]	@ 0x60
 800555c:	6efb      	ldr	r3, [r7, #108]	@ 0x6c
 800555e:	681b      	ldr	r3, [r3, #0]
 8005560:	3314      	adds	r3, #20
 8005562:	6e3a      	ldr	r2, [r7, #96]	@ 0x60
 8005564:	633a      	str	r2, [r7, #48]	@ 0x30
 8005566:	62fb      	str	r3, [r7, #44]	@ 0x2c
   __ASM volatile ("strex %0, %2, %1" : "=&r" (result), "=Q" (*addr) : "r" (value) );
 8005568:	6af9      	ldr	r1, [r7, #44]	@ 0x2c
 800556a:	6b3a      	ldr	r2, [r7, #48]	@ 0x30
 800556c:	e841 2300 	strex	r3, r2, [r1]
 8005570:	62bb      	str	r3, [r7, #40]	@ 0x28
   return(result);
 8005572:	6abb      	ldr	r3, [r7, #40]	@ 0x28
 8005574:	2b00      	cmp	r3, #0
 8005576:	d1e5      	bne.n	8005544 <UART_DMAReceiveCplt+0x8a>

    /* At end of Rx process, restore huart->RxState to Ready */
    huart->RxState = HAL_UART_STATE_READY;
 8005578:	6efb      	ldr	r3, [r7, #108]	@ 0x6c
 800557a:	2220      	movs	r2, #32
 800557c:	f883 2042 	strb.w	r2, [r3, #66]	@ 0x42

    /* If Reception till IDLE event has been selected, Disable IDLE Interrupt */
    if (huart->ReceptionType == HAL_UART_RECEPTION_TOIDLE)
 8005580:	6efb      	ldr	r3, [r7, #108]	@ 0x6c
 8005582:	6b1b      	ldr	r3, [r3, #48]	@ 0x30
 8005584:	2b01      	cmp	r3, #1
 8005586:	d119      	bne.n	80055bc <UART_DMAReceiveCplt+0x102>
    {
      ATOMIC_CLEAR_BIT(huart->Instance->CR1, USART_CR1_IDLEIE);
 8005588:	6efb      	ldr	r3, [r7, #108]	@ 0x6c
 800558a:	681b      	ldr	r3, [r3, #0]
 800558c:	330c      	adds	r3, #12
 800558e:	613b      	str	r3, [r7, #16]
   __ASM volatile ("ldrex %0, %1" : "=r" (result) : "Q" (*addr) );
 8005590:	693b      	ldr	r3, [r7, #16]
 8005592:	e853 3f00 	ldrex	r3, [r3]
 8005596:	60fb      	str	r3, [r7, #12]
   return(result);
 8005598:	68fb      	ldr	r3, [r7, #12]
 800559a:	f023 0310 	bic.w	r3, r3, #16
 800559e:	65fb      	str	r3, [r7, #92]	@ 0x5c
 80055a0:	6efb      	ldr	r3, [r7, #108]	@ 0x6c
 80055a2:	681b      	ldr	r3, [r3, #0]
 80055a4:	330c      	adds	r3, #12
 80055a6:	6dfa      	ldr	r2, [r7, #92]	@ 0x5c
 80055a8:	61fa      	str	r2, [r7, #28]
 80055aa:	61bb      	str	r3, [r7, #24]
   __ASM volatile ("strex %0, %2, %1" : "=&r" (result), "=Q" (*addr) : "r" (value) );
 80055ac:	69b9      	ldr	r1, [r7, #24]
 80055ae:	69fa      	ldr	r2, [r7, #28]
 80055b0:	e841 2300 	strex	r3, r2, [r1]
 80055b4:	617b      	str	r3, [r7, #20]
   return(result);
 80055b6:	697b      	ldr	r3, [r7, #20]
 80055b8:	2b00      	cmp	r3, #0
 80055ba:	d1e5      	bne.n	8005588 <UART_DMAReceiveCplt+0xce>
    }
  }

  /* Initialize type of RxEvent that correspond to RxEvent callback execution;
   In this case, Rx Event type is Transfer Complete */
  huart->RxEventType = HAL_UART_RXEVENT_TC;
 80055bc:	6efb      	ldr	r3, [r7, #108]	@ 0x6c
 80055be:	2200      	movs	r2, #0
 80055c0:	635a      	str	r2, [r3, #52]	@ 0x34

  /* Check current reception Mode :
     If Reception till IDLE event has been selected : use Rx Event callback */
  if (huart->ReceptionType == HAL_UART_RECEPTION_TOIDLE)
 80055c2:	6efb      	ldr	r3, [r7, #108]	@ 0x6c
 80055c4:	6b1b      	ldr	r3, [r3, #48]	@ 0x30
 80055c6:	2b01      	cmp	r3, #1
 80055c8:	d106      	bne.n	80055d8 <UART_DMAReceiveCplt+0x11e>
#if (USE_HAL_UART_REGISTER_CALLBACKS == 1)
    /*Call registered Rx Event callback*/
    huart->RxEventCallback(huart, huart->RxXferSize);
#else
    /*Call legacy weak Rx Event callback*/
    HAL_UARTEx_RxEventCallback(huart, huart->RxXferSize);
 80055ca:	6efb      	ldr	r3, [r7, #108]	@ 0x6c
 80055cc:	8d9b      	ldrh	r3, [r3, #44]	@ 0x2c
 80055ce:	4619      	mov	r1, r3
 80055d0:	6ef8      	ldr	r0, [r7, #108]	@ 0x6c
 80055d2:	f7ff ff0c 	bl	80053ee <HAL_UARTEx_RxEventCallback>
#else
    /*Call legacy weak Rx complete callback*/
    HAL_UART_RxCpltCallback(huart);
#endif /* USE_HAL_UART_REGISTER_CALLBACKS */
  }
}
 80055d6:	e002      	b.n	80055de <UART_DMAReceiveCplt+0x124>
    HAL_UART_RxCpltCallback(huart);
 80055d8:	6ef8      	ldr	r0, [r7, #108]	@ 0x6c
 80055da:	f7fd fd3d 	bl	8003058 <HAL_UART_RxCpltCallback>
}
 80055de:	bf00      	nop
 80055e0:	3770      	adds	r7, #112	@ 0x70
 80055e2:	46bd      	mov	sp, r7
 80055e4:	bd80      	pop	{r7, pc}

080055e6 <UART_DMARxHalfCplt>:
  * @param  hdma  Pointer to a DMA_HandleTypeDef structure that contains
  *               the configuration information for the specified DMA module.
  * @retval None
  */
static void UART_DMARxHalfCplt(DMA_HandleTypeDef *hdma)
{
 80055e6:	b580      	push	{r7, lr}
 80055e8:	b084      	sub	sp, #16
 80055ea:	af00      	add	r7, sp, #0
 80055ec:	6078      	str	r0, [r7, #4]
  UART_HandleTypeDef *huart = (UART_HandleTypeDef *)((DMA_HandleTypeDef *)hdma)->Parent;
 80055ee:	687b      	ldr	r3, [r7, #4]
 80055f0:	6a5b      	ldr	r3, [r3, #36]	@ 0x24
 80055f2:	60fb      	str	r3, [r7, #12]

  /* Initialize type of RxEvent that correspond to RxEvent callback execution;
     In this case, Rx Event type is Half Transfer */
  huart->RxEventType = HAL_UART_RXEVENT_HT;
 80055f4:	68fb      	ldr	r3, [r7, #12]
 80055f6:	2201      	movs	r2, #1
 80055f8:	635a      	str	r2, [r3, #52]	@ 0x34

  /* Check current reception Mode :
     If Reception till IDLE event has been selected : use Rx Event callback */
  if (huart->ReceptionType == HAL_UART_RECEPTION_TOIDLE)
 80055fa:	68fb      	ldr	r3, [r7, #12]
 80055fc:	6b1b      	ldr	r3, [r3, #48]	@ 0x30
 80055fe:	2b01      	cmp	r3, #1
 8005600:	d108      	bne.n	8005614 <UART_DMARxHalfCplt+0x2e>
#if (USE_HAL_UART_REGISTER_CALLBACKS == 1)
    /*Call registered Rx Event callback*/
    huart->RxEventCallback(huart, huart->RxXferSize / 2U);
#else
    /*Call legacy weak Rx Event callback*/
    HAL_UARTEx_RxEventCallback(huart, huart->RxXferSize / 2U);
 8005602:	68fb      	ldr	r3, [r7, #12]
 8005604:	8d9b      	ldrh	r3, [r3, #44]	@ 0x2c
 8005606:	085b      	lsrs	r3, r3, #1
 8005608:	b29b      	uxth	r3, r3
 800560a:	4619      	mov	r1, r3
 800560c:	68f8      	ldr	r0, [r7, #12]
 800560e:	f7ff feee 	bl	80053ee <HAL_UARTEx_RxEventCallback>
#else
    /*Call legacy weak Rx Half complete callback*/
    HAL_UART_RxHalfCpltCallback(huart);
#endif /* USE_HAL_UART_REGISTER_CALLBACKS */
  }
}
 8005612:	e002      	b.n	800561a <UART_DMARxHalfCplt+0x34>
    HAL_UART_RxHalfCpltCallback(huart);
 8005614:	68f8      	ldr	r0, [r7, #12]
 8005616:	f7ff fed8 	bl	80053ca <HAL_UART_RxHalfCpltCallback>
}
 800561a:	bf00      	nop
 800561c:	3710      	adds	r7, #16
 800561e:	46bd      	mov	sp, r7
 8005620:	bd80      	pop	{r7, pc}

08005622 <UART_DMAError>:
  * @param  hdma  Pointer to a DMA_HandleTypeDef structure that contains
  *               the configuration information for the specified DMA module.
  * @retval None
  */
static void UART_DMAError(DMA_HandleTypeDef *hdma)
{
 8005622:	b580      	push	{r7, lr}
 8005624:	b084      	sub	sp, #16
 8005626:	af00      	add	r7, sp, #0
 8005628:	6078      	str	r0, [r7, #4]
  uint32_t dmarequest = 0x00U;
 800562a:	2300      	movs	r3, #0
 800562c:	60fb      	str	r3, [r7, #12]
  UART_HandleTypeDef *huart = (UART_HandleTypeDef *)((DMA_HandleTypeDef *)hdma)->Parent;
 800562e:	687b      	ldr	r3, [r7, #4]
 8005630:	6a5b      	ldr	r3, [r3, #36]	@ 0x24
 8005632:	60bb      	str	r3, [r7, #8]

  /* Stop UART DMA Tx request if ongoing */
  dmarequest = HAL_IS_BIT_SET(huart->Instance->CR3, USART_CR3_DMAT);
 8005634:	68bb      	ldr	r3, [r7, #8]
 8005636:	681b      	ldr	r3, [r3, #0]
 8005638:	695b      	ldr	r3, [r3, #20]
 800563a:	f003 0380 	and.w	r3, r3, #128	@ 0x80
 800563e:	2b00      	cmp	r3, #0
 8005640:	bf14      	ite	ne
 8005642:	2301      	movne	r3, #1
 8005644:	2300      	moveq	r3, #0
 8005646:	b2db      	uxtb	r3, r3
 8005648:	60fb      	str	r3, [r7, #12]
  if ((huart->gState == HAL_UART_STATE_BUSY_TX) && dmarequest)
 800564a:	68bb      	ldr	r3, [r7, #8]
 800564c:	f893 3041 	ldrb.w	r3, [r3, #65]	@ 0x41
 8005650:	b2db      	uxtb	r3, r3
 8005652:	2b21      	cmp	r3, #33	@ 0x21
 8005654:	d108      	bne.n	8005668 <UART_DMAError+0x46>
 8005656:	68fb      	ldr	r3, [r7, #12]
 8005658:	2b00      	cmp	r3, #0
 800565a:	d005      	beq.n	8005668 <UART_DMAError+0x46>
  {
    huart->TxXferCount = 0x00U;
 800565c:	68bb      	ldr	r3, [r7, #8]
 800565e:	2200      	movs	r2, #0
 8005660:	84da      	strh	r2, [r3, #38]	@ 0x26
    UART_EndTxTransfer(huart);
 8005662:	68b8      	ldr	r0, [r7, #8]
 8005664:	f000 f91a 	bl	800589c <UART_EndTxTransfer>
  }

  /* Stop UART DMA Rx request if ongoing */
  dmarequest = HAL_IS_BIT_SET(huart->Instance->CR3, USART_CR3_DMAR);
 8005668:	68bb      	ldr	r3, [r7, #8]
 800566a:	681b      	ldr	r3, [r3, #0]
 800566c:	695b      	ldr	r3, [r3, #20]
 800566e:	f003 0340 	and.w	r3, r3, #64	@ 0x40
 8005672:	2b00      	cmp	r3, #0
 8005674:	bf14      	ite	ne
 8005676:	2301      	movne	r3, #1
 8005678:	2300      	moveq	r3, #0
 800567a:	b2db      	uxtb	r3, r3
 800567c:	60fb      	str	r3, [r7, #12]
  if ((huart->RxState == HAL_UART_STATE_BUSY_RX) && dmarequest)
 800567e:	68bb      	ldr	r3, [r7, #8]
 8005680:	f893 3042 	ldrb.w	r3, [r3, #66]	@ 0x42
 8005684:	b2db      	uxtb	r3, r3
 8005686:	2b22      	cmp	r3, #34	@ 0x22
 8005688:	d108      	bne.n	800569c <UART_DMAError+0x7a>
 800568a:	68fb      	ldr	r3, [r7, #12]
 800568c:	2b00      	cmp	r3, #0
 800568e:	d005      	beq.n	800569c <UART_DMAError+0x7a>
  {
    huart->RxXferCount = 0x00U;
 8005690:	68bb      	ldr	r3, [r7, #8]
 8005692:	2200      	movs	r2, #0
 8005694:	85da      	strh	r2, [r3, #46]	@ 0x2e
    UART_EndRxTransfer(huart);
 8005696:	68b8      	ldr	r0, [r7, #8]
 8005698:	f000 f927 	bl	80058ea <UART_EndRxTransfer>
  }

  huart->ErrorCode |= HAL_UART_ERROR_DMA;
 800569c:	68bb      	ldr	r3, [r7, #8]
 800569e:	6c5b      	ldr	r3, [r3, #68]	@ 0x44
 80056a0:	f043 0210 	orr.w	r2, r3, #16
 80056a4:	68bb      	ldr	r3, [r7, #8]
 80056a6:	645a      	str	r2, [r3, #68]	@ 0x44
#if (USE_HAL_UART_REGISTER_CALLBACKS == 1)
  /*Call registered error callback*/
  huart->ErrorCallback(huart);
#else
  /*Call legacy weak error callback*/
  HAL_UART_ErrorCallback(huart);
 80056a8:	68b8      	ldr	r0, [r7, #8]
 80056aa:	f7ff fe97 	bl	80053dc <HAL_UART_ErrorCallback>
#endif /* USE_HAL_UART_REGISTER_CALLBACKS */
}
 80056ae:	bf00      	nop
 80056b0:	3710      	adds	r7, #16
 80056b2:	46bd      	mov	sp, r7
 80056b4:	bd80      	pop	{r7, pc}

080056b6 <UART_WaitOnFlagUntilTimeout>:
  * @param  Timeout Timeout duration
  * @retval HAL status
  */
static HAL_StatusTypeDef UART_WaitOnFlagUntilTimeout(UART_HandleTypeDef *huart, uint32_t Flag, FlagStatus Status,
                                                     uint32_t Tickstart, uint32_t Timeout)
{
 80056b6:	b580      	push	{r7, lr}
 80056b8:	b086      	sub	sp, #24
 80056ba:	af00      	add	r7, sp, #0
 80056bc:	60f8      	str	r0, [r7, #12]
 80056be:	60b9      	str	r1, [r7, #8]
 80056c0:	603b      	str	r3, [r7, #0]
 80056c2:	4613      	mov	r3, r2
 80056c4:	71fb      	strb	r3, [r7, #7]
  /* Wait until flag is set */
  while ((__HAL_UART_GET_FLAG(huart, Flag) ? SET : RESET) == Status)
 80056c6:	e03b      	b.n	8005740 <UART_WaitOnFlagUntilTimeout+0x8a>
  {
    /* Check for the Timeout */
    if (Timeout != HAL_MAX_DELAY)
 80056c8:	6a3b      	ldr	r3, [r7, #32]
 80056ca:	f1b3 3fff 	cmp.w	r3, #4294967295
 80056ce:	d037      	beq.n	8005740 <UART_WaitOnFlagUntilTimeout+0x8a>
    {
      if (((HAL_GetTick() - Tickstart) > Timeout) || (Timeout == 0U))
 80056d0:	f7fe f81e 	bl	8003710 <HAL_GetTick>
 80056d4:	4602      	mov	r2, r0
 80056d6:	683b      	ldr	r3, [r7, #0]
 80056d8:	1ad3      	subs	r3, r2, r3
 80056da:	6a3a      	ldr	r2, [r7, #32]
 80056dc:	429a      	cmp	r2, r3
 80056de:	d302      	bcc.n	80056e6 <UART_WaitOnFlagUntilTimeout+0x30>
 80056e0:	6a3b      	ldr	r3, [r7, #32]
 80056e2:	2b00      	cmp	r3, #0
 80056e4:	d101      	bne.n	80056ea <UART_WaitOnFlagUntilTimeout+0x34>
      {

        return HAL_TIMEOUT;
 80056e6:	2303      	movs	r3, #3
 80056e8:	e03a      	b.n	8005760 <UART_WaitOnFlagUntilTimeout+0xaa>
      }

      if ((READ_BIT(huart->Instance->CR1, USART_CR1_RE) != 0U) && (Flag != UART_FLAG_TXE) && (Flag != UART_FLAG_TC))
 80056ea:	68fb      	ldr	r3, [r7, #12]
 80056ec:	681b      	ldr	r3, [r3, #0]
 80056ee:	68db      	ldr	r3, [r3, #12]
 80056f0:	f003 0304 	and.w	r3, r3, #4
 80056f4:	2b00      	cmp	r3, #0
 80056f6:	d023      	beq.n	8005740 <UART_WaitOnFlagUntilTimeout+0x8a>
 80056f8:	68bb      	ldr	r3, [r7, #8]
 80056fa:	2b80      	cmp	r3, #128	@ 0x80
 80056fc:	d020      	beq.n	8005740 <UART_WaitOnFlagUntilTimeout+0x8a>
 80056fe:	68bb      	ldr	r3, [r7, #8]
 8005700:	2b40      	cmp	r3, #64	@ 0x40
 8005702:	d01d      	beq.n	8005740 <UART_WaitOnFlagUntilTimeout+0x8a>
      {
        if (__HAL_UART_GET_FLAG(huart, UART_FLAG_ORE) == SET)
 8005704:	68fb      	ldr	r3, [r7, #12]
 8005706:	681b      	ldr	r3, [r3, #0]
 8005708:	681b      	ldr	r3, [r3, #0]
 800570a:	f003 0308 	and.w	r3, r3, #8
 800570e:	2b08      	cmp	r3, #8
 8005710:	d116      	bne.n	8005740 <UART_WaitOnFlagUntilTimeout+0x8a>
        {
          /* Clear Overrun Error flag*/
          __HAL_UART_CLEAR_OREFLAG(huart);
 8005712:	2300      	movs	r3, #0
 8005714:	617b      	str	r3, [r7, #20]
 8005716:	68fb      	ldr	r3, [r7, #12]
 8005718:	681b      	ldr	r3, [r3, #0]
 800571a:	681b      	ldr	r3, [r3, #0]
 800571c:	617b      	str	r3, [r7, #20]
 800571e:	68fb      	ldr	r3, [r7, #12]
 8005720:	681b      	ldr	r3, [r3, #0]
 8005722:	685b      	ldr	r3, [r3, #4]
 8005724:	617b      	str	r3, [r7, #20]
 8005726:	697b      	ldr	r3, [r7, #20]

          /* Blocking error : transfer is aborted
          Set the UART state ready to be able to start again the process,
          Disable Rx Interrupts if ongoing */
          UART_EndRxTransfer(huart);
 8005728:	68f8      	ldr	r0, [r7, #12]
 800572a:	f000 f8de 	bl	80058ea <UART_EndRxTransfer>

          huart->ErrorCode = HAL_UART_ERROR_ORE;
 800572e:	68fb      	ldr	r3, [r7, #12]
 8005730:	2208      	movs	r2, #8
 8005732:	645a      	str	r2, [r3, #68]	@ 0x44

          /* Process Unlocked */
          __HAL_UNLOCK(huart);
 8005734:	68fb      	ldr	r3, [r7, #12]
 8005736:	2200      	movs	r2, #0
 8005738:	f883 2040 	strb.w	r2, [r3, #64]	@ 0x40

          return HAL_ERROR;
 800573c:	2301      	movs	r3, #1
 800573e:	e00f      	b.n	8005760 <UART_WaitOnFlagUntilTimeout+0xaa>
  while ((__HAL_UART_GET_FLAG(huart, Flag) ? SET : RESET) == Status)
 8005740:	68fb      	ldr	r3, [r7, #12]
 8005742:	681b      	ldr	r3, [r3, #0]
 8005744:	681a      	ldr	r2, [r3, #0]
 8005746:	68bb      	ldr	r3, [r7, #8]
 8005748:	4013      	ands	r3, r2
 800574a:	68ba      	ldr	r2, [r7, #8]
 800574c:	429a      	cmp	r2, r3
 800574e:	bf0c      	ite	eq
 8005750:	2301      	moveq	r3, #1
 8005752:	2300      	movne	r3, #0
 8005754:	b2db      	uxtb	r3, r3
 8005756:	461a      	mov	r2, r3
 8005758:	79fb      	ldrb	r3, [r7, #7]
 800575a:	429a      	cmp	r2, r3
 800575c:	d0b4      	beq.n	80056c8 <UART_WaitOnFlagUntilTimeout+0x12>
        }
      }
    }
  }
  return HAL_OK;
 800575e:	2300      	movs	r3, #0
}
 8005760:	4618      	mov	r0, r3
 8005762:	3718      	adds	r7, #24
 8005764:	46bd      	mov	sp, r7
 8005766:	bd80      	pop	{r7, pc}

08005768 <UART_Start_Receive_DMA>:
  * @param  pData Pointer to data buffer (u8 or u16 data elements).
  * @param  Size  Amount of data elements (u8 or u16) to be received.
  * @retval HAL status
  */
HAL_StatusTypeDef UART_Start_Receive_DMA(UART_HandleTypeDef *huart, uint8_t *pData, uint16_t Size)
{
 8005768:	b580      	push	{r7, lr}
 800576a:	b098      	sub	sp, #96	@ 0x60
 800576c:	af00      	add	r7, sp, #0
 800576e:	60f8      	str	r0, [r7, #12]
 8005770:	60b9      	str	r1, [r7, #8]
 8005772:	4613      	mov	r3, r2
 8005774:	80fb      	strh	r3, [r7, #6]
  uint32_t *tmp;

  huart->pRxBuffPtr = pData;
 8005776:	68ba      	ldr	r2, [r7, #8]
 8005778:	68fb      	ldr	r3, [r7, #12]
 800577a:	629a      	str	r2, [r3, #40]	@ 0x28
  huart->RxXferSize = Size;
 800577c:	68fb      	ldr	r3, [r7, #12]
 800577e:	88fa      	ldrh	r2, [r7, #6]
 8005780:	859a      	strh	r2, [r3, #44]	@ 0x2c

  huart->ErrorCode = HAL_UART_ERROR_NONE;
 8005782:	68fb      	ldr	r3, [r7, #12]
 8005784:	2200      	movs	r2, #0
 8005786:	645a      	str	r2, [r3, #68]	@ 0x44
  huart->RxState = HAL_UART_STATE_BUSY_RX;
 8005788:	68fb      	ldr	r3, [r7, #12]
 800578a:	2222      	movs	r2, #34	@ 0x22
 800578c:	f883 2042 	strb.w	r2, [r3, #66]	@ 0x42

  /* Set the UART DMA transfer complete callback */
  huart->hdmarx->XferCpltCallback = UART_DMAReceiveCplt;
 8005790:	68fb      	ldr	r3, [r7, #12]
 8005792:	6bdb      	ldr	r3, [r3, #60]	@ 0x3c
 8005794:	4a3e      	ldr	r2, [pc, #248]	@ (8005890 <UART_Start_Receive_DMA+0x128>)
 8005796:	629a      	str	r2, [r3, #40]	@ 0x28

  /* Set the UART DMA Half transfer complete callback */
  huart->hdmarx->XferHalfCpltCallback = UART_DMARxHalfCplt;
 8005798:	68fb      	ldr	r3, [r7, #12]
 800579a:	6bdb      	ldr	r3, [r3, #60]	@ 0x3c
 800579c:	4a3d      	ldr	r2, [pc, #244]	@ (8005894 <UART_Start_Receive_DMA+0x12c>)
 800579e:	62da      	str	r2, [r3, #44]	@ 0x2c

  /* Set the DMA error callback */
  huart->hdmarx->XferErrorCallback = UART_DMAError;
 80057a0:	68fb      	ldr	r3, [r7, #12]
 80057a2:	6bdb      	ldr	r3, [r3, #60]	@ 0x3c
 80057a4:	4a3c      	ldr	r2, [pc, #240]	@ (8005898 <UART_Start_Receive_DMA+0x130>)
 80057a6:	631a      	str	r2, [r3, #48]	@ 0x30

  /* Set the DMA abort callback */
  huart->hdmarx->XferAbortCallback = NULL;
 80057a8:	68fb      	ldr	r3, [r7, #12]
 80057aa:	6bdb      	ldr	r3, [r3, #60]	@ 0x3c
 80057ac:	2200      	movs	r2, #0
 80057ae:	635a      	str	r2, [r3, #52]	@ 0x34

  /* Enable the DMA stream */
  tmp = (uint32_t *)&pData;
 80057b0:	f107 0308 	add.w	r3, r7, #8
 80057b4:	65fb      	str	r3, [r7, #92]	@ 0x5c
  HAL_DMA_Start_IT(huart->hdmarx, (uint32_t)&huart->Instance->DR, *(uint32_t *)tmp, Size);
 80057b6:	68fb      	ldr	r3, [r7, #12]
 80057b8:	6bd8      	ldr	r0, [r3, #60]	@ 0x3c
 80057ba:	68fb      	ldr	r3, [r7, #12]
 80057bc:	681b      	ldr	r3, [r3, #0]
 80057be:	3304      	adds	r3, #4
 80057c0:	4619      	mov	r1, r3
 80057c2:	6dfb      	ldr	r3, [r7, #92]	@ 0x5c
 80057c4:	681a      	ldr	r2, [r3, #0]
 80057c6:	88fb      	ldrh	r3, [r7, #6]
 80057c8:	f7fe f938 	bl	8003a3c <HAL_DMA_Start_IT>

  /* Clear the Overrun flag just before enabling the DMA Rx request: can be mandatory for the second transfer */
  __HAL_UART_CLEAR_OREFLAG(huart);
 80057cc:	2300      	movs	r3, #0
 80057ce:	613b      	str	r3, [r7, #16]
 80057d0:	68fb      	ldr	r3, [r7, #12]
 80057d2:	681b      	ldr	r3, [r3, #0]
 80057d4:	681b      	ldr	r3, [r3, #0]
 80057d6:	613b      	str	r3, [r7, #16]
 80057d8:	68fb      	ldr	r3, [r7, #12]
 80057da:	681b      	ldr	r3, [r3, #0]
 80057dc:	685b      	ldr	r3, [r3, #4]
 80057de:	613b      	str	r3, [r7, #16]
 80057e0:	693b      	ldr	r3, [r7, #16]

  if (huart->Init.Parity != UART_PARITY_NONE)
 80057e2:	68fb      	ldr	r3, [r7, #12]
 80057e4:	691b      	ldr	r3, [r3, #16]
 80057e6:	2b00      	cmp	r3, #0
 80057e8:	d019      	beq.n	800581e <UART_Start_Receive_DMA+0xb6>
  {
    /* Enable the UART Parity Error Interrupt */
    ATOMIC_SET_BIT(huart->Instance->CR1, USART_CR1_PEIE);
 80057ea:	68fb      	ldr	r3, [r7, #12]
 80057ec:	681b      	ldr	r3, [r3, #0]
 80057ee:	330c      	adds	r3, #12
 80057f0:	643b      	str	r3, [r7, #64]	@ 0x40
   __ASM volatile ("ldrex %0, %1" : "=r" (result) : "Q" (*addr) );
 80057f2:	6c3b      	ldr	r3, [r7, #64]	@ 0x40
 80057f4:	e853 3f00 	ldrex	r3, [r3]
 80057f8:	63fb      	str	r3, [r7, #60]	@ 0x3c
   return(result);
 80057fa:	6bfb      	ldr	r3, [r7, #60]	@ 0x3c
 80057fc:	f443 7380 	orr.w	r3, r3, #256	@ 0x100
 8005800:	65bb      	str	r3, [r7, #88]	@ 0x58
 8005802:	68fb      	ldr	r3, [r7, #12]
 8005804:	681b      	ldr	r3, [r3, #0]
 8005806:	330c      	adds	r3, #12
 8005808:	6dba      	ldr	r2, [r7, #88]	@ 0x58
 800580a:	64fa      	str	r2, [r7, #76]	@ 0x4c
 800580c:	64bb      	str	r3, [r7, #72]	@ 0x48
   __ASM volatile ("strex %0, %2, %1" : "=&r" (result), "=Q" (*addr) : "r" (value) );
 800580e:	6cb9      	ldr	r1, [r7, #72]	@ 0x48
 8005810:	6cfa      	ldr	r2, [r7, #76]	@ 0x4c
 8005812:	e841 2300 	strex	r3, r2, [r1]
 8005816:	647b      	str	r3, [r7, #68]	@ 0x44
   return(result);
 8005818:	6c7b      	ldr	r3, [r7, #68]	@ 0x44
 800581a:	2b00      	cmp	r3, #0
 800581c:	d1e5      	bne.n	80057ea <UART_Start_Receive_DMA+0x82>
  }

  /* Enable the UART Error Interrupt: (Frame error, noise error, overrun error) */
  ATOMIC_SET_BIT(huart->Instance->CR3, USART_CR3_EIE);
 800581e:	68fb      	ldr	r3, [r7, #12]
 8005820:	681b      	ldr	r3, [r3, #0]
 8005822:	3314      	adds	r3, #20
 8005824:	62fb      	str	r3, [r7, #44]	@ 0x2c
   __ASM volatile ("ldrex %0, %1" : "=r" (result) : "Q" (*addr) );
 8005826:	6afb      	ldr	r3, [r7, #44]	@ 0x2c
 8005828:	e853 3f00 	ldrex	r3, [r3]
 800582c:	62bb      	str	r3, [r7, #40]	@ 0x28
   return(result);
 800582e:	6abb      	ldr	r3, [r7, #40]	@ 0x28
 8005830:	f043 0301 	orr.w	r3, r3, #1
 8005834:	657b      	str	r3, [r7, #84]	@ 0x54
 8005836:	68fb      	ldr	r3, [r7, #12]
 8005838:	681b      	ldr	r3, [r3, #0]
 800583a:	3314      	adds	r3, #20
 800583c:	6d7a      	ldr	r2, [r7, #84]	@ 0x54
 800583e:	63ba      	str	r2, [r7, #56]	@ 0x38
 8005840:	637b      	str	r3, [r7, #52]	@ 0x34
   __ASM volatile ("strex %0, %2, %1" : "=&r" (result), "=Q" (*addr) : "r" (value) );
 8005842:	6b79      	ldr	r1, [r7, #52]	@ 0x34
 8005844:	6bba      	ldr	r2, [r7, #56]	@ 0x38
 8005846:	e841 2300 	strex	r3, r2, [r1]
 800584a:	633b      	str	r3, [r7, #48]	@ 0x30
   return(result);
 800584c:	6b3b      	ldr	r3, [r7, #48]	@ 0x30
 800584e:	2b00      	cmp	r3, #0
 8005850:	d1e5      	bne.n	800581e <UART_Start_Receive_DMA+0xb6>

  /* Enable the DMA transfer for the receiver request by setting the DMAR bit
  in the UART CR3 register */
  ATOMIC_SET_BIT(huart->Instance->CR3, USART_CR3_DMAR);
 8005852:	68fb      	ldr	r3, [r7, #12]
 8005854:	681b      	ldr	r3, [r3, #0]
 8005856:	3314      	adds	r3, #20
 8005858:	61bb      	str	r3, [r7, #24]
   __ASM volatile ("ldrex %0, %1" : "=r" (result) : "Q" (*addr) );
 800585a:	69bb      	ldr	r3, [r7, #24]
 800585c:	e853 3f00 	ldrex	r3, [r3]
 8005860:	617b      	str	r3, [r7, #20]
   return(result);
 8005862:	697b      	ldr	r3, [r7, #20]
 8005864:	f043 0340 	orr.w	r3, r3, #64	@ 0x40
 8005868:	653b      	str	r3, [r7, #80]	@ 0x50
 800586a:	68fb      	ldr	r3, [r7, #12]
 800586c:	681b      	ldr	r3, [r3, #0]
 800586e:	3314      	adds	r3, #20
 8005870:	6d3a      	ldr	r2, [r7, #80]	@ 0x50
 8005872:	627a      	str	r2, [r7, #36]	@ 0x24
 8005874:	623b      	str	r3, [r7, #32]
   __ASM volatile ("strex %0, %2, %1" : "=&r" (result), "=Q" (*addr) : "r" (value) );
 8005876:	6a39      	ldr	r1, [r7, #32]
 8005878:	6a7a      	ldr	r2, [r7, #36]	@ 0x24
 800587a:	e841 2300 	strex	r3, r2, [r1]
 800587e:	61fb      	str	r3, [r7, #28]
   return(result);
 8005880:	69fb      	ldr	r3, [r7, #28]
 8005882:	2b00      	cmp	r3, #0
 8005884:	d1e5      	bne.n	8005852 <UART_Start_Receive_DMA+0xea>

  return HAL_OK;
 8005886:	2300      	movs	r3, #0
}
 8005888:	4618      	mov	r0, r3
 800588a:	3760      	adds	r7, #96	@ 0x60
 800588c:	46bd      	mov	sp, r7
 800588e:	bd80      	pop	{r7, pc}
 8005890:	080054bb 	.word	0x080054bb
 8005894:	080055e7 	.word	0x080055e7
 8005898:	08005623 	.word	0x08005623

0800589c <UART_EndTxTransfer>:
  * @brief  End ongoing Tx transfer on UART peripheral (following error detection or Transmit completion).
  * @param  huart UART handle.
  * @retval None
  */
static void UART_EndTxTransfer(UART_HandleTypeDef *huart)
{
 800589c:	b480      	push	{r7}
 800589e:	b089      	sub	sp, #36	@ 0x24
 80058a0:	af00      	add	r7, sp, #0
 80058a2:	6078      	str	r0, [r7, #4]
  /* Disable TXEIE and TCIE interrupts */
  ATOMIC_CLEAR_BIT(huart->Instance->CR1, (USART_CR1_TXEIE | USART_CR1_TCIE));
 80058a4:	687b      	ldr	r3, [r7, #4]
 80058a6:	681b      	ldr	r3, [r3, #0]
 80058a8:	330c      	adds	r3, #12
 80058aa:	60fb      	str	r3, [r7, #12]
   __ASM volatile ("ldrex %0, %1" : "=r" (result) : "Q" (*addr) );
 80058ac:	68fb      	ldr	r3, [r7, #12]
 80058ae:	e853 3f00 	ldrex	r3, [r3]
 80058b2:	60bb      	str	r3, [r7, #8]
   return(result);
 80058b4:	68bb      	ldr	r3, [r7, #8]
 80058b6:	f023 03c0 	bic.w	r3, r3, #192	@ 0xc0
 80058ba:	61fb      	str	r3, [r7, #28]
 80058bc:	687b      	ldr	r3, [r7, #4]
 80058be:	681b      	ldr	r3, [r3, #0]
 80058c0:	330c      	adds	r3, #12
 80058c2:	69fa      	ldr	r2, [r7, #28]
 80058c4:	61ba      	str	r2, [r7, #24]
 80058c6:	617b      	str	r3, [r7, #20]
   __ASM volatile ("strex %0, %2, %1" : "=&r" (result), "=Q" (*addr) : "r" (value) );
 80058c8:	6979      	ldr	r1, [r7, #20]
 80058ca:	69ba      	ldr	r2, [r7, #24]
 80058cc:	e841 2300 	strex	r3, r2, [r1]
 80058d0:	613b      	str	r3, [r7, #16]
   return(result);
 80058d2:	693b      	ldr	r3, [r7, #16]
 80058d4:	2b00      	cmp	r3, #0
 80058d6:	d1e5      	bne.n	80058a4 <UART_EndTxTransfer+0x8>

  /* At end of Tx process, restore huart->gState to Ready */
  huart->gState = HAL_UART_STATE_READY;
 80058d8:	687b      	ldr	r3, [r7, #4]
 80058da:	2220      	movs	r2, #32
 80058dc:	f883 2041 	strb.w	r2, [r3, #65]	@ 0x41
}
 80058e0:	bf00      	nop
 80058e2:	3724      	adds	r7, #36	@ 0x24
 80058e4:	46bd      	mov	sp, r7
 80058e6:	bc80      	pop	{r7}
 80058e8:	4770      	bx	lr

080058ea <UART_EndRxTransfer>:
  * @brief  End ongoing Rx transfer on UART peripheral (following error detection or Reception completion).
  * @param  huart UART handle.
  * @retval None
  */
static void UART_EndRxTransfer(UART_HandleTypeDef *huart)
{
 80058ea:	b480      	push	{r7}
 80058ec:	b095      	sub	sp, #84	@ 0x54
 80058ee:	af00      	add	r7, sp, #0
 80058f0:	6078      	str	r0, [r7, #4]
  /* Disable RXNE, PE and ERR (Frame error, noise error, overrun error) interrupts */
  ATOMIC_CLEAR_BIT(huart->Instance->CR1, (USART_CR1_RXNEIE | USART_CR1_PEIE));
 80058f2:	687b      	ldr	r3, [r7, #4]
 80058f4:	681b      	ldr	r3, [r3, #0]
 80058f6:	330c      	adds	r3, #12
 80058f8:	637b      	str	r3, [r7, #52]	@ 0x34
   __ASM volatile ("ldrex %0, %1" : "=r" (result) : "Q" (*addr) );
 80058fa:	6b7b      	ldr	r3, [r7, #52]	@ 0x34
 80058fc:	e853 3f00 	ldrex	r3, [r3]
 8005900:	633b      	str	r3, [r7, #48]	@ 0x30
   return(result);
 8005902:	6b3b      	ldr	r3, [r7, #48]	@ 0x30
 8005904:	f423 7390 	bic.w	r3, r3, #288	@ 0x120
 8005908:	64fb      	str	r3, [r7, #76]	@ 0x4c
 800590a:	687b      	ldr	r3, [r7, #4]
 800590c:	681b      	ldr	r3, [r3, #0]
 800590e:	330c      	adds	r3, #12
 8005910:	6cfa      	ldr	r2, [r7, #76]	@ 0x4c
 8005912:	643a      	str	r2, [r7, #64]	@ 0x40
 8005914:	63fb      	str	r3, [r7, #60]	@ 0x3c
   __ASM volatile ("strex %0, %2, %1" : "=&r" (result), "=Q" (*addr) : "r" (value) );
 8005916:	6bf9      	ldr	r1, [r7, #60]	@ 0x3c
 8005918:	6c3a      	ldr	r2, [r7, #64]	@ 0x40
 800591a:	e841 2300 	strex	r3, r2, [r1]
 800591e:	63bb      	str	r3, [r7, #56]	@ 0x38
   return(result);
 8005920:	6bbb      	ldr	r3, [r7, #56]	@ 0x38
 8005922:	2b00      	cmp	r3, #0
 8005924:	d1e5      	bne.n	80058f2 <UART_EndRxTransfer+0x8>
  ATOMIC_CLEAR_BIT(huart->Instance->CR3, USART_CR3_EIE);
 8005926:	687b      	ldr	r3, [r7, #4]
 8005928:	681b      	ldr	r3, [r3, #0]
 800592a:	3314      	adds	r3, #20
 800592c:	623b      	str	r3, [r7, #32]
   __ASM volatile ("ldrex %0, %1" : "=r" (result) : "Q" (*addr) );
 800592e:	6a3b      	ldr	r3, [r7, #32]
 8005930:	e853 3f00 	ldrex	r3, [r3]
 8005934:	61fb      	str	r3, [r7, #28]
   return(result);
 8005936:	69fb      	ldr	r3, [r7, #28]
 8005938:	f023 0301 	bic.w	r3, r3, #1
 800593c:	64bb      	str	r3, [r7, #72]	@ 0x48
 800593e:	687b      	ldr	r3, [r7, #4]
 8005940:	681b      	ldr	r3, [r3, #0]
 8005942:	3314      	adds	r3, #20
 8005944:	6cba      	ldr	r2, [r7, #72]	@ 0x48
 8005946:	62fa      	str	r2, [r7, #44]	@ 0x2c
 8005948:	62bb      	str	r3, [r7, #40]	@ 0x28
   __ASM volatile ("strex %0, %2, %1" : "=&r" (result), "=Q" (*addr) : "r" (value) );
 800594a:	6ab9      	ldr	r1, [r7, #40]	@ 0x28
 800594c:	6afa      	ldr	r2, [r7, #44]	@ 0x2c
 800594e:	e841 2300 	strex	r3, r2, [r1]
 8005952:	627b      	str	r3, [r7, #36]	@ 0x24
   return(result);
 8005954:	6a7b      	ldr	r3, [r7, #36]	@ 0x24
 8005956:	2b00      	cmp	r3, #0
 8005958:	d1e5      	bne.n	8005926 <UART_EndRxTransfer+0x3c>

  /* In case of reception waiting for IDLE event, disable also the IDLE IE interrupt source */
  if (huart->ReceptionType == HAL_UART_RECEPTION_TOIDLE)
 800595a:	687b      	ldr	r3, [r7, #4]
 800595c:	6b1b      	ldr	r3, [r3, #48]	@ 0x30
 800595e:	2b01      	cmp	r3, #1
 8005960:	d119      	bne.n	8005996 <UART_EndRxTransfer+0xac>
  {
    ATOMIC_CLEAR_BIT(huart->Instance->CR1, USART_CR1_IDLEIE);
 8005962:	687b      	ldr	r3, [r7, #4]
 8005964:	681b      	ldr	r3, [r3, #0]
 8005966:	330c      	adds	r3, #12
 8005968:	60fb      	str	r3, [r7, #12]
   __ASM volatile ("ldrex %0, %1" : "=r" (result) : "Q" (*addr) );
 800596a:	68fb      	ldr	r3, [r7, #12]
 800596c:	e853 3f00 	ldrex	r3, [r3]
 8005970:	60bb      	str	r3, [r7, #8]
   return(result);
 8005972:	68bb      	ldr	r3, [r7, #8]
 8005974:	f023 0310 	bic.w	r3, r3, #16
 8005978:	647b      	str	r3, [r7, #68]	@ 0x44
 800597a:	687b      	ldr	r3, [r7, #4]
 800597c:	681b      	ldr	r3, [r3, #0]
 800597e:	330c      	adds	r3, #12
 8005980:	6c7a      	ldr	r2, [r7, #68]	@ 0x44
 8005982:	61ba      	str	r2, [r7, #24]
 8005984:	617b      	str	r3, [r7, #20]
   __ASM volatile ("strex %0, %2, %1" : "=&r" (result), "=Q" (*addr) : "r" (value) );
 8005986:	6979      	ldr	r1, [r7, #20]
 8005988:	69ba      	ldr	r2, [r7, #24]
 800598a:	e841 2300 	strex	r3, r2, [r1]
 800598e:	613b      	str	r3, [r7, #16]
   return(result);
 8005990:	693b      	ldr	r3, [r7, #16]
 8005992:	2b00      	cmp	r3, #0
 8005994:	d1e5      	bne.n	8005962 <UART_EndRxTransfer+0x78>
  }

  /* At end of Rx process, restore huart->RxState to Ready */
  huart->RxState = HAL_UART_STATE_READY;
 8005996:	687b      	ldr	r3, [r7, #4]
 8005998:	2220      	movs	r2, #32
 800599a:	f883 2042 	strb.w	r2, [r3, #66]	@ 0x42
  huart->ReceptionType = HAL_UART_RECEPTION_STANDARD;
 800599e:	687b      	ldr	r3, [r7, #4]
 80059a0:	2200      	movs	r2, #0
 80059a2:	631a      	str	r2, [r3, #48]	@ 0x30
}
 80059a4:	bf00      	nop
 80059a6:	3754      	adds	r7, #84	@ 0x54
 80059a8:	46bd      	mov	sp, r7
 80059aa:	bc80      	pop	{r7}
 80059ac:	4770      	bx	lr

080059ae <UART_DMAAbortOnError>:
  * @param  hdma  Pointer to a DMA_HandleTypeDef structure that contains
  *               the configuration information for the specified DMA module.
  * @retval None
  */
static void UART_DMAAbortOnError(DMA_HandleTypeDef *hdma)
{
 80059ae:	b580      	push	{r7, lr}
 80059b0:	b084      	sub	sp, #16
 80059b2:	af00      	add	r7, sp, #0
 80059b4:	6078      	str	r0, [r7, #4]
  UART_HandleTypeDef *huart = (UART_HandleTypeDef *)((DMA_HandleTypeDef *)hdma)->Parent;
 80059b6:	687b      	ldr	r3, [r7, #4]
 80059b8:	6a5b      	ldr	r3, [r3, #36]	@ 0x24
 80059ba:	60fb      	str	r3, [r7, #12]
  huart->RxXferCount = 0x00U;
 80059bc:	68fb      	ldr	r3, [r7, #12]
 80059be:	2200      	movs	r2, #0
 80059c0:	85da      	strh	r2, [r3, #46]	@ 0x2e
  huart->TxXferCount = 0x00U;
 80059c2:	68fb      	ldr	r3, [r7, #12]
 80059c4:	2200      	movs	r2, #0
 80059c6:	84da      	strh	r2, [r3, #38]	@ 0x26
#if (USE_HAL_UART_REGISTER_CALLBACKS == 1)
  /*Call registered error callback*/
  huart->ErrorCallback(huart);
#else
  /*Call legacy weak error callback*/
  HAL_UART_ErrorCallback(huart);
 80059c8:	68f8      	ldr	r0, [r7, #12]
 80059ca:	f7ff fd07 	bl	80053dc <HAL_UART_ErrorCallback>
#endif /* USE_HAL_UART_REGISTER_CALLBACKS */
}
 80059ce:	bf00      	nop
 80059d0:	3710      	adds	r7, #16
 80059d2:	46bd      	mov	sp, r7
 80059d4:	bd80      	pop	{r7, pc}

080059d6 <UART_Transmit_IT>:
  * @param  huart  Pointer to a UART_HandleTypeDef structure that contains
  *                the configuration information for the specified UART module.
  * @retval HAL status
  */
static HAL_StatusTypeDef UART_Transmit_IT(UART_HandleTypeDef *huart)
{
 80059d6:	b480      	push	{r7}
 80059d8:	b085      	sub	sp, #20
 80059da:	af00      	add	r7, sp, #0
 80059dc:	6078      	str	r0, [r7, #4]
  const uint16_t *tmp;

  /* Check that a Tx process is ongoing */
  if (huart->gState == HAL_UART_STATE_BUSY_TX)
 80059de:	687b      	ldr	r3, [r7, #4]
 80059e0:	f893 3041 	ldrb.w	r3, [r3, #65]	@ 0x41
 80059e4:	b2db      	uxtb	r3, r3
 80059e6:	2b21      	cmp	r3, #33	@ 0x21
 80059e8:	d13e      	bne.n	8005a68 <UART_Transmit_IT+0x92>
  {
    if ((huart->Init.WordLength == UART_WORDLENGTH_9B) && (huart->Init.Parity == UART_PARITY_NONE))
 80059ea:	687b      	ldr	r3, [r7, #4]
 80059ec:	689b      	ldr	r3, [r3, #8]
 80059ee:	f5b3 5f80 	cmp.w	r3, #4096	@ 0x1000
 80059f2:	d114      	bne.n	8005a1e <UART_Transmit_IT+0x48>
 80059f4:	687b      	ldr	r3, [r7, #4]
 80059f6:	691b      	ldr	r3, [r3, #16]
 80059f8:	2b00      	cmp	r3, #0
 80059fa:	d110      	bne.n	8005a1e <UART_Transmit_IT+0x48>
    {
      tmp = (const uint16_t *) huart->pTxBuffPtr;
 80059fc:	687b      	ldr	r3, [r7, #4]
 80059fe:	6a1b      	ldr	r3, [r3, #32]
 8005a00:	60fb      	str	r3, [r7, #12]
      huart->Instance->DR = (uint16_t)(*tmp & (uint16_t)0x01FF);
 8005a02:	68fb      	ldr	r3, [r7, #12]
 8005a04:	881b      	ldrh	r3, [r3, #0]
 8005a06:	461a      	mov	r2, r3
 8005a08:	687b      	ldr	r3, [r7, #4]
 8005a0a:	681b      	ldr	r3, [r3, #0]
 8005a0c:	f3c2 0208 	ubfx	r2, r2, #0, #9
 8005a10:	605a      	str	r2, [r3, #4]
      huart->pTxBuffPtr += 2U;
 8005a12:	687b      	ldr	r3, [r7, #4]
 8005a14:	6a1b      	ldr	r3, [r3, #32]
 8005a16:	1c9a      	adds	r2, r3, #2
 8005a18:	687b      	ldr	r3, [r7, #4]
 8005a1a:	621a      	str	r2, [r3, #32]
 8005a1c:	e008      	b.n	8005a30 <UART_Transmit_IT+0x5a>
    }
    else
    {
      huart->Instance->DR = (uint8_t)(*huart->pTxBuffPtr++ & (uint8_t)0x00FF);
 8005a1e:	687b      	ldr	r3, [r7, #4]
 8005a20:	6a1b      	ldr	r3, [r3, #32]
 8005a22:	1c59      	adds	r1, r3, #1
 8005a24:	687a      	ldr	r2, [r7, #4]
 8005a26:	6211      	str	r1, [r2, #32]
 8005a28:	781a      	ldrb	r2, [r3, #0]
 8005a2a:	687b      	ldr	r3, [r7, #4]
 8005a2c:	681b      	ldr	r3, [r3, #0]
 8005a2e:	605a      	str	r2, [r3, #4]
    }

    if (--huart->TxXferCount == 0U)
 8005a30:	687b      	ldr	r3, [r7, #4]
 8005a32:	8cdb      	ldrh	r3, [r3, #38]	@ 0x26
 8005a34:	b29b      	uxth	r3, r3
 8005a36:	3b01      	subs	r3, #1
 8005a38:	b29b      	uxth	r3, r3
 8005a3a:	687a      	ldr	r2, [r7, #4]
 8005a3c:	4619      	mov	r1, r3
 8005a3e:	84d1      	strh	r1, [r2, #38]	@ 0x26
 8005a40:	2b00      	cmp	r3, #0
 8005a42:	d10f      	bne.n	8005a64 <UART_Transmit_IT+0x8e>
    {
      /* Disable the UART Transmit Data Register Empty Interrupt */
      __HAL_UART_DISABLE_IT(huart, UART_IT_TXE);
 8005a44:	687b      	ldr	r3, [r7, #4]
 8005a46:	681b      	ldr	r3, [r3, #0]
 8005a48:	68da      	ldr	r2, [r3, #12]
 8005a4a:	687b      	ldr	r3, [r7, #4]
 8005a4c:	681b      	ldr	r3, [r3, #0]
 8005a4e:	f022 0280 	bic.w	r2, r2, #128	@ 0x80
 8005a52:	60da      	str	r2, [r3, #12]

      /* Enable the UART Transmit Complete Interrupt */
      __HAL_UART_ENABLE_IT(huart, UART_IT_TC);
 8005a54:	687b      	ldr	r3, [r7, #4]
 8005a56:	681b      	ldr	r3, [r3, #0]
 8005a58:	68da      	ldr	r2, [r3, #12]
 8005a5a:	687b      	ldr	r3, [r7, #4]
 8005a5c:	681b      	ldr	r3, [r3, #0]
 8005a5e:	f042 0240 	orr.w	r2, r2, #64	@ 0x40
 8005a62:	60da      	str	r2, [r3, #12]
    }
    return HAL_OK;
 8005a64:	2300      	movs	r3, #0
 8005a66:	e000      	b.n	8005a6a <UART_Transmit_IT+0x94>
  }
  else
  {
    return HAL_BUSY;
 8005a68:	2302      	movs	r3, #2
  }
}
 8005a6a:	4618      	mov	r0, r3
 8005a6c:	3714      	adds	r7, #20
 8005a6e:	46bd      	mov	sp, r7
 8005a70:	bc80      	pop	{r7}
 8005a72:	4770      	bx	lr

08005a74 <UART_EndTransmit_IT>:
  * @param  huart  Pointer to a UART_HandleTypeDef structure that contains
  *                the configuration information for the specified UART module.
  * @retval HAL status
  */
static HAL_StatusTypeDef UART_EndTransmit_IT(UART_HandleTypeDef *huart)
{
 8005a74:	b580      	push	{r7, lr}
 8005a76:	b082      	sub	sp, #8
 8005a78:	af00      	add	r7, sp, #0
 8005a7a:	6078      	str	r0, [r7, #4]
  /* Disable the UART Transmit Complete Interrupt */
  __HAL_UART_DISABLE_IT(huart, UART_IT_TC);
 8005a7c:	687b      	ldr	r3, [r7, #4]
 8005a7e:	681b      	ldr	r3, [r3, #0]
 8005a80:	68da      	ldr	r2, [r3, #12]
 8005a82:	687b      	ldr	r3, [r7, #4]
 8005a84:	681b      	ldr	r3, [r3, #0]
 8005a86:	f022 0240 	bic.w	r2, r2, #64	@ 0x40
 8005a8a:	60da      	str	r2, [r3, #12]

  /* Tx process is ended, restore huart->gState to Ready */
  huart->gState = HAL_UART_STATE_READY;
 8005a8c:	687b      	ldr	r3, [r7, #4]
 8005a8e:	2220      	movs	r2, #32
 8005a90:	f883 2041 	strb.w	r2, [r3, #65]	@ 0x41
#if (USE_HAL_UART_REGISTER_CALLBACKS == 1)
  /*Call registered Tx complete callback*/
  huart->TxCpltCallback(huart);
#else
  /*Call legacy weak Tx complete callback*/
  HAL_UART_TxCpltCallback(huart);
 8005a94:	6878      	ldr	r0, [r7, #4]
 8005a96:	f7fd facf 	bl	8003038 <HAL_UART_TxCpltCallback>
#endif /* USE_HAL_UART_REGISTER_CALLBACKS */

  return HAL_OK;
 8005a9a:	2300      	movs	r3, #0
}
 8005a9c:	4618      	mov	r0, r3
 8005a9e:	3708      	adds	r7, #8
 8005aa0:	46bd      	mov	sp, r7
 8005aa2:	bd80      	pop	{r7, pc}

08005aa4 <UART_Receive_IT>:
  * @param  huart  Pointer to a UART_HandleTypeDef structure that contains
  *                the configuration information for the specified UART module.
  * @retval HAL status
  */
static HAL_StatusTypeDef UART_Receive_IT(UART_HandleTypeDef *huart)
{
 8005aa4:	b580      	push	{r7, lr}
 8005aa6:	b08c      	sub	sp, #48	@ 0x30
 8005aa8:	af00      	add	r7, sp, #0
 8005aaa:	6078      	str	r0, [r7, #4]
  uint8_t  *pdata8bits;
  uint16_t *pdata16bits;

  /* Check that a Rx process is ongoing */
  if (huart->RxState == HAL_UART_STATE_BUSY_RX)
 8005aac:	687b      	ldr	r3, [r7, #4]
 8005aae:	f893 3042 	ldrb.w	r3, [r3, #66]	@ 0x42
 8005ab2:	b2db      	uxtb	r3, r3
 8005ab4:	2b22      	cmp	r3, #34	@ 0x22
 8005ab6:	f040 80ae 	bne.w	8005c16 <UART_Receive_IT+0x172>
  {
    if ((huart->Init.WordLength == UART_WORDLENGTH_9B) && (huart->Init.Parity == UART_PARITY_NONE))
 8005aba:	687b      	ldr	r3, [r7, #4]
 8005abc:	689b      	ldr	r3, [r3, #8]
 8005abe:	f5b3 5f80 	cmp.w	r3, #4096	@ 0x1000
 8005ac2:	d117      	bne.n	8005af4 <UART_Receive_IT+0x50>
 8005ac4:	687b      	ldr	r3, [r7, #4]
 8005ac6:	691b      	ldr	r3, [r3, #16]
 8005ac8:	2b00      	cmp	r3, #0
 8005aca:	d113      	bne.n	8005af4 <UART_Receive_IT+0x50>
    {
      pdata8bits  = NULL;
 8005acc:	2300      	movs	r3, #0
 8005ace:	62fb      	str	r3, [r7, #44]	@ 0x2c
      pdata16bits = (uint16_t *) huart->pRxBuffPtr;
 8005ad0:	687b      	ldr	r3, [r7, #4]
 8005ad2:	6a9b      	ldr	r3, [r3, #40]	@ 0x28
 8005ad4:	62bb      	str	r3, [r7, #40]	@ 0x28
      *pdata16bits = (uint16_t)(huart->Instance->DR & (uint16_t)0x01FF);
 8005ad6:	687b      	ldr	r3, [r7, #4]
 8005ad8:	681b      	ldr	r3, [r3, #0]
 8005ada:	685b      	ldr	r3, [r3, #4]
 8005adc:	b29b      	uxth	r3, r3
 8005ade:	f3c3 0308 	ubfx	r3, r3, #0, #9
 8005ae2:	b29a      	uxth	r2, r3
 8005ae4:	6abb      	ldr	r3, [r7, #40]	@ 0x28
 8005ae6:	801a      	strh	r2, [r3, #0]
      huart->pRxBuffPtr += 2U;
 8005ae8:	687b      	ldr	r3, [r7, #4]
 8005aea:	6a9b      	ldr	r3, [r3, #40]	@ 0x28
 8005aec:	1c9a      	adds	r2, r3, #2
 8005aee:	687b      	ldr	r3, [r7, #4]
 8005af0:	629a      	str	r2, [r3, #40]	@ 0x28
 8005af2:	e026      	b.n	8005b42 <UART_Receive_IT+0x9e>
    }
    else
    {
      pdata8bits = (uint8_t *) huart->pRxBuffPtr;
 8005af4:	687b      	ldr	r3, [r7, #4]
 8005af6:	6a9b      	ldr	r3, [r3, #40]	@ 0x28
 8005af8:	62fb      	str	r3, [r7, #44]	@ 0x2c
      pdata16bits  = NULL;
 8005afa:	2300      	movs	r3, #0
 8005afc:	62bb      	str	r3, [r7, #40]	@ 0x28

      if ((huart->Init.WordLength == UART_WORDLENGTH_9B) || ((huart->Init.WordLength == UART_WORDLENGTH_8B) && (huart->Init.Parity == UART_PARITY_NONE)))
 8005afe:	687b      	ldr	r3, [r7, #4]
 8005b00:	689b      	ldr	r3, [r3, #8]
 8005b02:	f5b3 5f80 	cmp.w	r3, #4096	@ 0x1000
 8005b06:	d007      	beq.n	8005b18 <UART_Receive_IT+0x74>
 8005b08:	687b      	ldr	r3, [r7, #4]
 8005b0a:	689b      	ldr	r3, [r3, #8]
 8005b0c:	2b00      	cmp	r3, #0
 8005b0e:	d10a      	bne.n	8005b26 <UART_Receive_IT+0x82>
 8005b10:	687b      	ldr	r3, [r7, #4]
 8005b12:	691b      	ldr	r3, [r3, #16]
 8005b14:	2b00      	cmp	r3, #0
 8005b16:	d106      	bne.n	8005b26 <UART_Receive_IT+0x82>
      {
        *pdata8bits = (uint8_t)(huart->Instance->DR & (uint8_t)0x00FF);
 8005b18:	687b      	ldr	r3, [r7, #4]
 8005b1a:	681b      	ldr	r3, [r3, #0]
 8005b1c:	685b      	ldr	r3, [r3, #4]
 8005b1e:	b2da      	uxtb	r2, r3
 8005b20:	6afb      	ldr	r3, [r7, #44]	@ 0x2c
 8005b22:	701a      	strb	r2, [r3, #0]
 8005b24:	e008      	b.n	8005b38 <UART_Receive_IT+0x94>
      }
      else
      {
        *pdata8bits = (uint8_t)(huart->Instance->DR & (uint8_t)0x007F);
 8005b26:	687b      	ldr	r3, [r7, #4]
 8005b28:	681b      	ldr	r3, [r3, #0]
 8005b2a:	685b      	ldr	r3, [r3, #4]
 8005b2c:	b2db      	uxtb	r3, r3
 8005b2e:	f003 037f 	and.w	r3, r3, #127	@ 0x7f
 8005b32:	b2da      	uxtb	r2, r3
 8005b34:	6afb      	ldr	r3, [r7, #44]	@ 0x2c
 8005b36:	701a      	strb	r2, [r3, #0]
      }
      huart->pRxBuffPtr += 1U;
 8005b38:	687b      	ldr	r3, [r7, #4]
 8005b3a:	6a9b      	ldr	r3, [r3, #40]	@ 0x28
 8005b3c:	1c5a      	adds	r2, r3, #1
 8005b3e:	687b      	ldr	r3, [r7, #4]
 8005b40:	629a      	str	r2, [r3, #40]	@ 0x28
    }

    if (--huart->RxXferCount == 0U)
 8005b42:	687b      	ldr	r3, [r7, #4]
 8005b44:	8ddb      	ldrh	r3, [r3, #46]	@ 0x2e
 8005b46:	b29b      	uxth	r3, r3
 8005b48:	3b01      	subs	r3, #1
 8005b4a:	b29b      	uxth	r3, r3
 8005b4c:	687a      	ldr	r2, [r7, #4]
 8005b4e:	4619      	mov	r1, r3
 8005b50:	85d1      	strh	r1, [r2, #46]	@ 0x2e
 8005b52:	2b00      	cmp	r3, #0
 8005b54:	d15d      	bne.n	8005c12 <UART_Receive_IT+0x16e>
    {
      /* Disable the UART Data Register not empty Interrupt */
      __HAL_UART_DISABLE_IT(huart, UART_IT_RXNE);
 8005b56:	687b      	ldr	r3, [r7, #4]
 8005b58:	681b      	ldr	r3, [r3, #0]
 8005b5a:	68da      	ldr	r2, [r3, #12]
 8005b5c:	687b      	ldr	r3, [r7, #4]
 8005b5e:	681b      	ldr	r3, [r3, #0]
 8005b60:	f022 0220 	bic.w	r2, r2, #32
 8005b64:	60da      	str	r2, [r3, #12]

      /* Disable the UART Parity Error Interrupt */
      __HAL_UART_DISABLE_IT(huart, UART_IT_PE);
 8005b66:	687b      	ldr	r3, [r7, #4]
 8005b68:	681b      	ldr	r3, [r3, #0]
 8005b6a:	68da      	ldr	r2, [r3, #12]
 8005b6c:	687b      	ldr	r3, [r7, #4]
 8005b6e:	681b      	ldr	r3, [r3, #0]
 8005b70:	f422 7280 	bic.w	r2, r2, #256	@ 0x100
 8005b74:	60da      	str	r2, [r3, #12]

      /* Disable the UART Error Interrupt: (Frame error, noise error, overrun error) */
      __HAL_UART_DISABLE_IT(huart, UART_IT_ERR);
 8005b76:	687b      	ldr	r3, [r7, #4]
 8005b78:	681b      	ldr	r3, [r3, #0]
 8005b7a:	695a      	ldr	r2, [r3, #20]
 8005b7c:	687b      	ldr	r3, [r7, #4]
 8005b7e:	681b      	ldr	r3, [r3, #0]
 8005b80:	f022 0201 	bic.w	r2, r2, #1
 8005b84:	615a      	str	r2, [r3, #20]

      /* Rx process is completed, restore huart->RxState to Ready */
      huart->RxState = HAL_UART_STATE_READY;
 8005b86:	687b      	ldr	r3, [r7, #4]
 8005b88:	2220      	movs	r2, #32
 8005b8a:	f883 2042 	strb.w	r2, [r3, #66]	@ 0x42

      /* Initialize type of RxEvent to Transfer Complete */
      huart->RxEventType = HAL_UART_RXEVENT_TC;
 8005b8e:	687b      	ldr	r3, [r7, #4]
 8005b90:	2200      	movs	r2, #0
 8005b92:	635a      	str	r2, [r3, #52]	@ 0x34

      /* Check current reception Mode :
         If Reception till IDLE event has been selected : */
      if (huart->ReceptionType == HAL_UART_RECEPTION_TOIDLE)
 8005b94:	687b      	ldr	r3, [r7, #4]
 8005b96:	6b1b      	ldr	r3, [r3, #48]	@ 0x30
 8005b98:	2b01      	cmp	r3, #1
 8005b9a:	d135      	bne.n	8005c08 <UART_Receive_IT+0x164>
      {
        /* Set reception type to Standard */
        huart->ReceptionType = HAL_UART_RECEPTION_STANDARD;
 8005b9c:	687b      	ldr	r3, [r7, #4]
 8005b9e:	2200      	movs	r2, #0
 8005ba0:	631a      	str	r2, [r3, #48]	@ 0x30

        /* Disable IDLE interrupt */
        ATOMIC_CLEAR_BIT(huart->Instance->CR1, USART_CR1_IDLEIE);
 8005ba2:	687b      	ldr	r3, [r7, #4]
 8005ba4:	681b      	ldr	r3, [r3, #0]
 8005ba6:	330c      	adds	r3, #12
 8005ba8:	617b      	str	r3, [r7, #20]
   __ASM volatile ("ldrex %0, %1" : "=r" (result) : "Q" (*addr) );
 8005baa:	697b      	ldr	r3, [r7, #20]
 8005bac:	e853 3f00 	ldrex	r3, [r3]
 8005bb0:	613b      	str	r3, [r7, #16]
   return(result);
 8005bb2:	693b      	ldr	r3, [r7, #16]
 8005bb4:	f023 0310 	bic.w	r3, r3, #16
 8005bb8:	627b      	str	r3, [r7, #36]	@ 0x24
 8005bba:	687b      	ldr	r3, [r7, #4]
 8005bbc:	681b      	ldr	r3, [r3, #0]
 8005bbe:	330c      	adds	r3, #12
 8005bc0:	6a7a      	ldr	r2, [r7, #36]	@ 0x24
 8005bc2:	623a      	str	r2, [r7, #32]
 8005bc4:	61fb      	str	r3, [r7, #28]
   __ASM volatile ("strex %0, %2, %1" : "=&r" (result), "=Q" (*addr) : "r" (value) );
 8005bc6:	69f9      	ldr	r1, [r7, #28]
 8005bc8:	6a3a      	ldr	r2, [r7, #32]
 8005bca:	e841 2300 	strex	r3, r2, [r1]
 8005bce:	61bb      	str	r3, [r7, #24]
   return(result);
 8005bd0:	69bb      	ldr	r3, [r7, #24]
 8005bd2:	2b00      	cmp	r3, #0
 8005bd4:	d1e5      	bne.n	8005ba2 <UART_Receive_IT+0xfe>

        /* Check if IDLE flag is set */
        if (__HAL_UART_GET_FLAG(huart, UART_FLAG_IDLE))
 8005bd6:	687b      	ldr	r3, [r7, #4]
 8005bd8:	681b      	ldr	r3, [r3, #0]
 8005bda:	681b      	ldr	r3, [r3, #0]
 8005bdc:	f003 0310 	and.w	r3, r3, #16
 8005be0:	2b10      	cmp	r3, #16
 8005be2:	d10a      	bne.n	8005bfa <UART_Receive_IT+0x156>
        {
          /* Clear IDLE flag in ISR */
          __HAL_UART_CLEAR_IDLEFLAG(huart);
 8005be4:	2300      	movs	r3, #0
 8005be6:	60fb      	str	r3, [r7, #12]
 8005be8:	687b      	ldr	r3, [r7, #4]
 8005bea:	681b      	ldr	r3, [r3, #0]
 8005bec:	681b      	ldr	r3, [r3, #0]
 8005bee:	60fb      	str	r3, [r7, #12]
 8005bf0:	687b      	ldr	r3, [r7, #4]
 8005bf2:	681b      	ldr	r3, [r3, #0]
 8005bf4:	685b      	ldr	r3, [r3, #4]
 8005bf6:	60fb      	str	r3, [r7, #12]
 8005bf8:	68fb      	ldr	r3, [r7, #12]
#if (USE_HAL_UART_REGISTER_CALLBACKS == 1)
        /*Call registered Rx Event callback*/
        huart->RxEventCallback(huart, huart->RxXferSize);
#else
        /*Call legacy weak Rx Event callback*/
        HAL_UARTEx_RxEventCallback(huart, huart->RxXferSize);
 8005bfa:	687b      	ldr	r3, [r7, #4]
 8005bfc:	8d9b      	ldrh	r3, [r3, #44]	@ 0x2c
 8005bfe:	4619      	mov	r1, r3
 8005c00:	6878      	ldr	r0, [r7, #4]
 8005c02:	f7ff fbf4 	bl	80053ee <HAL_UARTEx_RxEventCallback>
 8005c06:	e002      	b.n	8005c0e <UART_Receive_IT+0x16a>
#if (USE_HAL_UART_REGISTER_CALLBACKS == 1)
        /*Call registered Rx complete callback*/
        huart->RxCpltCallback(huart);
#else
        /*Call legacy weak Rx complete callback*/
        HAL_UART_RxCpltCallback(huart);
 8005c08:	6878      	ldr	r0, [r7, #4]
 8005c0a:	f7fd fa25 	bl	8003058 <HAL_UART_RxCpltCallback>
#endif /* USE_HAL_UART_REGISTER_CALLBACKS */
      }

      return HAL_OK;
 8005c0e:	2300      	movs	r3, #0
 8005c10:	e002      	b.n	8005c18 <UART_Receive_IT+0x174>
    }
    return HAL_OK;
 8005c12:	2300      	movs	r3, #0
 8005c14:	e000      	b.n	8005c18 <UART_Receive_IT+0x174>
  }
  else
  {
    return HAL_BUSY;
 8005c16:	2302      	movs	r3, #2
  }
}
 8005c18:	4618      	mov	r0, r3
 8005c1a:	3730      	adds	r7, #48	@ 0x30
 8005c1c:	46bd      	mov	sp, r7
 8005c1e:	bd80      	pop	{r7, pc}

08005c20 <UART_SetConfig>:
  * @param  huart  Pointer to a UART_HandleTypeDef structure that contains
  *                the configuration information for the specified UART module.
  * @retval None
  */
static void UART_SetConfig(UART_HandleTypeDef *huart)
{
 8005c20:	b580      	push	{r7, lr}
 8005c22:	b084      	sub	sp, #16
 8005c24:	af00      	add	r7, sp, #0
 8005c26:	6078      	str	r0, [r7, #4]
  assert_param(IS_UART_MODE(huart->Init.Mode));

  /*-------------------------- USART CR2 Configuration -----------------------*/
  /* Configure the UART Stop Bits: Set STOP[13:12] bits
     according to huart->Init.StopBits value */
  MODIFY_REG(huart->Instance->CR2, USART_CR2_STOP, huart->Init.StopBits);
 8005c28:	687b      	ldr	r3, [r7, #4]
 8005c2a:	681b      	ldr	r3, [r3, #0]
 8005c2c:	691b      	ldr	r3, [r3, #16]
 8005c2e:	f423 5140 	bic.w	r1, r3, #12288	@ 0x3000
 8005c32:	687b      	ldr	r3, [r7, #4]
 8005c34:	68da      	ldr	r2, [r3, #12]
 8005c36:	687b      	ldr	r3, [r7, #4]
 8005c38:	681b      	ldr	r3, [r3, #0]
 8005c3a:	430a      	orrs	r2, r1
 8005c3c:	611a      	str	r2, [r3, #16]
  tmpreg = (uint32_t)huart->Init.WordLength | huart->Init.Parity | huart->Init.Mode | huart->Init.OverSampling;
  MODIFY_REG(huart->Instance->CR1,
             (uint32_t)(USART_CR1_M | USART_CR1_PCE | USART_CR1_PS | USART_CR1_TE | USART_CR1_RE | USART_CR1_OVER8),
             tmpreg);
#else
  tmpreg = (uint32_t)huart->Init.WordLength | huart->Init.Parity | huart->Init.Mode;
 8005c3e:	687b      	ldr	r3, [r7, #4]
 8005c40:	689a      	ldr	r2, [r3, #8]
 8005c42:	687b      	ldr	r3, [r7, #4]
 8005c44:	691b      	ldr	r3, [r3, #16]
 8005c46:	431a      	orrs	r2, r3
 8005c48:	687b      	ldr	r3, [r7, #4]
 8005c4a:	695b      	ldr	r3, [r3, #20]
 8005c4c:	4313      	orrs	r3, r2
 8005c4e:	60bb      	str	r3, [r7, #8]
  MODIFY_REG(huart->Instance->CR1,
 8005c50:	687b      	ldr	r3, [r7, #4]
 8005c52:	681b      	ldr	r3, [r3, #0]
 8005c54:	68db      	ldr	r3, [r3, #12]
 8005c56:	f423 53b0 	bic.w	r3, r3, #5632	@ 0x1600
 8005c5a:	f023 030c 	bic.w	r3, r3, #12
 8005c5e:	687a      	ldr	r2, [r7, #4]
 8005c60:	6812      	ldr	r2, [r2, #0]
 8005c62:	68b9      	ldr	r1, [r7, #8]
 8005c64:	430b      	orrs	r3, r1
 8005c66:	60d3      	str	r3, [r2, #12]
             tmpreg);
#endif /* USART_CR1_OVER8 */

  /*-------------------------- USART CR3 Configuration -----------------------*/
  /* Configure the UART HFC: Set CTSE and RTSE bits according to huart->Init.HwFlowCtl value */
  MODIFY_REG(huart->Instance->CR3, (USART_CR3_RTSE | USART_CR3_CTSE), huart->Init.HwFlowCtl);
 8005c68:	687b      	ldr	r3, [r7, #4]
 8005c6a:	681b      	ldr	r3, [r3, #0]
 8005c6c:	695b      	ldr	r3, [r3, #20]
 8005c6e:	f423 7140 	bic.w	r1, r3, #768	@ 0x300
 8005c72:	687b      	ldr	r3, [r7, #4]
 8005c74:	699a      	ldr	r2, [r3, #24]
 8005c76:	687b      	ldr	r3, [r7, #4]
 8005c78:	681b      	ldr	r3, [r3, #0]
 8005c7a:	430a      	orrs	r2, r1
 8005c7c:	615a      	str	r2, [r3, #20]


  if(huart->Instance == USART1)
 8005c7e:	687b      	ldr	r3, [r7, #4]
 8005c80:	681b      	ldr	r3, [r3, #0]
 8005c82:	4a2c      	ldr	r2, [pc, #176]	@ (8005d34 <UART_SetConfig+0x114>)
 8005c84:	4293      	cmp	r3, r2
 8005c86:	d103      	bne.n	8005c90 <UART_SetConfig+0x70>
  {
    pclk = HAL_RCC_GetPCLK2Freq();
 8005c88:	f7fe feca 	bl	8004a20 <HAL_RCC_GetPCLK2Freq>
 8005c8c:	60f8      	str	r0, [r7, #12]
 8005c8e:	e002      	b.n	8005c96 <UART_SetConfig+0x76>
  }
  else
  {
    pclk = HAL_RCC_GetPCLK1Freq();
 8005c90:	f7fe feb2 	bl	80049f8 <HAL_RCC_GetPCLK1Freq>
 8005c94:	60f8      	str	r0, [r7, #12]
  else
  {
    huart->Instance->BRR = UART_BRR_SAMPLING16(pclk, huart->Init.BaudRate);
  }
#else
  huart->Instance->BRR = UART_BRR_SAMPLING16(pclk, huart->Init.BaudRate);
 8005c96:	68fa      	ldr	r2, [r7, #12]
 8005c98:	4613      	mov	r3, r2
 8005c9a:	009b      	lsls	r3, r3, #2
 8005c9c:	4413      	add	r3, r2
 8005c9e:	009a      	lsls	r2, r3, #2
 8005ca0:	441a      	add	r2, r3
 8005ca2:	687b      	ldr	r3, [r7, #4]
 8005ca4:	685b      	ldr	r3, [r3, #4]
 8005ca6:	009b      	lsls	r3, r3, #2
 8005ca8:	fbb2 f3f3 	udiv	r3, r2, r3
 8005cac:	4a22      	ldr	r2, [pc, #136]	@ (8005d38 <UART_SetConfig+0x118>)
 8005cae:	fba2 2303 	umull	r2, r3, r2, r3
 8005cb2:	095b      	lsrs	r3, r3, #5
 8005cb4:	0119      	lsls	r1, r3, #4
 8005cb6:	68fa      	ldr	r2, [r7, #12]
 8005cb8:	4613      	mov	r3, r2
 8005cba:	009b      	lsls	r3, r3, #2
 8005cbc:	4413      	add	r3, r2
 8005cbe:	009a      	lsls	r2, r3, #2
 8005cc0:	441a      	add	r2, r3
 8005cc2:	687b      	ldr	r3, [r7, #4]
 8005cc4:	685b      	ldr	r3, [r3, #4]
 8005cc6:	009b      	lsls	r3, r3, #2
 8005cc8:	fbb2 f2f3 	udiv	r2, r2, r3
 8005ccc:	4b1a      	ldr	r3, [pc, #104]	@ (8005d38 <UART_SetConfig+0x118>)
 8005cce:	fba3 0302 	umull	r0, r3, r3, r2
 8005cd2:	095b      	lsrs	r3, r3, #5
 8005cd4:	2064      	movs	r0, #100	@ 0x64
 8005cd6:	fb00 f303 	mul.w	r3, r0, r3
 8005cda:	1ad3      	subs	r3, r2, r3
 8005cdc:	011b      	lsls	r3, r3, #4
 8005cde:	3332      	adds	r3, #50	@ 0x32
 8005ce0:	4a15      	ldr	r2, [pc, #84]	@ (8005d38 <UART_SetConfig+0x118>)
 8005ce2:	fba2 2303 	umull	r2, r3, r2, r3
 8005ce6:	095b      	lsrs	r3, r3, #5
 8005ce8:	f003 03f0 	and.w	r3, r3, #240	@ 0xf0
 8005cec:	4419      	add	r1, r3
 8005cee:	68fa      	ldr	r2, [r7, #12]
 8005cf0:	4613      	mov	r3, r2
 8005cf2:	009b      	lsls	r3, r3, #2
 8005cf4:	4413      	add	r3, r2
 8005cf6:	009a      	lsls	r2, r3, #2
 8005cf8:	441a      	add	r2, r3
 8005cfa:	687b      	ldr	r3, [r7, #4]
 8005cfc:	685b      	ldr	r3, [r3, #4]
 8005cfe:	009b      	lsls	r3, r3, #2
 8005d00:	fbb2 f2f3 	udiv	r2, r2, r3
 8005d04:	4b0c      	ldr	r3, [pc, #48]	@ (8005d38 <UART_SetConfig+0x118>)
 8005d06:	fba3 0302 	umull	r0, r3, r3, r2
 8005d0a:	095b      	lsrs	r3, r3, #5
 8005d0c:	2064      	movs	r0, #100	@ 0x64
 8005d0e:	fb00 f303 	mul.w	r3, r0, r3
 8005d12:	1ad3      	subs	r3, r2, r3
 8005d14:	011b      	lsls	r3, r3, #4
 8005d16:	3332      	adds	r3, #50	@ 0x32
 8005d18:	4a07      	ldr	r2, [pc, #28]	@ (8005d38 <UART_SetConfig+0x118>)
 8005d1a:	fba2 2303 	umull	r2, r3, r2, r3
 8005d1e:	095b      	lsrs	r3, r3, #5
 8005d20:	f003 020f 	and.w	r2, r3, #15
 8005d24:	687b      	ldr	r3, [r7, #4]
 8005d26:	681b      	ldr	r3, [r3, #0]
 8005d28:	440a      	add	r2, r1
 8005d2a:	609a      	str	r2, [r3, #8]
#endif /* USART_CR1_OVER8 */
}
 8005d2c:	bf00      	nop
 8005d2e:	3710      	adds	r7, #16
 8005d30:	46bd      	mov	sp, r7
 8005d32:	bd80      	pop	{r7, pc}
 8005d34:	40013800 	.word	0x40013800
 8005d38:	51eb851f 	.word	0x51eb851f

08005d3c <std>:
 8005d3c:	2300      	movs	r3, #0
 8005d3e:	b510      	push	{r4, lr}
 8005d40:	4604      	mov	r4, r0
 8005d42:	e9c0 3300 	strd	r3, r3, [r0]
 8005d46:	e9c0 3304 	strd	r3, r3, [r0, #16]
 8005d4a:	6083      	str	r3, [r0, #8]
 8005d4c:	8181      	strh	r1, [r0, #12]
 8005d4e:	6643      	str	r3, [r0, #100]	@ 0x64
 8005d50:	81c2      	strh	r2, [r0, #14]
 8005d52:	6183      	str	r3, [r0, #24]
 8005d54:	4619      	mov	r1, r3
 8005d56:	2208      	movs	r2, #8
 8005d58:	305c      	adds	r0, #92	@ 0x5c
 8005d5a:	f000 fa1b 	bl	8006194 <memset>
 8005d5e:	4b0d      	ldr	r3, [pc, #52]	@ (8005d94 <std+0x58>)
 8005d60:	6224      	str	r4, [r4, #32]
 8005d62:	6263      	str	r3, [r4, #36]	@ 0x24
 8005d64:	4b0c      	ldr	r3, [pc, #48]	@ (8005d98 <std+0x5c>)
 8005d66:	62a3      	str	r3, [r4, #40]	@ 0x28
 8005d68:	4b0c      	ldr	r3, [pc, #48]	@ (8005d9c <std+0x60>)
 8005d6a:	62e3      	str	r3, [r4, #44]	@ 0x2c
 8005d6c:	4b0c      	ldr	r3, [pc, #48]	@ (8005da0 <std+0x64>)
 8005d6e:	6323      	str	r3, [r4, #48]	@ 0x30
 8005d70:	4b0c      	ldr	r3, [pc, #48]	@ (8005da4 <std+0x68>)
 8005d72:	429c      	cmp	r4, r3
 8005d74:	d006      	beq.n	8005d84 <std+0x48>
 8005d76:	f103 0268 	add.w	r2, r3, #104	@ 0x68
 8005d7a:	4294      	cmp	r4, r2
 8005d7c:	d002      	beq.n	8005d84 <std+0x48>
 8005d7e:	33d0      	adds	r3, #208	@ 0xd0
 8005d80:	429c      	cmp	r4, r3
 8005d82:	d105      	bne.n	8005d90 <std+0x54>
 8005d84:	f104 0058 	add.w	r0, r4, #88	@ 0x58
 8005d88:	e8bd 4010 	ldmia.w	sp!, {r4, lr}
 8005d8c:	f000 ba7a 	b.w	8006284 <__retarget_lock_init_recursive>
 8005d90:	bd10      	pop	{r4, pc}
 8005d92:	bf00      	nop
 8005d94:	08005fe5 	.word	0x08005fe5
 8005d98:	08006007 	.word	0x08006007
 8005d9c:	0800603f 	.word	0x0800603f
 8005da0:	08006063 	.word	0x08006063
 8005da4:	20000878 	.word	0x20000878

08005da8 <stdio_exit_handler>:
 8005da8:	4a02      	ldr	r2, [pc, #8]	@ (8005db4 <stdio_exit_handler+0xc>)
 8005daa:	4903      	ldr	r1, [pc, #12]	@ (8005db8 <stdio_exit_handler+0x10>)
 8005dac:	4803      	ldr	r0, [pc, #12]	@ (8005dbc <stdio_exit_handler+0x14>)
 8005dae:	f000 b869 	b.w	8005e84 <_fwalk_sglue>
 8005db2:	bf00      	nop
 8005db4:	20000030 	.word	0x20000030
 8005db8:	08006de5 	.word	0x08006de5
 8005dbc:	20000040 	.word	0x20000040

08005dc0 <cleanup_stdio>:
 8005dc0:	6841      	ldr	r1, [r0, #4]
 8005dc2:	4b0c      	ldr	r3, [pc, #48]	@ (8005df4 <cleanup_stdio+0x34>)
 8005dc4:	b510      	push	{r4, lr}
 8005dc6:	4299      	cmp	r1, r3
 8005dc8:	4604      	mov	r4, r0
 8005dca:	d001      	beq.n	8005dd0 <cleanup_stdio+0x10>
 8005dcc:	f001 f80a 	bl	8006de4 <_fflush_r>
 8005dd0:	68a1      	ldr	r1, [r4, #8]
 8005dd2:	4b09      	ldr	r3, [pc, #36]	@ (8005df8 <cleanup_stdio+0x38>)
 8005dd4:	4299      	cmp	r1, r3
 8005dd6:	d002      	beq.n	8005dde <cleanup_stdio+0x1e>
 8005dd8:	4620      	mov	r0, r4
 8005dda:	f001 f803 	bl	8006de4 <_fflush_r>
 8005dde:	68e1      	ldr	r1, [r4, #12]
 8005de0:	4b06      	ldr	r3, [pc, #24]	@ (8005dfc <cleanup_stdio+0x3c>)
 8005de2:	4299      	cmp	r1, r3
 8005de4:	d004      	beq.n	8005df0 <cleanup_stdio+0x30>
 8005de6:	4620      	mov	r0, r4
 8005de8:	e8bd 4010 	ldmia.w	sp!, {r4, lr}
 8005dec:	f000 bffa 	b.w	8006de4 <_fflush_r>
 8005df0:	bd10      	pop	{r4, pc}
 8005df2:	bf00      	nop
 8005df4:	20000878 	.word	0x20000878
 8005df8:	200008e0 	.word	0x200008e0
 8005dfc:	20000948 	.word	0x20000948

08005e00 <global_stdio_init.part.0>:
 8005e00:	b510      	push	{r4, lr}
 8005e02:	4b0b      	ldr	r3, [pc, #44]	@ (8005e30 <global_stdio_init.part.0+0x30>)
 8005e04:	4c0b      	ldr	r4, [pc, #44]	@ (8005e34 <global_stdio_init.part.0+0x34>)
 8005e06:	4a0c      	ldr	r2, [pc, #48]	@ (8005e38 <global_stdio_init.part.0+0x38>)
 8005e08:	4620      	mov	r0, r4
 8005e0a:	601a      	str	r2, [r3, #0]
 8005e0c:	2104      	movs	r1, #4
 8005e0e:	2200      	movs	r2, #0
 8005e10:	f7ff ff94 	bl	8005d3c <std>
 8005e14:	f104 0068 	add.w	r0, r4, #104	@ 0x68
 8005e18:	2201      	movs	r2, #1
 8005e1a:	2109      	movs	r1, #9
 8005e1c:	f7ff ff8e 	bl	8005d3c <std>
 8005e20:	f104 00d0 	add.w	r0, r4, #208	@ 0xd0
 8005e24:	2202      	movs	r2, #2
 8005e26:	e8bd 4010 	ldmia.w	sp!, {r4, lr}
 8005e2a:	2112      	movs	r1, #18
 8005e2c:	f7ff bf86 	b.w	8005d3c <std>
 8005e30:	200009b0 	.word	0x200009b0
 8005e34:	20000878 	.word	0x20000878
 8005e38:	08005da9 	.word	0x08005da9

08005e3c <__sfp_lock_acquire>:
 8005e3c:	4801      	ldr	r0, [pc, #4]	@ (8005e44 <__sfp_lock_acquire+0x8>)
 8005e3e:	f000 ba22 	b.w	8006286 <__retarget_lock_acquire_recursive>
 8005e42:	bf00      	nop
 8005e44:	200009b9 	.word	0x200009b9

08005e48 <__sfp_lock_release>:
 8005e48:	4801      	ldr	r0, [pc, #4]	@ (8005e50 <__sfp_lock_release+0x8>)
 8005e4a:	f000 ba1d 	b.w	8006288 <__retarget_lock_release_recursive>
 8005e4e:	bf00      	nop
 8005e50:	200009b9 	.word	0x200009b9

08005e54 <__sinit>:
 8005e54:	b510      	push	{r4, lr}
 8005e56:	4604      	mov	r4, r0
 8005e58:	f7ff fff0 	bl	8005e3c <__sfp_lock_acquire>
 8005e5c:	6a23      	ldr	r3, [r4, #32]
 8005e5e:	b11b      	cbz	r3, 8005e68 <__sinit+0x14>
 8005e60:	e8bd 4010 	ldmia.w	sp!, {r4, lr}
 8005e64:	f7ff bff0 	b.w	8005e48 <__sfp_lock_release>
 8005e68:	4b04      	ldr	r3, [pc, #16]	@ (8005e7c <__sinit+0x28>)
 8005e6a:	6223      	str	r3, [r4, #32]
 8005e6c:	4b04      	ldr	r3, [pc, #16]	@ (8005e80 <__sinit+0x2c>)
 8005e6e:	681b      	ldr	r3, [r3, #0]
 8005e70:	2b00      	cmp	r3, #0
 8005e72:	d1f5      	bne.n	8005e60 <__sinit+0xc>
 8005e74:	f7ff ffc4 	bl	8005e00 <global_stdio_init.part.0>
 8005e78:	e7f2      	b.n	8005e60 <__sinit+0xc>
 8005e7a:	bf00      	nop
 8005e7c:	08005dc1 	.word	0x08005dc1
 8005e80:	200009b0 	.word	0x200009b0

08005e84 <_fwalk_sglue>:
 8005e84:	e92d 43f8 	stmdb	sp!, {r3, r4, r5, r6, r7, r8, r9, lr}
 8005e88:	4607      	mov	r7, r0
 8005e8a:	4688      	mov	r8, r1
 8005e8c:	4614      	mov	r4, r2
 8005e8e:	2600      	movs	r6, #0
 8005e90:	e9d4 9501 	ldrd	r9, r5, [r4, #4]
 8005e94:	f1b9 0901 	subs.w	r9, r9, #1
 8005e98:	d505      	bpl.n	8005ea6 <_fwalk_sglue+0x22>
 8005e9a:	6824      	ldr	r4, [r4, #0]
 8005e9c:	2c00      	cmp	r4, #0
 8005e9e:	d1f7      	bne.n	8005e90 <_fwalk_sglue+0xc>
 8005ea0:	4630      	mov	r0, r6
 8005ea2:	e8bd 83f8 	ldmia.w	sp!, {r3, r4, r5, r6, r7, r8, r9, pc}
 8005ea6:	89ab      	ldrh	r3, [r5, #12]
 8005ea8:	2b01      	cmp	r3, #1
 8005eaa:	d907      	bls.n	8005ebc <_fwalk_sglue+0x38>
 8005eac:	f9b5 300e 	ldrsh.w	r3, [r5, #14]
 8005eb0:	3301      	adds	r3, #1
 8005eb2:	d003      	beq.n	8005ebc <_fwalk_sglue+0x38>
 8005eb4:	4629      	mov	r1, r5
 8005eb6:	4638      	mov	r0, r7
 8005eb8:	47c0      	blx	r8
 8005eba:	4306      	orrs	r6, r0
 8005ebc:	3568      	adds	r5, #104	@ 0x68
 8005ebe:	e7e9      	b.n	8005e94 <_fwalk_sglue+0x10>

08005ec0 <iprintf>:
 8005ec0:	b40f      	push	{r0, r1, r2, r3}
 8005ec2:	b507      	push	{r0, r1, r2, lr}
 8005ec4:	4906      	ldr	r1, [pc, #24]	@ (8005ee0 <iprintf+0x20>)
 8005ec6:	ab04      	add	r3, sp, #16
 8005ec8:	6808      	ldr	r0, [r1, #0]
 8005eca:	f853 2b04 	ldr.w	r2, [r3], #4
 8005ece:	6881      	ldr	r1, [r0, #8]
 8005ed0:	9301      	str	r3, [sp, #4]
 8005ed2:	f000 fc5f 	bl	8006794 <_vfiprintf_r>
 8005ed6:	b003      	add	sp, #12
 8005ed8:	f85d eb04 	ldr.w	lr, [sp], #4
 8005edc:	b004      	add	sp, #16
 8005ede:	4770      	bx	lr
 8005ee0:	2000003c 	.word	0x2000003c

08005ee4 <_puts_r>:
 8005ee4:	6a03      	ldr	r3, [r0, #32]
 8005ee6:	b570      	push	{r4, r5, r6, lr}
 8005ee8:	4605      	mov	r5, r0
 8005eea:	460e      	mov	r6, r1
 8005eec:	6884      	ldr	r4, [r0, #8]
 8005eee:	b90b      	cbnz	r3, 8005ef4 <_puts_r+0x10>
 8005ef0:	f7ff ffb0 	bl	8005e54 <__sinit>
 8005ef4:	6e63      	ldr	r3, [r4, #100]	@ 0x64
 8005ef6:	07db      	lsls	r3, r3, #31
 8005ef8:	d405      	bmi.n	8005f06 <_puts_r+0x22>
 8005efa:	89a3      	ldrh	r3, [r4, #12]
 8005efc:	0598      	lsls	r0, r3, #22
 8005efe:	d402      	bmi.n	8005f06 <_puts_r+0x22>
 8005f00:	6da0      	ldr	r0, [r4, #88]	@ 0x58
 8005f02:	f000 f9c0 	bl	8006286 <__retarget_lock_acquire_recursive>
 8005f06:	89a3      	ldrh	r3, [r4, #12]
 8005f08:	0719      	lsls	r1, r3, #28
 8005f0a:	d502      	bpl.n	8005f12 <_puts_r+0x2e>
 8005f0c:	6923      	ldr	r3, [r4, #16]
 8005f0e:	2b00      	cmp	r3, #0
 8005f10:	d135      	bne.n	8005f7e <_puts_r+0x9a>
 8005f12:	4621      	mov	r1, r4
 8005f14:	4628      	mov	r0, r5
 8005f16:	f000 f8e7 	bl	80060e8 <__swsetup_r>
 8005f1a:	b380      	cbz	r0, 8005f7e <_puts_r+0x9a>
 8005f1c:	f04f 35ff 	mov.w	r5, #4294967295
 8005f20:	6e63      	ldr	r3, [r4, #100]	@ 0x64
 8005f22:	07da      	lsls	r2, r3, #31
 8005f24:	d405      	bmi.n	8005f32 <_puts_r+0x4e>
 8005f26:	89a3      	ldrh	r3, [r4, #12]
 8005f28:	059b      	lsls	r3, r3, #22
 8005f2a:	d402      	bmi.n	8005f32 <_puts_r+0x4e>
 8005f2c:	6da0      	ldr	r0, [r4, #88]	@ 0x58
 8005f2e:	f000 f9ab 	bl	8006288 <__retarget_lock_release_recursive>
 8005f32:	4628      	mov	r0, r5
 8005f34:	bd70      	pop	{r4, r5, r6, pc}
 8005f36:	2b00      	cmp	r3, #0
 8005f38:	da04      	bge.n	8005f44 <_puts_r+0x60>
 8005f3a:	69a2      	ldr	r2, [r4, #24]
 8005f3c:	429a      	cmp	r2, r3
 8005f3e:	dc17      	bgt.n	8005f70 <_puts_r+0x8c>
 8005f40:	290a      	cmp	r1, #10
 8005f42:	d015      	beq.n	8005f70 <_puts_r+0x8c>
 8005f44:	6823      	ldr	r3, [r4, #0]
 8005f46:	1c5a      	adds	r2, r3, #1
 8005f48:	6022      	str	r2, [r4, #0]
 8005f4a:	7019      	strb	r1, [r3, #0]
 8005f4c:	68a3      	ldr	r3, [r4, #8]
 8005f4e:	f816 1f01 	ldrb.w	r1, [r6, #1]!
 8005f52:	3b01      	subs	r3, #1
 8005f54:	60a3      	str	r3, [r4, #8]
 8005f56:	2900      	cmp	r1, #0
 8005f58:	d1ed      	bne.n	8005f36 <_puts_r+0x52>
 8005f5a:	2b00      	cmp	r3, #0
 8005f5c:	da11      	bge.n	8005f82 <_puts_r+0x9e>
 8005f5e:	4622      	mov	r2, r4
 8005f60:	210a      	movs	r1, #10
 8005f62:	4628      	mov	r0, r5
 8005f64:	f000 f881 	bl	800606a <__swbuf_r>
 8005f68:	3001      	adds	r0, #1
 8005f6a:	d0d7      	beq.n	8005f1c <_puts_r+0x38>
 8005f6c:	250a      	movs	r5, #10
 8005f6e:	e7d7      	b.n	8005f20 <_puts_r+0x3c>
 8005f70:	4622      	mov	r2, r4
 8005f72:	4628      	mov	r0, r5
 8005f74:	f000 f879 	bl	800606a <__swbuf_r>
 8005f78:	3001      	adds	r0, #1
 8005f7a:	d1e7      	bne.n	8005f4c <_puts_r+0x68>
 8005f7c:	e7ce      	b.n	8005f1c <_puts_r+0x38>
 8005f7e:	3e01      	subs	r6, #1
 8005f80:	e7e4      	b.n	8005f4c <_puts_r+0x68>
 8005f82:	6823      	ldr	r3, [r4, #0]
 8005f84:	1c5a      	adds	r2, r3, #1
 8005f86:	6022      	str	r2, [r4, #0]
 8005f88:	220a      	movs	r2, #10
 8005f8a:	701a      	strb	r2, [r3, #0]
 8005f8c:	e7ee      	b.n	8005f6c <_puts_r+0x88>
	...

08005f90 <puts>:
 8005f90:	4b02      	ldr	r3, [pc, #8]	@ (8005f9c <puts+0xc>)
 8005f92:	4601      	mov	r1, r0
 8005f94:	6818      	ldr	r0, [r3, #0]
 8005f96:	f7ff bfa5 	b.w	8005ee4 <_puts_r>
 8005f9a:	bf00      	nop
 8005f9c:	2000003c 	.word	0x2000003c

08005fa0 <siprintf>:
 8005fa0:	b40e      	push	{r1, r2, r3}
 8005fa2:	f06f 4100 	mvn.w	r1, #2147483648	@ 0x80000000
 8005fa6:	b510      	push	{r4, lr}
 8005fa8:	2400      	movs	r4, #0
 8005faa:	b09d      	sub	sp, #116	@ 0x74
 8005fac:	ab1f      	add	r3, sp, #124	@ 0x7c
 8005fae:	9002      	str	r0, [sp, #8]
 8005fb0:	9006      	str	r0, [sp, #24]
 8005fb2:	9107      	str	r1, [sp, #28]
 8005fb4:	9104      	str	r1, [sp, #16]
 8005fb6:	4809      	ldr	r0, [pc, #36]	@ (8005fdc <siprintf+0x3c>)
 8005fb8:	4909      	ldr	r1, [pc, #36]	@ (8005fe0 <siprintf+0x40>)
 8005fba:	f853 2b04 	ldr.w	r2, [r3], #4
 8005fbe:	9105      	str	r1, [sp, #20]
 8005fc0:	6800      	ldr	r0, [r0, #0]
 8005fc2:	a902      	add	r1, sp, #8
 8005fc4:	9301      	str	r3, [sp, #4]
 8005fc6:	941b      	str	r4, [sp, #108]	@ 0x6c
 8005fc8:	f000 fac0 	bl	800654c <_svfiprintf_r>
 8005fcc:	9b02      	ldr	r3, [sp, #8]
 8005fce:	701c      	strb	r4, [r3, #0]
 8005fd0:	b01d      	add	sp, #116	@ 0x74
 8005fd2:	e8bd 4010 	ldmia.w	sp!, {r4, lr}
 8005fd6:	b003      	add	sp, #12
 8005fd8:	4770      	bx	lr
 8005fda:	bf00      	nop
 8005fdc:	2000003c 	.word	0x2000003c
 8005fe0:	ffff0208 	.word	0xffff0208

08005fe4 <__sread>:
 8005fe4:	b510      	push	{r4, lr}
 8005fe6:	460c      	mov	r4, r1
 8005fe8:	f9b1 100e 	ldrsh.w	r1, [r1, #14]
 8005fec:	f000 f8fc 	bl	80061e8 <_read_r>
 8005ff0:	2800      	cmp	r0, #0
 8005ff2:	bfab      	itete	ge
 8005ff4:	6d63      	ldrge	r3, [r4, #84]	@ 0x54
 8005ff6:	89a3      	ldrhlt	r3, [r4, #12]
 8005ff8:	181b      	addge	r3, r3, r0
 8005ffa:	f423 5380 	biclt.w	r3, r3, #4096	@ 0x1000
 8005ffe:	bfac      	ite	ge
 8006000:	6563      	strge	r3, [r4, #84]	@ 0x54
 8006002:	81a3      	strhlt	r3, [r4, #12]
 8006004:	bd10      	pop	{r4, pc}

08006006 <__swrite>:
 8006006:	e92d 41f0 	stmdb	sp!, {r4, r5, r6, r7, r8, lr}
 800600a:	461f      	mov	r7, r3
 800600c:	898b      	ldrh	r3, [r1, #12]
 800600e:	4605      	mov	r5, r0
 8006010:	05db      	lsls	r3, r3, #23
 8006012:	460c      	mov	r4, r1
 8006014:	4616      	mov	r6, r2
 8006016:	d505      	bpl.n	8006024 <__swrite+0x1e>
 8006018:	2302      	movs	r3, #2
 800601a:	2200      	movs	r2, #0
 800601c:	f9b1 100e 	ldrsh.w	r1, [r1, #14]
 8006020:	f000 f8d0 	bl	80061c4 <_lseek_r>
 8006024:	89a3      	ldrh	r3, [r4, #12]
 8006026:	4632      	mov	r2, r6
 8006028:	f423 5380 	bic.w	r3, r3, #4096	@ 0x1000
 800602c:	81a3      	strh	r3, [r4, #12]
 800602e:	4628      	mov	r0, r5
 8006030:	463b      	mov	r3, r7
 8006032:	f9b4 100e 	ldrsh.w	r1, [r4, #14]
 8006036:	e8bd 41f0 	ldmia.w	sp!, {r4, r5, r6, r7, r8, lr}
 800603a:	f000 b8e7 	b.w	800620c <_write_r>

0800603e <__sseek>:
 800603e:	b510      	push	{r4, lr}
 8006040:	460c      	mov	r4, r1
 8006042:	f9b1 100e 	ldrsh.w	r1, [r1, #14]
 8006046:	f000 f8bd 	bl	80061c4 <_lseek_r>
 800604a:	1c43      	adds	r3, r0, #1
 800604c:	89a3      	ldrh	r3, [r4, #12]
 800604e:	bf15      	itete	ne
 8006050:	6560      	strne	r0, [r4, #84]	@ 0x54
 8006052:	f423 5380 	biceq.w	r3, r3, #4096	@ 0x1000
 8006056:	f443 5380 	orrne.w	r3, r3, #4096	@ 0x1000
 800605a:	81a3      	strheq	r3, [r4, #12]
 800605c:	bf18      	it	ne
 800605e:	81a3      	strhne	r3, [r4, #12]
 8006060:	bd10      	pop	{r4, pc}

08006062 <__sclose>:
 8006062:	f9b1 100e 	ldrsh.w	r1, [r1, #14]
 8006066:	f000 b89d 	b.w	80061a4 <_close_r>

0800606a <__swbuf_r>:
 800606a:	b5f8      	push	{r3, r4, r5, r6, r7, lr}
 800606c:	460e      	mov	r6, r1
 800606e:	4614      	mov	r4, r2
 8006070:	4605      	mov	r5, r0
 8006072:	b118      	cbz	r0, 800607c <__swbuf_r+0x12>
 8006074:	6a03      	ldr	r3, [r0, #32]
 8006076:	b90b      	cbnz	r3, 800607c <__swbuf_r+0x12>
 8006078:	f7ff feec 	bl	8005e54 <__sinit>
 800607c:	69a3      	ldr	r3, [r4, #24]
 800607e:	60a3      	str	r3, [r4, #8]
 8006080:	89a3      	ldrh	r3, [r4, #12]
 8006082:	071a      	lsls	r2, r3, #28
 8006084:	d501      	bpl.n	800608a <__swbuf_r+0x20>
 8006086:	6923      	ldr	r3, [r4, #16]
 8006088:	b943      	cbnz	r3, 800609c <__swbuf_r+0x32>
 800608a:	4621      	mov	r1, r4
 800608c:	4628      	mov	r0, r5
 800608e:	f000 f82b 	bl	80060e8 <__swsetup_r>
 8006092:	b118      	cbz	r0, 800609c <__swbuf_r+0x32>
 8006094:	f04f 37ff 	mov.w	r7, #4294967295
 8006098:	4638      	mov	r0, r7
 800609a:	bdf8      	pop	{r3, r4, r5, r6, r7, pc}
 800609c:	6823      	ldr	r3, [r4, #0]
 800609e:	6922      	ldr	r2, [r4, #16]
 80060a0:	b2f6      	uxtb	r6, r6
 80060a2:	1a98      	subs	r0, r3, r2
 80060a4:	6963      	ldr	r3, [r4, #20]
 80060a6:	4637      	mov	r7, r6
 80060a8:	4283      	cmp	r3, r0
 80060aa:	dc05      	bgt.n	80060b8 <__swbuf_r+0x4e>
 80060ac:	4621      	mov	r1, r4
 80060ae:	4628      	mov	r0, r5
 80060b0:	f000 fe98 	bl	8006de4 <_fflush_r>
 80060b4:	2800      	cmp	r0, #0
 80060b6:	d1ed      	bne.n	8006094 <__swbuf_r+0x2a>
 80060b8:	68a3      	ldr	r3, [r4, #8]
 80060ba:	3b01      	subs	r3, #1
 80060bc:	60a3      	str	r3, [r4, #8]
 80060be:	6823      	ldr	r3, [r4, #0]
 80060c0:	1c5a      	adds	r2, r3, #1
 80060c2:	6022      	str	r2, [r4, #0]
 80060c4:	701e      	strb	r6, [r3, #0]
 80060c6:	6962      	ldr	r2, [r4, #20]
 80060c8:	1c43      	adds	r3, r0, #1
 80060ca:	429a      	cmp	r2, r3
 80060cc:	d004      	beq.n	80060d8 <__swbuf_r+0x6e>
 80060ce:	89a3      	ldrh	r3, [r4, #12]
 80060d0:	07db      	lsls	r3, r3, #31
 80060d2:	d5e1      	bpl.n	8006098 <__swbuf_r+0x2e>
 80060d4:	2e0a      	cmp	r6, #10
 80060d6:	d1df      	bne.n	8006098 <__swbuf_r+0x2e>
 80060d8:	4621      	mov	r1, r4
 80060da:	4628      	mov	r0, r5
 80060dc:	f000 fe82 	bl	8006de4 <_fflush_r>
 80060e0:	2800      	cmp	r0, #0
 80060e2:	d0d9      	beq.n	8006098 <__swbuf_r+0x2e>
 80060e4:	e7d6      	b.n	8006094 <__swbuf_r+0x2a>
	...

080060e8 <__swsetup_r>:
 80060e8:	b538      	push	{r3, r4, r5, lr}
 80060ea:	4b29      	ldr	r3, [pc, #164]	@ (8006190 <__swsetup_r+0xa8>)
 80060ec:	4605      	mov	r5, r0
 80060ee:	6818      	ldr	r0, [r3, #0]
 80060f0:	460c      	mov	r4, r1
 80060f2:	b118      	cbz	r0, 80060fc <__swsetup_r+0x14>
 80060f4:	6a03      	ldr	r3, [r0, #32]
 80060f6:	b90b      	cbnz	r3, 80060fc <__swsetup_r+0x14>
 80060f8:	f7ff feac 	bl	8005e54 <__sinit>
 80060fc:	f9b4 300c 	ldrsh.w	r3, [r4, #12]
 8006100:	0719      	lsls	r1, r3, #28
 8006102:	d422      	bmi.n	800614a <__swsetup_r+0x62>
 8006104:	06da      	lsls	r2, r3, #27
 8006106:	d407      	bmi.n	8006118 <__swsetup_r+0x30>
 8006108:	2209      	movs	r2, #9
 800610a:	602a      	str	r2, [r5, #0]
 800610c:	f043 0340 	orr.w	r3, r3, #64	@ 0x40
 8006110:	f04f 30ff 	mov.w	r0, #4294967295
 8006114:	81a3      	strh	r3, [r4, #12]
 8006116:	e033      	b.n	8006180 <__swsetup_r+0x98>
 8006118:	0758      	lsls	r0, r3, #29
 800611a:	d512      	bpl.n	8006142 <__swsetup_r+0x5a>
 800611c:	6b61      	ldr	r1, [r4, #52]	@ 0x34
 800611e:	b141      	cbz	r1, 8006132 <__swsetup_r+0x4a>
 8006120:	f104 0344 	add.w	r3, r4, #68	@ 0x44
 8006124:	4299      	cmp	r1, r3
 8006126:	d002      	beq.n	800612e <__swsetup_r+0x46>
 8006128:	4628      	mov	r0, r5
 800612a:	f000 f8bd 	bl	80062a8 <_free_r>
 800612e:	2300      	movs	r3, #0
 8006130:	6363      	str	r3, [r4, #52]	@ 0x34
 8006132:	89a3      	ldrh	r3, [r4, #12]
 8006134:	f023 0324 	bic.w	r3, r3, #36	@ 0x24
 8006138:	81a3      	strh	r3, [r4, #12]
 800613a:	2300      	movs	r3, #0
 800613c:	6063      	str	r3, [r4, #4]
 800613e:	6923      	ldr	r3, [r4, #16]
 8006140:	6023      	str	r3, [r4, #0]
 8006142:	89a3      	ldrh	r3, [r4, #12]
 8006144:	f043 0308 	orr.w	r3, r3, #8
 8006148:	81a3      	strh	r3, [r4, #12]
 800614a:	6923      	ldr	r3, [r4, #16]
 800614c:	b94b      	cbnz	r3, 8006162 <__swsetup_r+0x7a>
 800614e:	89a3      	ldrh	r3, [r4, #12]
 8006150:	f403 7320 	and.w	r3, r3, #640	@ 0x280
 8006154:	f5b3 7f00 	cmp.w	r3, #512	@ 0x200
 8006158:	d003      	beq.n	8006162 <__swsetup_r+0x7a>
 800615a:	4621      	mov	r1, r4
 800615c:	4628      	mov	r0, r5
 800615e:	f000 fe8e 	bl	8006e7e <__smakebuf_r>
 8006162:	f9b4 300c 	ldrsh.w	r3, [r4, #12]
 8006166:	f013 0201 	ands.w	r2, r3, #1
 800616a:	d00a      	beq.n	8006182 <__swsetup_r+0x9a>
 800616c:	2200      	movs	r2, #0
 800616e:	60a2      	str	r2, [r4, #8]
 8006170:	6962      	ldr	r2, [r4, #20]
 8006172:	4252      	negs	r2, r2
 8006174:	61a2      	str	r2, [r4, #24]
 8006176:	6922      	ldr	r2, [r4, #16]
 8006178:	b942      	cbnz	r2, 800618c <__swsetup_r+0xa4>
 800617a:	f013 0080 	ands.w	r0, r3, #128	@ 0x80
 800617e:	d1c5      	bne.n	800610c <__swsetup_r+0x24>
 8006180:	bd38      	pop	{r3, r4, r5, pc}
 8006182:	0799      	lsls	r1, r3, #30
 8006184:	bf58      	it	pl
 8006186:	6962      	ldrpl	r2, [r4, #20]
 8006188:	60a2      	str	r2, [r4, #8]
 800618a:	e7f4      	b.n	8006176 <__swsetup_r+0x8e>
 800618c:	2000      	movs	r0, #0
 800618e:	e7f7      	b.n	8006180 <__swsetup_r+0x98>
 8006190:	2000003c 	.word	0x2000003c

08006194 <memset>:
 8006194:	4603      	mov	r3, r0
 8006196:	4402      	add	r2, r0
 8006198:	4293      	cmp	r3, r2
 800619a:	d100      	bne.n	800619e <memset+0xa>
 800619c:	4770      	bx	lr
 800619e:	f803 1b01 	strb.w	r1, [r3], #1
 80061a2:	e7f9      	b.n	8006198 <memset+0x4>

080061a4 <_close_r>:
 80061a4:	b538      	push	{r3, r4, r5, lr}
 80061a6:	2300      	movs	r3, #0
 80061a8:	4d05      	ldr	r5, [pc, #20]	@ (80061c0 <_close_r+0x1c>)
 80061aa:	4604      	mov	r4, r0
 80061ac:	4608      	mov	r0, r1
 80061ae:	602b      	str	r3, [r5, #0]
 80061b0:	f7fd f812 	bl	80031d8 <_close>
 80061b4:	1c43      	adds	r3, r0, #1
 80061b6:	d102      	bne.n	80061be <_close_r+0x1a>
 80061b8:	682b      	ldr	r3, [r5, #0]
 80061ba:	b103      	cbz	r3, 80061be <_close_r+0x1a>
 80061bc:	6023      	str	r3, [r4, #0]
 80061be:	bd38      	pop	{r3, r4, r5, pc}
 80061c0:	200009b4 	.word	0x200009b4

080061c4 <_lseek_r>:
 80061c4:	b538      	push	{r3, r4, r5, lr}
 80061c6:	4604      	mov	r4, r0
 80061c8:	4608      	mov	r0, r1
 80061ca:	4611      	mov	r1, r2
 80061cc:	2200      	movs	r2, #0
 80061ce:	4d05      	ldr	r5, [pc, #20]	@ (80061e4 <_lseek_r+0x20>)
 80061d0:	602a      	str	r2, [r5, #0]
 80061d2:	461a      	mov	r2, r3
 80061d4:	f7fd f824 	bl	8003220 <_lseek>
 80061d8:	1c43      	adds	r3, r0, #1
 80061da:	d102      	bne.n	80061e2 <_lseek_r+0x1e>
 80061dc:	682b      	ldr	r3, [r5, #0]
 80061de:	b103      	cbz	r3, 80061e2 <_lseek_r+0x1e>
 80061e0:	6023      	str	r3, [r4, #0]
 80061e2:	bd38      	pop	{r3, r4, r5, pc}
 80061e4:	200009b4 	.word	0x200009b4

080061e8 <_read_r>:
 80061e8:	b538      	push	{r3, r4, r5, lr}
 80061ea:	4604      	mov	r4, r0
 80061ec:	4608      	mov	r0, r1
 80061ee:	4611      	mov	r1, r2
 80061f0:	2200      	movs	r2, #0
 80061f2:	4d05      	ldr	r5, [pc, #20]	@ (8006208 <_read_r+0x20>)
 80061f4:	602a      	str	r2, [r5, #0]
 80061f6:	461a      	mov	r2, r3
 80061f8:	f7fc ffd1 	bl	800319e <_read>
 80061fc:	1c43      	adds	r3, r0, #1
 80061fe:	d102      	bne.n	8006206 <_read_r+0x1e>
 8006200:	682b      	ldr	r3, [r5, #0]
 8006202:	b103      	cbz	r3, 8006206 <_read_r+0x1e>
 8006204:	6023      	str	r3, [r4, #0]
 8006206:	bd38      	pop	{r3, r4, r5, pc}
 8006208:	200009b4 	.word	0x200009b4

0800620c <_write_r>:
 800620c:	b538      	push	{r3, r4, r5, lr}
 800620e:	4604      	mov	r4, r0
 8006210:	4608      	mov	r0, r1
 8006212:	4611      	mov	r1, r2
 8006214:	2200      	movs	r2, #0
 8006216:	4d05      	ldr	r5, [pc, #20]	@ (800622c <_write_r+0x20>)
 8006218:	602a      	str	r2, [r5, #0]
 800621a:	461a      	mov	r2, r3
 800621c:	f7fd f9e4 	bl	80035e8 <_write>
 8006220:	1c43      	adds	r3, r0, #1
 8006222:	d102      	bne.n	800622a <_write_r+0x1e>
 8006224:	682b      	ldr	r3, [r5, #0]
 8006226:	b103      	cbz	r3, 800622a <_write_r+0x1e>
 8006228:	6023      	str	r3, [r4, #0]
 800622a:	bd38      	pop	{r3, r4, r5, pc}
 800622c:	200009b4 	.word	0x200009b4

08006230 <__errno>:
 8006230:	4b01      	ldr	r3, [pc, #4]	@ (8006238 <__errno+0x8>)
 8006232:	6818      	ldr	r0, [r3, #0]
 8006234:	4770      	bx	lr
 8006236:	bf00      	nop
 8006238:	2000003c 	.word	0x2000003c

0800623c <__libc_init_array>:
 800623c:	b570      	push	{r4, r5, r6, lr}
 800623e:	2600      	movs	r6, #0
 8006240:	4d0c      	ldr	r5, [pc, #48]	@ (8006274 <__libc_init_array+0x38>)
 8006242:	4c0d      	ldr	r4, [pc, #52]	@ (8006278 <__libc_init_array+0x3c>)
 8006244:	1b64      	subs	r4, r4, r5
 8006246:	10a4      	asrs	r4, r4, #2
 8006248:	42a6      	cmp	r6, r4
 800624a:	d109      	bne.n	8006260 <__libc_init_array+0x24>
 800624c:	f000 fee4 	bl	8007018 <_init>
 8006250:	2600      	movs	r6, #0
 8006252:	4d0a      	ldr	r5, [pc, #40]	@ (800627c <__libc_init_array+0x40>)
 8006254:	4c0a      	ldr	r4, [pc, #40]	@ (8006280 <__libc_init_array+0x44>)
 8006256:	1b64      	subs	r4, r4, r5
 8006258:	10a4      	asrs	r4, r4, #2
 800625a:	42a6      	cmp	r6, r4
 800625c:	d105      	bne.n	800626a <__libc_init_array+0x2e>
 800625e:	bd70      	pop	{r4, r5, r6, pc}
 8006260:	f855 3b04 	ldr.w	r3, [r5], #4
 8006264:	4798      	blx	r3
 8006266:	3601      	adds	r6, #1
 8006268:	e7ee      	b.n	8006248 <__libc_init_array+0xc>
 800626a:	f855 3b04 	ldr.w	r3, [r5], #4
 800626e:	4798      	blx	r3
 8006270:	3601      	adds	r6, #1
 8006272:	e7f2      	b.n	800625a <__libc_init_array+0x1e>
 8006274:	080083a4 	.word	0x080083a4
 8006278:	080083a4 	.word	0x080083a4
 800627c:	080083a4 	.word	0x080083a4
 8006280:	080083a8 	.word	0x080083a8

08006284 <__retarget_lock_init_recursive>:
 8006284:	4770      	bx	lr

08006286 <__retarget_lock_acquire_recursive>:
 8006286:	4770      	bx	lr

08006288 <__retarget_lock_release_recursive>:
 8006288:	4770      	bx	lr

0800628a <memcpy>:
 800628a:	440a      	add	r2, r1
 800628c:	4291      	cmp	r1, r2
 800628e:	f100 33ff 	add.w	r3, r0, #4294967295
 8006292:	d100      	bne.n	8006296 <memcpy+0xc>
 8006294:	4770      	bx	lr
 8006296:	b510      	push	{r4, lr}
 8006298:	f811 4b01 	ldrb.w	r4, [r1], #1
 800629c:	4291      	cmp	r1, r2
 800629e:	f803 4f01 	strb.w	r4, [r3, #1]!
 80062a2:	d1f9      	bne.n	8006298 <memcpy+0xe>
 80062a4:	bd10      	pop	{r4, pc}
	...

080062a8 <_free_r>:
 80062a8:	b538      	push	{r3, r4, r5, lr}
 80062aa:	4605      	mov	r5, r0
 80062ac:	2900      	cmp	r1, #0
 80062ae:	d040      	beq.n	8006332 <_free_r+0x8a>
 80062b0:	f851 3c04 	ldr.w	r3, [r1, #-4]
 80062b4:	1f0c      	subs	r4, r1, #4
 80062b6:	2b00      	cmp	r3, #0
 80062b8:	bfb8      	it	lt
 80062ba:	18e4      	addlt	r4, r4, r3
 80062bc:	f000 f8de 	bl	800647c <__malloc_lock>
 80062c0:	4a1c      	ldr	r2, [pc, #112]	@ (8006334 <_free_r+0x8c>)
 80062c2:	6813      	ldr	r3, [r2, #0]
 80062c4:	b933      	cbnz	r3, 80062d4 <_free_r+0x2c>
 80062c6:	6063      	str	r3, [r4, #4]
 80062c8:	6014      	str	r4, [r2, #0]
 80062ca:	4628      	mov	r0, r5
 80062cc:	e8bd 4038 	ldmia.w	sp!, {r3, r4, r5, lr}
 80062d0:	f000 b8da 	b.w	8006488 <__malloc_unlock>
 80062d4:	42a3      	cmp	r3, r4
 80062d6:	d908      	bls.n	80062ea <_free_r+0x42>
 80062d8:	6820      	ldr	r0, [r4, #0]
 80062da:	1821      	adds	r1, r4, r0
 80062dc:	428b      	cmp	r3, r1
 80062de:	bf01      	itttt	eq
 80062e0:	6819      	ldreq	r1, [r3, #0]
 80062e2:	685b      	ldreq	r3, [r3, #4]
 80062e4:	1809      	addeq	r1, r1, r0
 80062e6:	6021      	streq	r1, [r4, #0]
 80062e8:	e7ed      	b.n	80062c6 <_free_r+0x1e>
 80062ea:	461a      	mov	r2, r3
 80062ec:	685b      	ldr	r3, [r3, #4]
 80062ee:	b10b      	cbz	r3, 80062f4 <_free_r+0x4c>
 80062f0:	42a3      	cmp	r3, r4
 80062f2:	d9fa      	bls.n	80062ea <_free_r+0x42>
 80062f4:	6811      	ldr	r1, [r2, #0]
 80062f6:	1850      	adds	r0, r2, r1
 80062f8:	42a0      	cmp	r0, r4
 80062fa:	d10b      	bne.n	8006314 <_free_r+0x6c>
 80062fc:	6820      	ldr	r0, [r4, #0]
 80062fe:	4401      	add	r1, r0
 8006300:	1850      	adds	r0, r2, r1
 8006302:	4283      	cmp	r3, r0
 8006304:	6011      	str	r1, [r2, #0]
 8006306:	d1e0      	bne.n	80062ca <_free_r+0x22>
 8006308:	6818      	ldr	r0, [r3, #0]
 800630a:	685b      	ldr	r3, [r3, #4]
 800630c:	4408      	add	r0, r1
 800630e:	6010      	str	r0, [r2, #0]
 8006310:	6053      	str	r3, [r2, #4]
 8006312:	e7da      	b.n	80062ca <_free_r+0x22>
 8006314:	d902      	bls.n	800631c <_free_r+0x74>
 8006316:	230c      	movs	r3, #12
 8006318:	602b      	str	r3, [r5, #0]
 800631a:	e7d6      	b.n	80062ca <_free_r+0x22>
 800631c:	6820      	ldr	r0, [r4, #0]
 800631e:	1821      	adds	r1, r4, r0
 8006320:	428b      	cmp	r3, r1
 8006322:	bf01      	itttt	eq
 8006324:	6819      	ldreq	r1, [r3, #0]
 8006326:	685b      	ldreq	r3, [r3, #4]
 8006328:	1809      	addeq	r1, r1, r0
 800632a:	6021      	streq	r1, [r4, #0]
 800632c:	6063      	str	r3, [r4, #4]
 800632e:	6054      	str	r4, [r2, #4]
 8006330:	e7cb      	b.n	80062ca <_free_r+0x22>
 8006332:	bd38      	pop	{r3, r4, r5, pc}
 8006334:	200009c0 	.word	0x200009c0

08006338 <sbrk_aligned>:
 8006338:	b570      	push	{r4, r5, r6, lr}
 800633a:	4e0f      	ldr	r6, [pc, #60]	@ (8006378 <sbrk_aligned+0x40>)
 800633c:	460c      	mov	r4, r1
 800633e:	6831      	ldr	r1, [r6, #0]
 8006340:	4605      	mov	r5, r0
 8006342:	b911      	cbnz	r1, 800634a <sbrk_aligned+0x12>
 8006344:	f000 fe14 	bl	8006f70 <_sbrk_r>
 8006348:	6030      	str	r0, [r6, #0]
 800634a:	4621      	mov	r1, r4
 800634c:	4628      	mov	r0, r5
 800634e:	f000 fe0f 	bl	8006f70 <_sbrk_r>
 8006352:	1c43      	adds	r3, r0, #1
 8006354:	d103      	bne.n	800635e <sbrk_aligned+0x26>
 8006356:	f04f 34ff 	mov.w	r4, #4294967295
 800635a:	4620      	mov	r0, r4
 800635c:	bd70      	pop	{r4, r5, r6, pc}
 800635e:	1cc4      	adds	r4, r0, #3
 8006360:	f024 0403 	bic.w	r4, r4, #3
 8006364:	42a0      	cmp	r0, r4
 8006366:	d0f8      	beq.n	800635a <sbrk_aligned+0x22>
 8006368:	1a21      	subs	r1, r4, r0
 800636a:	4628      	mov	r0, r5
 800636c:	f000 fe00 	bl	8006f70 <_sbrk_r>
 8006370:	3001      	adds	r0, #1
 8006372:	d1f2      	bne.n	800635a <sbrk_aligned+0x22>
 8006374:	e7ef      	b.n	8006356 <sbrk_aligned+0x1e>
 8006376:	bf00      	nop
 8006378:	200009bc 	.word	0x200009bc

0800637c <_malloc_r>:
 800637c:	e92d 43f8 	stmdb	sp!, {r3, r4, r5, r6, r7, r8, r9, lr}
 8006380:	1ccd      	adds	r5, r1, #3
 8006382:	f025 0503 	bic.w	r5, r5, #3
 8006386:	3508      	adds	r5, #8
 8006388:	2d0c      	cmp	r5, #12
 800638a:	bf38      	it	cc
 800638c:	250c      	movcc	r5, #12
 800638e:	2d00      	cmp	r5, #0
 8006390:	4606      	mov	r6, r0
 8006392:	db01      	blt.n	8006398 <_malloc_r+0x1c>
 8006394:	42a9      	cmp	r1, r5
 8006396:	d904      	bls.n	80063a2 <_malloc_r+0x26>
 8006398:	230c      	movs	r3, #12
 800639a:	6033      	str	r3, [r6, #0]
 800639c:	2000      	movs	r0, #0
 800639e:	e8bd 83f8 	ldmia.w	sp!, {r3, r4, r5, r6, r7, r8, r9, pc}
 80063a2:	f8df 80d4 	ldr.w	r8, [pc, #212]	@ 8006478 <_malloc_r+0xfc>
 80063a6:	f000 f869 	bl	800647c <__malloc_lock>
 80063aa:	f8d8 3000 	ldr.w	r3, [r8]
 80063ae:	461c      	mov	r4, r3
 80063b0:	bb44      	cbnz	r4, 8006404 <_malloc_r+0x88>
 80063b2:	4629      	mov	r1, r5
 80063b4:	4630      	mov	r0, r6
 80063b6:	f7ff ffbf 	bl	8006338 <sbrk_aligned>
 80063ba:	1c43      	adds	r3, r0, #1
 80063bc:	4604      	mov	r4, r0
 80063be:	d158      	bne.n	8006472 <_malloc_r+0xf6>
 80063c0:	f8d8 4000 	ldr.w	r4, [r8]
 80063c4:	4627      	mov	r7, r4
 80063c6:	2f00      	cmp	r7, #0
 80063c8:	d143      	bne.n	8006452 <_malloc_r+0xd6>
 80063ca:	2c00      	cmp	r4, #0
 80063cc:	d04b      	beq.n	8006466 <_malloc_r+0xea>
 80063ce:	6823      	ldr	r3, [r4, #0]
 80063d0:	4639      	mov	r1, r7
 80063d2:	4630      	mov	r0, r6
 80063d4:	eb04 0903 	add.w	r9, r4, r3
 80063d8:	f000 fdca 	bl	8006f70 <_sbrk_r>
 80063dc:	4581      	cmp	r9, r0
 80063de:	d142      	bne.n	8006466 <_malloc_r+0xea>
 80063e0:	6821      	ldr	r1, [r4, #0]
 80063e2:	4630      	mov	r0, r6
 80063e4:	1a6d      	subs	r5, r5, r1
 80063e6:	4629      	mov	r1, r5
 80063e8:	f7ff ffa6 	bl	8006338 <sbrk_aligned>
 80063ec:	3001      	adds	r0, #1
 80063ee:	d03a      	beq.n	8006466 <_malloc_r+0xea>
 80063f0:	6823      	ldr	r3, [r4, #0]
 80063f2:	442b      	add	r3, r5
 80063f4:	6023      	str	r3, [r4, #0]
 80063f6:	f8d8 3000 	ldr.w	r3, [r8]
 80063fa:	685a      	ldr	r2, [r3, #4]
 80063fc:	bb62      	cbnz	r2, 8006458 <_malloc_r+0xdc>
 80063fe:	f8c8 7000 	str.w	r7, [r8]
 8006402:	e00f      	b.n	8006424 <_malloc_r+0xa8>
 8006404:	6822      	ldr	r2, [r4, #0]
 8006406:	1b52      	subs	r2, r2, r5
 8006408:	d420      	bmi.n	800644c <_malloc_r+0xd0>
 800640a:	2a0b      	cmp	r2, #11
 800640c:	d917      	bls.n	800643e <_malloc_r+0xc2>
 800640e:	1961      	adds	r1, r4, r5
 8006410:	42a3      	cmp	r3, r4
 8006412:	6025      	str	r5, [r4, #0]
 8006414:	bf18      	it	ne
 8006416:	6059      	strne	r1, [r3, #4]
 8006418:	6863      	ldr	r3, [r4, #4]
 800641a:	bf08      	it	eq
 800641c:	f8c8 1000 	streq.w	r1, [r8]
 8006420:	5162      	str	r2, [r4, r5]
 8006422:	604b      	str	r3, [r1, #4]
 8006424:	4630      	mov	r0, r6
 8006426:	f000 f82f 	bl	8006488 <__malloc_unlock>
 800642a:	f104 000b 	add.w	r0, r4, #11
 800642e:	1d23      	adds	r3, r4, #4
 8006430:	f020 0007 	bic.w	r0, r0, #7
 8006434:	1ac2      	subs	r2, r0, r3
 8006436:	bf1c      	itt	ne
 8006438:	1a1b      	subne	r3, r3, r0
 800643a:	50a3      	strne	r3, [r4, r2]
 800643c:	e7af      	b.n	800639e <_malloc_r+0x22>
 800643e:	6862      	ldr	r2, [r4, #4]
 8006440:	42a3      	cmp	r3, r4
 8006442:	bf0c      	ite	eq
 8006444:	f8c8 2000 	streq.w	r2, [r8]
 8006448:	605a      	strne	r2, [r3, #4]
 800644a:	e7eb      	b.n	8006424 <_malloc_r+0xa8>
 800644c:	4623      	mov	r3, r4
 800644e:	6864      	ldr	r4, [r4, #4]
 8006450:	e7ae      	b.n	80063b0 <_malloc_r+0x34>
 8006452:	463c      	mov	r4, r7
 8006454:	687f      	ldr	r7, [r7, #4]
 8006456:	e7b6      	b.n	80063c6 <_malloc_r+0x4a>
 8006458:	461a      	mov	r2, r3
 800645a:	685b      	ldr	r3, [r3, #4]
 800645c:	42a3      	cmp	r3, r4
 800645e:	d1fb      	bne.n	8006458 <_malloc_r+0xdc>
 8006460:	2300      	movs	r3, #0
 8006462:	6053      	str	r3, [r2, #4]
 8006464:	e7de      	b.n	8006424 <_malloc_r+0xa8>
 8006466:	230c      	movs	r3, #12
 8006468:	4630      	mov	r0, r6
 800646a:	6033      	str	r3, [r6, #0]
 800646c:	f000 f80c 	bl	8006488 <__malloc_unlock>
 8006470:	e794      	b.n	800639c <_malloc_r+0x20>
 8006472:	6005      	str	r5, [r0, #0]
 8006474:	e7d6      	b.n	8006424 <_malloc_r+0xa8>
 8006476:	bf00      	nop
 8006478:	200009c0 	.word	0x200009c0

0800647c <__malloc_lock>:
 800647c:	4801      	ldr	r0, [pc, #4]	@ (8006484 <__malloc_lock+0x8>)
 800647e:	f7ff bf02 	b.w	8006286 <__retarget_lock_acquire_recursive>
 8006482:	bf00      	nop
 8006484:	200009b8 	.word	0x200009b8

08006488 <__malloc_unlock>:
 8006488:	4801      	ldr	r0, [pc, #4]	@ (8006490 <__malloc_unlock+0x8>)
 800648a:	f7ff befd 	b.w	8006288 <__retarget_lock_release_recursive>
 800648e:	bf00      	nop
 8006490:	200009b8 	.word	0x200009b8

08006494 <__ssputs_r>:
 8006494:	e92d 47f0 	stmdb	sp!, {r4, r5, r6, r7, r8, r9, sl, lr}
 8006498:	461f      	mov	r7, r3
 800649a:	688e      	ldr	r6, [r1, #8]
 800649c:	4682      	mov	sl, r0
 800649e:	42be      	cmp	r6, r7
 80064a0:	460c      	mov	r4, r1
 80064a2:	4690      	mov	r8, r2
 80064a4:	680b      	ldr	r3, [r1, #0]
 80064a6:	d82d      	bhi.n	8006504 <__ssputs_r+0x70>
 80064a8:	f9b1 200c 	ldrsh.w	r2, [r1, #12]
 80064ac:	f412 6f90 	tst.w	r2, #1152	@ 0x480
 80064b0:	d026      	beq.n	8006500 <__ssputs_r+0x6c>
 80064b2:	6965      	ldr	r5, [r4, #20]
 80064b4:	6909      	ldr	r1, [r1, #16]
 80064b6:	eb05 0545 	add.w	r5, r5, r5, lsl #1
 80064ba:	eba3 0901 	sub.w	r9, r3, r1
 80064be:	eb05 75d5 	add.w	r5, r5, r5, lsr #31
 80064c2:	1c7b      	adds	r3, r7, #1
 80064c4:	444b      	add	r3, r9
 80064c6:	106d      	asrs	r5, r5, #1
 80064c8:	429d      	cmp	r5, r3
 80064ca:	bf38      	it	cc
 80064cc:	461d      	movcc	r5, r3
 80064ce:	0553      	lsls	r3, r2, #21
 80064d0:	d527      	bpl.n	8006522 <__ssputs_r+0x8e>
 80064d2:	4629      	mov	r1, r5
 80064d4:	f7ff ff52 	bl	800637c <_malloc_r>
 80064d8:	4606      	mov	r6, r0
 80064da:	b360      	cbz	r0, 8006536 <__ssputs_r+0xa2>
 80064dc:	464a      	mov	r2, r9
 80064de:	6921      	ldr	r1, [r4, #16]
 80064e0:	f7ff fed3 	bl	800628a <memcpy>
 80064e4:	89a3      	ldrh	r3, [r4, #12]
 80064e6:	f423 6390 	bic.w	r3, r3, #1152	@ 0x480
 80064ea:	f043 0380 	orr.w	r3, r3, #128	@ 0x80
 80064ee:	81a3      	strh	r3, [r4, #12]
 80064f0:	6126      	str	r6, [r4, #16]
 80064f2:	444e      	add	r6, r9
 80064f4:	6026      	str	r6, [r4, #0]
 80064f6:	463e      	mov	r6, r7
 80064f8:	6165      	str	r5, [r4, #20]
 80064fa:	eba5 0509 	sub.w	r5, r5, r9
 80064fe:	60a5      	str	r5, [r4, #8]
 8006500:	42be      	cmp	r6, r7
 8006502:	d900      	bls.n	8006506 <__ssputs_r+0x72>
 8006504:	463e      	mov	r6, r7
 8006506:	4632      	mov	r2, r6
 8006508:	4641      	mov	r1, r8
 800650a:	6820      	ldr	r0, [r4, #0]
 800650c:	f000 fcf3 	bl	8006ef6 <memmove>
 8006510:	2000      	movs	r0, #0
 8006512:	68a3      	ldr	r3, [r4, #8]
 8006514:	1b9b      	subs	r3, r3, r6
 8006516:	60a3      	str	r3, [r4, #8]
 8006518:	6823      	ldr	r3, [r4, #0]
 800651a:	4433      	add	r3, r6
 800651c:	6023      	str	r3, [r4, #0]
 800651e:	e8bd 87f0 	ldmia.w	sp!, {r4, r5, r6, r7, r8, r9, sl, pc}
 8006522:	462a      	mov	r2, r5
 8006524:	f000 fd42 	bl	8006fac <_realloc_r>
 8006528:	4606      	mov	r6, r0
 800652a:	2800      	cmp	r0, #0
 800652c:	d1e0      	bne.n	80064f0 <__ssputs_r+0x5c>
 800652e:	4650      	mov	r0, sl
 8006530:	6921      	ldr	r1, [r4, #16]
 8006532:	f7ff feb9 	bl	80062a8 <_free_r>
 8006536:	230c      	movs	r3, #12
 8006538:	f8ca 3000 	str.w	r3, [sl]
 800653c:	89a3      	ldrh	r3, [r4, #12]
 800653e:	f04f 30ff 	mov.w	r0, #4294967295
 8006542:	f043 0340 	orr.w	r3, r3, #64	@ 0x40
 8006546:	81a3      	strh	r3, [r4, #12]
 8006548:	e7e9      	b.n	800651e <__ssputs_r+0x8a>
	...

0800654c <_svfiprintf_r>:
 800654c:	e92d 4ff0 	stmdb	sp!, {r4, r5, r6, r7, r8, r9, sl, fp, lr}
 8006550:	4698      	mov	r8, r3
 8006552:	898b      	ldrh	r3, [r1, #12]
 8006554:	4607      	mov	r7, r0
 8006556:	061b      	lsls	r3, r3, #24
 8006558:	460d      	mov	r5, r1
 800655a:	4614      	mov	r4, r2
 800655c:	b09d      	sub	sp, #116	@ 0x74
 800655e:	d510      	bpl.n	8006582 <_svfiprintf_r+0x36>
 8006560:	690b      	ldr	r3, [r1, #16]
 8006562:	b973      	cbnz	r3, 8006582 <_svfiprintf_r+0x36>
 8006564:	2140      	movs	r1, #64	@ 0x40
 8006566:	f7ff ff09 	bl	800637c <_malloc_r>
 800656a:	6028      	str	r0, [r5, #0]
 800656c:	6128      	str	r0, [r5, #16]
 800656e:	b930      	cbnz	r0, 800657e <_svfiprintf_r+0x32>
 8006570:	230c      	movs	r3, #12
 8006572:	603b      	str	r3, [r7, #0]
 8006574:	f04f 30ff 	mov.w	r0, #4294967295
 8006578:	b01d      	add	sp, #116	@ 0x74
 800657a:	e8bd 8ff0 	ldmia.w	sp!, {r4, r5, r6, r7, r8, r9, sl, fp, pc}
 800657e:	2340      	movs	r3, #64	@ 0x40
 8006580:	616b      	str	r3, [r5, #20]
 8006582:	2300      	movs	r3, #0
 8006584:	9309      	str	r3, [sp, #36]	@ 0x24
 8006586:	2320      	movs	r3, #32
 8006588:	f88d 3029 	strb.w	r3, [sp, #41]	@ 0x29
 800658c:	2330      	movs	r3, #48	@ 0x30
 800658e:	f04f 0901 	mov.w	r9, #1
 8006592:	f8cd 800c 	str.w	r8, [sp, #12]
 8006596:	f8df 8198 	ldr.w	r8, [pc, #408]	@ 8006730 <_svfiprintf_r+0x1e4>
 800659a:	f88d 302a 	strb.w	r3, [sp, #42]	@ 0x2a
 800659e:	4623      	mov	r3, r4
 80065a0:	469a      	mov	sl, r3
 80065a2:	f813 2b01 	ldrb.w	r2, [r3], #1
 80065a6:	b10a      	cbz	r2, 80065ac <_svfiprintf_r+0x60>
 80065a8:	2a25      	cmp	r2, #37	@ 0x25
 80065aa:	d1f9      	bne.n	80065a0 <_svfiprintf_r+0x54>
 80065ac:	ebba 0b04 	subs.w	fp, sl, r4
 80065b0:	d00b      	beq.n	80065ca <_svfiprintf_r+0x7e>
 80065b2:	465b      	mov	r3, fp
 80065b4:	4622      	mov	r2, r4
 80065b6:	4629      	mov	r1, r5
 80065b8:	4638      	mov	r0, r7
 80065ba:	f7ff ff6b 	bl	8006494 <__ssputs_r>
 80065be:	3001      	adds	r0, #1
 80065c0:	f000 80a7 	beq.w	8006712 <_svfiprintf_r+0x1c6>
 80065c4:	9a09      	ldr	r2, [sp, #36]	@ 0x24
 80065c6:	445a      	add	r2, fp
 80065c8:	9209      	str	r2, [sp, #36]	@ 0x24
 80065ca:	f89a 3000 	ldrb.w	r3, [sl]
 80065ce:	2b00      	cmp	r3, #0
 80065d0:	f000 809f 	beq.w	8006712 <_svfiprintf_r+0x1c6>
 80065d4:	2300      	movs	r3, #0
 80065d6:	f04f 32ff 	mov.w	r2, #4294967295
 80065da:	e9cd 2305 	strd	r2, r3, [sp, #20]
 80065de:	f10a 0a01 	add.w	sl, sl, #1
 80065e2:	9304      	str	r3, [sp, #16]
 80065e4:	9307      	str	r3, [sp, #28]
 80065e6:	f88d 3053 	strb.w	r3, [sp, #83]	@ 0x53
 80065ea:	931a      	str	r3, [sp, #104]	@ 0x68
 80065ec:	4654      	mov	r4, sl
 80065ee:	2205      	movs	r2, #5
 80065f0:	f814 1b01 	ldrb.w	r1, [r4], #1
 80065f4:	484e      	ldr	r0, [pc, #312]	@ (8006730 <_svfiprintf_r+0x1e4>)
 80065f6:	f000 fccb 	bl	8006f90 <memchr>
 80065fa:	9a04      	ldr	r2, [sp, #16]
 80065fc:	b9d8      	cbnz	r0, 8006636 <_svfiprintf_r+0xea>
 80065fe:	06d0      	lsls	r0, r2, #27
 8006600:	bf44      	itt	mi
 8006602:	2320      	movmi	r3, #32
 8006604:	f88d 3053 	strbmi.w	r3, [sp, #83]	@ 0x53
 8006608:	0711      	lsls	r1, r2, #28
 800660a:	bf44      	itt	mi
 800660c:	232b      	movmi	r3, #43	@ 0x2b
 800660e:	f88d 3053 	strbmi.w	r3, [sp, #83]	@ 0x53
 8006612:	f89a 3000 	ldrb.w	r3, [sl]
 8006616:	2b2a      	cmp	r3, #42	@ 0x2a
 8006618:	d015      	beq.n	8006646 <_svfiprintf_r+0xfa>
 800661a:	4654      	mov	r4, sl
 800661c:	2000      	movs	r0, #0
 800661e:	f04f 0c0a 	mov.w	ip, #10
 8006622:	9a07      	ldr	r2, [sp, #28]
 8006624:	4621      	mov	r1, r4
 8006626:	f811 3b01 	ldrb.w	r3, [r1], #1
 800662a:	3b30      	subs	r3, #48	@ 0x30
 800662c:	2b09      	cmp	r3, #9
 800662e:	d94b      	bls.n	80066c8 <_svfiprintf_r+0x17c>
 8006630:	b1b0      	cbz	r0, 8006660 <_svfiprintf_r+0x114>
 8006632:	9207      	str	r2, [sp, #28]
 8006634:	e014      	b.n	8006660 <_svfiprintf_r+0x114>
 8006636:	eba0 0308 	sub.w	r3, r0, r8
 800663a:	fa09 f303 	lsl.w	r3, r9, r3
 800663e:	4313      	orrs	r3, r2
 8006640:	46a2      	mov	sl, r4
 8006642:	9304      	str	r3, [sp, #16]
 8006644:	e7d2      	b.n	80065ec <_svfiprintf_r+0xa0>
 8006646:	9b03      	ldr	r3, [sp, #12]
 8006648:	1d19      	adds	r1, r3, #4
 800664a:	681b      	ldr	r3, [r3, #0]
 800664c:	9103      	str	r1, [sp, #12]
 800664e:	2b00      	cmp	r3, #0
 8006650:	bfbb      	ittet	lt
 8006652:	425b      	neglt	r3, r3
 8006654:	f042 0202 	orrlt.w	r2, r2, #2
 8006658:	9307      	strge	r3, [sp, #28]
 800665a:	9307      	strlt	r3, [sp, #28]
 800665c:	bfb8      	it	lt
 800665e:	9204      	strlt	r2, [sp, #16]
 8006660:	7823      	ldrb	r3, [r4, #0]
 8006662:	2b2e      	cmp	r3, #46	@ 0x2e
 8006664:	d10a      	bne.n	800667c <_svfiprintf_r+0x130>
 8006666:	7863      	ldrb	r3, [r4, #1]
 8006668:	2b2a      	cmp	r3, #42	@ 0x2a
 800666a:	d132      	bne.n	80066d2 <_svfiprintf_r+0x186>
 800666c:	9b03      	ldr	r3, [sp, #12]
 800666e:	3402      	adds	r4, #2
 8006670:	1d1a      	adds	r2, r3, #4
 8006672:	681b      	ldr	r3, [r3, #0]
 8006674:	9203      	str	r2, [sp, #12]
 8006676:	ea43 73e3 	orr.w	r3, r3, r3, asr #31
 800667a:	9305      	str	r3, [sp, #20]
 800667c:	f8df a0b4 	ldr.w	sl, [pc, #180]	@ 8006734 <_svfiprintf_r+0x1e8>
 8006680:	2203      	movs	r2, #3
 8006682:	4650      	mov	r0, sl
 8006684:	7821      	ldrb	r1, [r4, #0]
 8006686:	f000 fc83 	bl	8006f90 <memchr>
 800668a:	b138      	cbz	r0, 800669c <_svfiprintf_r+0x150>
 800668c:	2240      	movs	r2, #64	@ 0x40
 800668e:	9b04      	ldr	r3, [sp, #16]
 8006690:	eba0 000a 	sub.w	r0, r0, sl
 8006694:	4082      	lsls	r2, r0
 8006696:	4313      	orrs	r3, r2
 8006698:	3401      	adds	r4, #1
 800669a:	9304      	str	r3, [sp, #16]
 800669c:	f814 1b01 	ldrb.w	r1, [r4], #1
 80066a0:	2206      	movs	r2, #6
 80066a2:	4825      	ldr	r0, [pc, #148]	@ (8006738 <_svfiprintf_r+0x1ec>)
 80066a4:	f88d 1028 	strb.w	r1, [sp, #40]	@ 0x28
 80066a8:	f000 fc72 	bl	8006f90 <memchr>
 80066ac:	2800      	cmp	r0, #0
 80066ae:	d036      	beq.n	800671e <_svfiprintf_r+0x1d2>
 80066b0:	4b22      	ldr	r3, [pc, #136]	@ (800673c <_svfiprintf_r+0x1f0>)
 80066b2:	bb1b      	cbnz	r3, 80066fc <_svfiprintf_r+0x1b0>
 80066b4:	9b03      	ldr	r3, [sp, #12]
 80066b6:	3307      	adds	r3, #7
 80066b8:	f023 0307 	bic.w	r3, r3, #7
 80066bc:	3308      	adds	r3, #8
 80066be:	9303      	str	r3, [sp, #12]
 80066c0:	9b09      	ldr	r3, [sp, #36]	@ 0x24
 80066c2:	4433      	add	r3, r6
 80066c4:	9309      	str	r3, [sp, #36]	@ 0x24
 80066c6:	e76a      	b.n	800659e <_svfiprintf_r+0x52>
 80066c8:	460c      	mov	r4, r1
 80066ca:	2001      	movs	r0, #1
 80066cc:	fb0c 3202 	mla	r2, ip, r2, r3
 80066d0:	e7a8      	b.n	8006624 <_svfiprintf_r+0xd8>
 80066d2:	2300      	movs	r3, #0
 80066d4:	f04f 0c0a 	mov.w	ip, #10
 80066d8:	4619      	mov	r1, r3
 80066da:	3401      	adds	r4, #1
 80066dc:	9305      	str	r3, [sp, #20]
 80066de:	4620      	mov	r0, r4
 80066e0:	f810 2b01 	ldrb.w	r2, [r0], #1
 80066e4:	3a30      	subs	r2, #48	@ 0x30
 80066e6:	2a09      	cmp	r2, #9
 80066e8:	d903      	bls.n	80066f2 <_svfiprintf_r+0x1a6>
 80066ea:	2b00      	cmp	r3, #0
 80066ec:	d0c6      	beq.n	800667c <_svfiprintf_r+0x130>
 80066ee:	9105      	str	r1, [sp, #20]
 80066f0:	e7c4      	b.n	800667c <_svfiprintf_r+0x130>
 80066f2:	4604      	mov	r4, r0
 80066f4:	2301      	movs	r3, #1
 80066f6:	fb0c 2101 	mla	r1, ip, r1, r2
 80066fa:	e7f0      	b.n	80066de <_svfiprintf_r+0x192>
 80066fc:	ab03      	add	r3, sp, #12
 80066fe:	9300      	str	r3, [sp, #0]
 8006700:	462a      	mov	r2, r5
 8006702:	4638      	mov	r0, r7
 8006704:	4b0e      	ldr	r3, [pc, #56]	@ (8006740 <_svfiprintf_r+0x1f4>)
 8006706:	a904      	add	r1, sp, #16
 8006708:	f3af 8000 	nop.w
 800670c:	1c42      	adds	r2, r0, #1
 800670e:	4606      	mov	r6, r0
 8006710:	d1d6      	bne.n	80066c0 <_svfiprintf_r+0x174>
 8006712:	89ab      	ldrh	r3, [r5, #12]
 8006714:	065b      	lsls	r3, r3, #25
 8006716:	f53f af2d 	bmi.w	8006574 <_svfiprintf_r+0x28>
 800671a:	9809      	ldr	r0, [sp, #36]	@ 0x24
 800671c:	e72c      	b.n	8006578 <_svfiprintf_r+0x2c>
 800671e:	ab03      	add	r3, sp, #12
 8006720:	9300      	str	r3, [sp, #0]
 8006722:	462a      	mov	r2, r5
 8006724:	4638      	mov	r0, r7
 8006726:	4b06      	ldr	r3, [pc, #24]	@ (8006740 <_svfiprintf_r+0x1f4>)
 8006728:	a904      	add	r1, sp, #16
 800672a:	f000 f9bd 	bl	8006aa8 <_printf_i>
 800672e:	e7ed      	b.n	800670c <_svfiprintf_r+0x1c0>
 8006730:	0800836e 	.word	0x0800836e
 8006734:	08008374 	.word	0x08008374
 8006738:	08008378 	.word	0x08008378
 800673c:	00000000 	.word	0x00000000
 8006740:	08006495 	.word	0x08006495

08006744 <__sfputc_r>:
 8006744:	6893      	ldr	r3, [r2, #8]
 8006746:	b410      	push	{r4}
 8006748:	3b01      	subs	r3, #1
 800674a:	2b00      	cmp	r3, #0
 800674c:	6093      	str	r3, [r2, #8]
 800674e:	da07      	bge.n	8006760 <__sfputc_r+0x1c>
 8006750:	6994      	ldr	r4, [r2, #24]
 8006752:	42a3      	cmp	r3, r4
 8006754:	db01      	blt.n	800675a <__sfputc_r+0x16>
 8006756:	290a      	cmp	r1, #10
 8006758:	d102      	bne.n	8006760 <__sfputc_r+0x1c>
 800675a:	bc10      	pop	{r4}
 800675c:	f7ff bc85 	b.w	800606a <__swbuf_r>
 8006760:	6813      	ldr	r3, [r2, #0]
 8006762:	1c58      	adds	r0, r3, #1
 8006764:	6010      	str	r0, [r2, #0]
 8006766:	7019      	strb	r1, [r3, #0]
 8006768:	4608      	mov	r0, r1
 800676a:	bc10      	pop	{r4}
 800676c:	4770      	bx	lr

0800676e <__sfputs_r>:
 800676e:	b5f8      	push	{r3, r4, r5, r6, r7, lr}
 8006770:	4606      	mov	r6, r0
 8006772:	460f      	mov	r7, r1
 8006774:	4614      	mov	r4, r2
 8006776:	18d5      	adds	r5, r2, r3
 8006778:	42ac      	cmp	r4, r5
 800677a:	d101      	bne.n	8006780 <__sfputs_r+0x12>
 800677c:	2000      	movs	r0, #0
 800677e:	e007      	b.n	8006790 <__sfputs_r+0x22>
 8006780:	463a      	mov	r2, r7
 8006782:	4630      	mov	r0, r6
 8006784:	f814 1b01 	ldrb.w	r1, [r4], #1
 8006788:	f7ff ffdc 	bl	8006744 <__sfputc_r>
 800678c:	1c43      	adds	r3, r0, #1
 800678e:	d1f3      	bne.n	8006778 <__sfputs_r+0xa>
 8006790:	bdf8      	pop	{r3, r4, r5, r6, r7, pc}
	...

08006794 <_vfiprintf_r>:
 8006794:	e92d 4ff0 	stmdb	sp!, {r4, r5, r6, r7, r8, r9, sl, fp, lr}
 8006798:	460d      	mov	r5, r1
 800679a:	4614      	mov	r4, r2
 800679c:	4698      	mov	r8, r3
 800679e:	4606      	mov	r6, r0
 80067a0:	b09d      	sub	sp, #116	@ 0x74
 80067a2:	b118      	cbz	r0, 80067ac <_vfiprintf_r+0x18>
 80067a4:	6a03      	ldr	r3, [r0, #32]
 80067a6:	b90b      	cbnz	r3, 80067ac <_vfiprintf_r+0x18>
 80067a8:	f7ff fb54 	bl	8005e54 <__sinit>
 80067ac:	6e6b      	ldr	r3, [r5, #100]	@ 0x64
 80067ae:	07d9      	lsls	r1, r3, #31
 80067b0:	d405      	bmi.n	80067be <_vfiprintf_r+0x2a>
 80067b2:	89ab      	ldrh	r3, [r5, #12]
 80067b4:	059a      	lsls	r2, r3, #22
 80067b6:	d402      	bmi.n	80067be <_vfiprintf_r+0x2a>
 80067b8:	6da8      	ldr	r0, [r5, #88]	@ 0x58
 80067ba:	f7ff fd64 	bl	8006286 <__retarget_lock_acquire_recursive>
 80067be:	89ab      	ldrh	r3, [r5, #12]
 80067c0:	071b      	lsls	r3, r3, #28
 80067c2:	d501      	bpl.n	80067c8 <_vfiprintf_r+0x34>
 80067c4:	692b      	ldr	r3, [r5, #16]
 80067c6:	b99b      	cbnz	r3, 80067f0 <_vfiprintf_r+0x5c>
 80067c8:	4629      	mov	r1, r5
 80067ca:	4630      	mov	r0, r6
 80067cc:	f7ff fc8c 	bl	80060e8 <__swsetup_r>
 80067d0:	b170      	cbz	r0, 80067f0 <_vfiprintf_r+0x5c>
 80067d2:	6e6b      	ldr	r3, [r5, #100]	@ 0x64
 80067d4:	07dc      	lsls	r4, r3, #31
 80067d6:	d504      	bpl.n	80067e2 <_vfiprintf_r+0x4e>
 80067d8:	f04f 30ff 	mov.w	r0, #4294967295
 80067dc:	b01d      	add	sp, #116	@ 0x74
 80067de:	e8bd 8ff0 	ldmia.w	sp!, {r4, r5, r6, r7, r8, r9, sl, fp, pc}
 80067e2:	89ab      	ldrh	r3, [r5, #12]
 80067e4:	0598      	lsls	r0, r3, #22
 80067e6:	d4f7      	bmi.n	80067d8 <_vfiprintf_r+0x44>
 80067e8:	6da8      	ldr	r0, [r5, #88]	@ 0x58
 80067ea:	f7ff fd4d 	bl	8006288 <__retarget_lock_release_recursive>
 80067ee:	e7f3      	b.n	80067d8 <_vfiprintf_r+0x44>
 80067f0:	2300      	movs	r3, #0
 80067f2:	9309      	str	r3, [sp, #36]	@ 0x24
 80067f4:	2320      	movs	r3, #32
 80067f6:	f88d 3029 	strb.w	r3, [sp, #41]	@ 0x29
 80067fa:	2330      	movs	r3, #48	@ 0x30
 80067fc:	f04f 0901 	mov.w	r9, #1
 8006800:	f8cd 800c 	str.w	r8, [sp, #12]
 8006804:	f8df 81a8 	ldr.w	r8, [pc, #424]	@ 80069b0 <_vfiprintf_r+0x21c>
 8006808:	f88d 302a 	strb.w	r3, [sp, #42]	@ 0x2a
 800680c:	4623      	mov	r3, r4
 800680e:	469a      	mov	sl, r3
 8006810:	f813 2b01 	ldrb.w	r2, [r3], #1
 8006814:	b10a      	cbz	r2, 800681a <_vfiprintf_r+0x86>
 8006816:	2a25      	cmp	r2, #37	@ 0x25
 8006818:	d1f9      	bne.n	800680e <_vfiprintf_r+0x7a>
 800681a:	ebba 0b04 	subs.w	fp, sl, r4
 800681e:	d00b      	beq.n	8006838 <_vfiprintf_r+0xa4>
 8006820:	465b      	mov	r3, fp
 8006822:	4622      	mov	r2, r4
 8006824:	4629      	mov	r1, r5
 8006826:	4630      	mov	r0, r6
 8006828:	f7ff ffa1 	bl	800676e <__sfputs_r>
 800682c:	3001      	adds	r0, #1
 800682e:	f000 80a7 	beq.w	8006980 <_vfiprintf_r+0x1ec>
 8006832:	9a09      	ldr	r2, [sp, #36]	@ 0x24
 8006834:	445a      	add	r2, fp
 8006836:	9209      	str	r2, [sp, #36]	@ 0x24
 8006838:	f89a 3000 	ldrb.w	r3, [sl]
 800683c:	2b00      	cmp	r3, #0
 800683e:	f000 809f 	beq.w	8006980 <_vfiprintf_r+0x1ec>
 8006842:	2300      	movs	r3, #0
 8006844:	f04f 32ff 	mov.w	r2, #4294967295
 8006848:	e9cd 2305 	strd	r2, r3, [sp, #20]
 800684c:	f10a 0a01 	add.w	sl, sl, #1
 8006850:	9304      	str	r3, [sp, #16]
 8006852:	9307      	str	r3, [sp, #28]
 8006854:	f88d 3053 	strb.w	r3, [sp, #83]	@ 0x53
 8006858:	931a      	str	r3, [sp, #104]	@ 0x68
 800685a:	4654      	mov	r4, sl
 800685c:	2205      	movs	r2, #5
 800685e:	f814 1b01 	ldrb.w	r1, [r4], #1
 8006862:	4853      	ldr	r0, [pc, #332]	@ (80069b0 <_vfiprintf_r+0x21c>)
 8006864:	f000 fb94 	bl	8006f90 <memchr>
 8006868:	9a04      	ldr	r2, [sp, #16]
 800686a:	b9d8      	cbnz	r0, 80068a4 <_vfiprintf_r+0x110>
 800686c:	06d1      	lsls	r1, r2, #27
 800686e:	bf44      	itt	mi
 8006870:	2320      	movmi	r3, #32
 8006872:	f88d 3053 	strbmi.w	r3, [sp, #83]	@ 0x53
 8006876:	0713      	lsls	r3, r2, #28
 8006878:	bf44      	itt	mi
 800687a:	232b      	movmi	r3, #43	@ 0x2b
 800687c:	f88d 3053 	strbmi.w	r3, [sp, #83]	@ 0x53
 8006880:	f89a 3000 	ldrb.w	r3, [sl]
 8006884:	2b2a      	cmp	r3, #42	@ 0x2a
 8006886:	d015      	beq.n	80068b4 <_vfiprintf_r+0x120>
 8006888:	4654      	mov	r4, sl
 800688a:	2000      	movs	r0, #0
 800688c:	f04f 0c0a 	mov.w	ip, #10
 8006890:	9a07      	ldr	r2, [sp, #28]
 8006892:	4621      	mov	r1, r4
 8006894:	f811 3b01 	ldrb.w	r3, [r1], #1
 8006898:	3b30      	subs	r3, #48	@ 0x30
 800689a:	2b09      	cmp	r3, #9
 800689c:	d94b      	bls.n	8006936 <_vfiprintf_r+0x1a2>
 800689e:	b1b0      	cbz	r0, 80068ce <_vfiprintf_r+0x13a>
 80068a0:	9207      	str	r2, [sp, #28]
 80068a2:	e014      	b.n	80068ce <_vfiprintf_r+0x13a>
 80068a4:	eba0 0308 	sub.w	r3, r0, r8
 80068a8:	fa09 f303 	lsl.w	r3, r9, r3
 80068ac:	4313      	orrs	r3, r2
 80068ae:	46a2      	mov	sl, r4
 80068b0:	9304      	str	r3, [sp, #16]
 80068b2:	e7d2      	b.n	800685a <_vfiprintf_r+0xc6>
 80068b4:	9b03      	ldr	r3, [sp, #12]
 80068b6:	1d19      	adds	r1, r3, #4
 80068b8:	681b      	ldr	r3, [r3, #0]
 80068ba:	9103      	str	r1, [sp, #12]
 80068bc:	2b00      	cmp	r3, #0
 80068be:	bfbb      	ittet	lt
 80068c0:	425b      	neglt	r3, r3
 80068c2:	f042 0202 	orrlt.w	r2, r2, #2
 80068c6:	9307      	strge	r3, [sp, #28]
 80068c8:	9307      	strlt	r3, [sp, #28]
 80068ca:	bfb8      	it	lt
 80068cc:	9204      	strlt	r2, [sp, #16]
 80068ce:	7823      	ldrb	r3, [r4, #0]
 80068d0:	2b2e      	cmp	r3, #46	@ 0x2e
 80068d2:	d10a      	bne.n	80068ea <_vfiprintf_r+0x156>
 80068d4:	7863      	ldrb	r3, [r4, #1]
 80068d6:	2b2a      	cmp	r3, #42	@ 0x2a
 80068d8:	d132      	bne.n	8006940 <_vfiprintf_r+0x1ac>
 80068da:	9b03      	ldr	r3, [sp, #12]
 80068dc:	3402      	adds	r4, #2
 80068de:	1d1a      	adds	r2, r3, #4
 80068e0:	681b      	ldr	r3, [r3, #0]
 80068e2:	9203      	str	r2, [sp, #12]
 80068e4:	ea43 73e3 	orr.w	r3, r3, r3, asr #31
 80068e8:	9305      	str	r3, [sp, #20]
 80068ea:	f8df a0c8 	ldr.w	sl, [pc, #200]	@ 80069b4 <_vfiprintf_r+0x220>
 80068ee:	2203      	movs	r2, #3
 80068f0:	4650      	mov	r0, sl
 80068f2:	7821      	ldrb	r1, [r4, #0]
 80068f4:	f000 fb4c 	bl	8006f90 <memchr>
 80068f8:	b138      	cbz	r0, 800690a <_vfiprintf_r+0x176>
 80068fa:	2240      	movs	r2, #64	@ 0x40
 80068fc:	9b04      	ldr	r3, [sp, #16]
 80068fe:	eba0 000a 	sub.w	r0, r0, sl
 8006902:	4082      	lsls	r2, r0
 8006904:	4313      	orrs	r3, r2
 8006906:	3401      	adds	r4, #1
 8006908:	9304      	str	r3, [sp, #16]
 800690a:	f814 1b01 	ldrb.w	r1, [r4], #1
 800690e:	2206      	movs	r2, #6
 8006910:	4829      	ldr	r0, [pc, #164]	@ (80069b8 <_vfiprintf_r+0x224>)
 8006912:	f88d 1028 	strb.w	r1, [sp, #40]	@ 0x28
 8006916:	f000 fb3b 	bl	8006f90 <memchr>
 800691a:	2800      	cmp	r0, #0
 800691c:	d03f      	beq.n	800699e <_vfiprintf_r+0x20a>
 800691e:	4b27      	ldr	r3, [pc, #156]	@ (80069bc <_vfiprintf_r+0x228>)
 8006920:	bb1b      	cbnz	r3, 800696a <_vfiprintf_r+0x1d6>
 8006922:	9b03      	ldr	r3, [sp, #12]
 8006924:	3307      	adds	r3, #7
 8006926:	f023 0307 	bic.w	r3, r3, #7
 800692a:	3308      	adds	r3, #8
 800692c:	9303      	str	r3, [sp, #12]
 800692e:	9b09      	ldr	r3, [sp, #36]	@ 0x24
 8006930:	443b      	add	r3, r7
 8006932:	9309      	str	r3, [sp, #36]	@ 0x24
 8006934:	e76a      	b.n	800680c <_vfiprintf_r+0x78>
 8006936:	460c      	mov	r4, r1
 8006938:	2001      	movs	r0, #1
 800693a:	fb0c 3202 	mla	r2, ip, r2, r3
 800693e:	e7a8      	b.n	8006892 <_vfiprintf_r+0xfe>
 8006940:	2300      	movs	r3, #0
 8006942:	f04f 0c0a 	mov.w	ip, #10
 8006946:	4619      	mov	r1, r3
 8006948:	3401      	adds	r4, #1
 800694a:	9305      	str	r3, [sp, #20]
 800694c:	4620      	mov	r0, r4
 800694e:	f810 2b01 	ldrb.w	r2, [r0], #1
 8006952:	3a30      	subs	r2, #48	@ 0x30
 8006954:	2a09      	cmp	r2, #9
 8006956:	d903      	bls.n	8006960 <_vfiprintf_r+0x1cc>
 8006958:	2b00      	cmp	r3, #0
 800695a:	d0c6      	beq.n	80068ea <_vfiprintf_r+0x156>
 800695c:	9105      	str	r1, [sp, #20]
 800695e:	e7c4      	b.n	80068ea <_vfiprintf_r+0x156>
 8006960:	4604      	mov	r4, r0
 8006962:	2301      	movs	r3, #1
 8006964:	fb0c 2101 	mla	r1, ip, r1, r2
 8006968:	e7f0      	b.n	800694c <_vfiprintf_r+0x1b8>
 800696a:	ab03      	add	r3, sp, #12
 800696c:	9300      	str	r3, [sp, #0]
 800696e:	462a      	mov	r2, r5
 8006970:	4630      	mov	r0, r6
 8006972:	4b13      	ldr	r3, [pc, #76]	@ (80069c0 <_vfiprintf_r+0x22c>)
 8006974:	a904      	add	r1, sp, #16
 8006976:	f3af 8000 	nop.w
 800697a:	4607      	mov	r7, r0
 800697c:	1c78      	adds	r0, r7, #1
 800697e:	d1d6      	bne.n	800692e <_vfiprintf_r+0x19a>
 8006980:	6e6b      	ldr	r3, [r5, #100]	@ 0x64
 8006982:	07d9      	lsls	r1, r3, #31
 8006984:	d405      	bmi.n	8006992 <_vfiprintf_r+0x1fe>
 8006986:	89ab      	ldrh	r3, [r5, #12]
 8006988:	059a      	lsls	r2, r3, #22
 800698a:	d402      	bmi.n	8006992 <_vfiprintf_r+0x1fe>
 800698c:	6da8      	ldr	r0, [r5, #88]	@ 0x58
 800698e:	f7ff fc7b 	bl	8006288 <__retarget_lock_release_recursive>
 8006992:	89ab      	ldrh	r3, [r5, #12]
 8006994:	065b      	lsls	r3, r3, #25
 8006996:	f53f af1f 	bmi.w	80067d8 <_vfiprintf_r+0x44>
 800699a:	9809      	ldr	r0, [sp, #36]	@ 0x24
 800699c:	e71e      	b.n	80067dc <_vfiprintf_r+0x48>
 800699e:	ab03      	add	r3, sp, #12
 80069a0:	9300      	str	r3, [sp, #0]
 80069a2:	462a      	mov	r2, r5
 80069a4:	4630      	mov	r0, r6
 80069a6:	4b06      	ldr	r3, [pc, #24]	@ (80069c0 <_vfiprintf_r+0x22c>)
 80069a8:	a904      	add	r1, sp, #16
 80069aa:	f000 f87d 	bl	8006aa8 <_printf_i>
 80069ae:	e7e4      	b.n	800697a <_vfiprintf_r+0x1e6>
 80069b0:	0800836e 	.word	0x0800836e
 80069b4:	08008374 	.word	0x08008374
 80069b8:	08008378 	.word	0x08008378
 80069bc:	00000000 	.word	0x00000000
 80069c0:	0800676f 	.word	0x0800676f

080069c4 <_printf_common>:
 80069c4:	e92d 47f0 	stmdb	sp!, {r4, r5, r6, r7, r8, r9, sl, lr}
 80069c8:	4616      	mov	r6, r2
 80069ca:	4698      	mov	r8, r3
 80069cc:	688a      	ldr	r2, [r1, #8]
 80069ce:	690b      	ldr	r3, [r1, #16]
 80069d0:	4607      	mov	r7, r0
 80069d2:	4293      	cmp	r3, r2
 80069d4:	bfb8      	it	lt
 80069d6:	4613      	movlt	r3, r2
 80069d8:	6033      	str	r3, [r6, #0]
 80069da:	f891 2043 	ldrb.w	r2, [r1, #67]	@ 0x43
 80069de:	460c      	mov	r4, r1
 80069e0:	f8dd 9020 	ldr.w	r9, [sp, #32]
 80069e4:	b10a      	cbz	r2, 80069ea <_printf_common+0x26>
 80069e6:	3301      	adds	r3, #1
 80069e8:	6033      	str	r3, [r6, #0]
 80069ea:	6823      	ldr	r3, [r4, #0]
 80069ec:	0699      	lsls	r1, r3, #26
 80069ee:	bf42      	ittt	mi
 80069f0:	6833      	ldrmi	r3, [r6, #0]
 80069f2:	3302      	addmi	r3, #2
 80069f4:	6033      	strmi	r3, [r6, #0]
 80069f6:	6825      	ldr	r5, [r4, #0]
 80069f8:	f015 0506 	ands.w	r5, r5, #6
 80069fc:	d106      	bne.n	8006a0c <_printf_common+0x48>
 80069fe:	f104 0a19 	add.w	sl, r4, #25
 8006a02:	68e3      	ldr	r3, [r4, #12]
 8006a04:	6832      	ldr	r2, [r6, #0]
 8006a06:	1a9b      	subs	r3, r3, r2
 8006a08:	42ab      	cmp	r3, r5
 8006a0a:	dc2b      	bgt.n	8006a64 <_printf_common+0xa0>
 8006a0c:	f894 3043 	ldrb.w	r3, [r4, #67]	@ 0x43
 8006a10:	6822      	ldr	r2, [r4, #0]
 8006a12:	3b00      	subs	r3, #0
 8006a14:	bf18      	it	ne
 8006a16:	2301      	movne	r3, #1
 8006a18:	0692      	lsls	r2, r2, #26
 8006a1a:	d430      	bmi.n	8006a7e <_printf_common+0xba>
 8006a1c:	4641      	mov	r1, r8
 8006a1e:	4638      	mov	r0, r7
 8006a20:	f104 0243 	add.w	r2, r4, #67	@ 0x43
 8006a24:	47c8      	blx	r9
 8006a26:	3001      	adds	r0, #1
 8006a28:	d023      	beq.n	8006a72 <_printf_common+0xae>
 8006a2a:	6823      	ldr	r3, [r4, #0]
 8006a2c:	6922      	ldr	r2, [r4, #16]
 8006a2e:	f003 0306 	and.w	r3, r3, #6
 8006a32:	2b04      	cmp	r3, #4
 8006a34:	bf14      	ite	ne
 8006a36:	2500      	movne	r5, #0
 8006a38:	6833      	ldreq	r3, [r6, #0]
 8006a3a:	f04f 0600 	mov.w	r6, #0
 8006a3e:	bf08      	it	eq
 8006a40:	68e5      	ldreq	r5, [r4, #12]
 8006a42:	f104 041a 	add.w	r4, r4, #26
 8006a46:	bf08      	it	eq
 8006a48:	1aed      	subeq	r5, r5, r3
 8006a4a:	f854 3c12 	ldr.w	r3, [r4, #-18]
 8006a4e:	bf08      	it	eq
 8006a50:	ea25 75e5 	biceq.w	r5, r5, r5, asr #31
 8006a54:	4293      	cmp	r3, r2
 8006a56:	bfc4      	itt	gt
 8006a58:	1a9b      	subgt	r3, r3, r2
 8006a5a:	18ed      	addgt	r5, r5, r3
 8006a5c:	42b5      	cmp	r5, r6
 8006a5e:	d11a      	bne.n	8006a96 <_printf_common+0xd2>
 8006a60:	2000      	movs	r0, #0
 8006a62:	e008      	b.n	8006a76 <_printf_common+0xb2>
 8006a64:	2301      	movs	r3, #1
 8006a66:	4652      	mov	r2, sl
 8006a68:	4641      	mov	r1, r8
 8006a6a:	4638      	mov	r0, r7
 8006a6c:	47c8      	blx	r9
 8006a6e:	3001      	adds	r0, #1
 8006a70:	d103      	bne.n	8006a7a <_printf_common+0xb6>
 8006a72:	f04f 30ff 	mov.w	r0, #4294967295
 8006a76:	e8bd 87f0 	ldmia.w	sp!, {r4, r5, r6, r7, r8, r9, sl, pc}
 8006a7a:	3501      	adds	r5, #1
 8006a7c:	e7c1      	b.n	8006a02 <_printf_common+0x3e>
 8006a7e:	2030      	movs	r0, #48	@ 0x30
 8006a80:	18e1      	adds	r1, r4, r3
 8006a82:	f881 0043 	strb.w	r0, [r1, #67]	@ 0x43
 8006a86:	1c5a      	adds	r2, r3, #1
 8006a88:	f894 1045 	ldrb.w	r1, [r4, #69]	@ 0x45
 8006a8c:	4422      	add	r2, r4
 8006a8e:	3302      	adds	r3, #2
 8006a90:	f882 1043 	strb.w	r1, [r2, #67]	@ 0x43
 8006a94:	e7c2      	b.n	8006a1c <_printf_common+0x58>
 8006a96:	2301      	movs	r3, #1
 8006a98:	4622      	mov	r2, r4
 8006a9a:	4641      	mov	r1, r8
 8006a9c:	4638      	mov	r0, r7
 8006a9e:	47c8      	blx	r9
 8006aa0:	3001      	adds	r0, #1
 8006aa2:	d0e6      	beq.n	8006a72 <_printf_common+0xae>
 8006aa4:	3601      	adds	r6, #1
 8006aa6:	e7d9      	b.n	8006a5c <_printf_common+0x98>

08006aa8 <_printf_i>:
 8006aa8:	e92d 47ff 	stmdb	sp!, {r0, r1, r2, r3, r4, r5, r6, r7, r8, r9, sl, lr}
 8006aac:	7e0f      	ldrb	r7, [r1, #24]
 8006aae:	4691      	mov	r9, r2
 8006ab0:	2f78      	cmp	r7, #120	@ 0x78
 8006ab2:	4680      	mov	r8, r0
 8006ab4:	460c      	mov	r4, r1
 8006ab6:	469a      	mov	sl, r3
 8006ab8:	9e0c      	ldr	r6, [sp, #48]	@ 0x30
 8006aba:	f101 0243 	add.w	r2, r1, #67	@ 0x43
 8006abe:	d807      	bhi.n	8006ad0 <_printf_i+0x28>
 8006ac0:	2f62      	cmp	r7, #98	@ 0x62
 8006ac2:	d80a      	bhi.n	8006ada <_printf_i+0x32>
 8006ac4:	2f00      	cmp	r7, #0
 8006ac6:	f000 80d1 	beq.w	8006c6c <_printf_i+0x1c4>
 8006aca:	2f58      	cmp	r7, #88	@ 0x58
 8006acc:	f000 80b8 	beq.w	8006c40 <_printf_i+0x198>
 8006ad0:	f104 0642 	add.w	r6, r4, #66	@ 0x42
 8006ad4:	f884 7042 	strb.w	r7, [r4, #66]	@ 0x42
 8006ad8:	e03a      	b.n	8006b50 <_printf_i+0xa8>
 8006ada:	f1a7 0363 	sub.w	r3, r7, #99	@ 0x63
 8006ade:	2b15      	cmp	r3, #21
 8006ae0:	d8f6      	bhi.n	8006ad0 <_printf_i+0x28>
 8006ae2:	a101      	add	r1, pc, #4	@ (adr r1, 8006ae8 <_printf_i+0x40>)
 8006ae4:	f851 f023 	ldr.w	pc, [r1, r3, lsl #2]
 8006ae8:	08006b41 	.word	0x08006b41
 8006aec:	08006b55 	.word	0x08006b55
 8006af0:	08006ad1 	.word	0x08006ad1
 8006af4:	08006ad1 	.word	0x08006ad1
 8006af8:	08006ad1 	.word	0x08006ad1
 8006afc:	08006ad1 	.word	0x08006ad1
 8006b00:	08006b55 	.word	0x08006b55
 8006b04:	08006ad1 	.word	0x08006ad1
 8006b08:	08006ad1 	.word	0x08006ad1
 8006b0c:	08006ad1 	.word	0x08006ad1
 8006b10:	08006ad1 	.word	0x08006ad1
 8006b14:	08006c53 	.word	0x08006c53
 8006b18:	08006b7f 	.word	0x08006b7f
 8006b1c:	08006c0d 	.word	0x08006c0d
 8006b20:	08006ad1 	.word	0x08006ad1
 8006b24:	08006ad1 	.word	0x08006ad1
 8006b28:	08006c75 	.word	0x08006c75
 8006b2c:	08006ad1 	.word	0x08006ad1
 8006b30:	08006b7f 	.word	0x08006b7f
 8006b34:	08006ad1 	.word	0x08006ad1
 8006b38:	08006ad1 	.word	0x08006ad1
 8006b3c:	08006c15 	.word	0x08006c15
 8006b40:	6833      	ldr	r3, [r6, #0]
 8006b42:	1d1a      	adds	r2, r3, #4
 8006b44:	681b      	ldr	r3, [r3, #0]
 8006b46:	6032      	str	r2, [r6, #0]
 8006b48:	f104 0642 	add.w	r6, r4, #66	@ 0x42
 8006b4c:	f884 3042 	strb.w	r3, [r4, #66]	@ 0x42
 8006b50:	2301      	movs	r3, #1
 8006b52:	e09c      	b.n	8006c8e <_printf_i+0x1e6>
 8006b54:	6833      	ldr	r3, [r6, #0]
 8006b56:	6820      	ldr	r0, [r4, #0]
 8006b58:	1d19      	adds	r1, r3, #4
 8006b5a:	6031      	str	r1, [r6, #0]
 8006b5c:	0606      	lsls	r6, r0, #24
 8006b5e:	d501      	bpl.n	8006b64 <_printf_i+0xbc>
 8006b60:	681d      	ldr	r5, [r3, #0]
 8006b62:	e003      	b.n	8006b6c <_printf_i+0xc4>
 8006b64:	0645      	lsls	r5, r0, #25
 8006b66:	d5fb      	bpl.n	8006b60 <_printf_i+0xb8>
 8006b68:	f9b3 5000 	ldrsh.w	r5, [r3]
 8006b6c:	2d00      	cmp	r5, #0
 8006b6e:	da03      	bge.n	8006b78 <_printf_i+0xd0>
 8006b70:	232d      	movs	r3, #45	@ 0x2d
 8006b72:	426d      	negs	r5, r5
 8006b74:	f884 3043 	strb.w	r3, [r4, #67]	@ 0x43
 8006b78:	230a      	movs	r3, #10
 8006b7a:	4858      	ldr	r0, [pc, #352]	@ (8006cdc <_printf_i+0x234>)
 8006b7c:	e011      	b.n	8006ba2 <_printf_i+0xfa>
 8006b7e:	6821      	ldr	r1, [r4, #0]
 8006b80:	6833      	ldr	r3, [r6, #0]
 8006b82:	0608      	lsls	r0, r1, #24
 8006b84:	f853 5b04 	ldr.w	r5, [r3], #4
 8006b88:	d402      	bmi.n	8006b90 <_printf_i+0xe8>
 8006b8a:	0649      	lsls	r1, r1, #25
 8006b8c:	bf48      	it	mi
 8006b8e:	b2ad      	uxthmi	r5, r5
 8006b90:	2f6f      	cmp	r7, #111	@ 0x6f
 8006b92:	6033      	str	r3, [r6, #0]
 8006b94:	bf14      	ite	ne
 8006b96:	230a      	movne	r3, #10
 8006b98:	2308      	moveq	r3, #8
 8006b9a:	4850      	ldr	r0, [pc, #320]	@ (8006cdc <_printf_i+0x234>)
 8006b9c:	2100      	movs	r1, #0
 8006b9e:	f884 1043 	strb.w	r1, [r4, #67]	@ 0x43
 8006ba2:	6866      	ldr	r6, [r4, #4]
 8006ba4:	2e00      	cmp	r6, #0
 8006ba6:	60a6      	str	r6, [r4, #8]
 8006ba8:	db05      	blt.n	8006bb6 <_printf_i+0x10e>
 8006baa:	6821      	ldr	r1, [r4, #0]
 8006bac:	432e      	orrs	r6, r5
 8006bae:	f021 0104 	bic.w	r1, r1, #4
 8006bb2:	6021      	str	r1, [r4, #0]
 8006bb4:	d04b      	beq.n	8006c4e <_printf_i+0x1a6>
 8006bb6:	4616      	mov	r6, r2
 8006bb8:	fbb5 f1f3 	udiv	r1, r5, r3
 8006bbc:	fb03 5711 	mls	r7, r3, r1, r5
 8006bc0:	5dc7      	ldrb	r7, [r0, r7]
 8006bc2:	f806 7d01 	strb.w	r7, [r6, #-1]!
 8006bc6:	462f      	mov	r7, r5
 8006bc8:	42bb      	cmp	r3, r7
 8006bca:	460d      	mov	r5, r1
 8006bcc:	d9f4      	bls.n	8006bb8 <_printf_i+0x110>
 8006bce:	2b08      	cmp	r3, #8
 8006bd0:	d10b      	bne.n	8006bea <_printf_i+0x142>
 8006bd2:	6823      	ldr	r3, [r4, #0]
 8006bd4:	07df      	lsls	r7, r3, #31
 8006bd6:	d508      	bpl.n	8006bea <_printf_i+0x142>
 8006bd8:	6923      	ldr	r3, [r4, #16]
 8006bda:	6861      	ldr	r1, [r4, #4]
 8006bdc:	4299      	cmp	r1, r3
 8006bde:	bfde      	ittt	le
 8006be0:	2330      	movle	r3, #48	@ 0x30
 8006be2:	f806 3c01 	strble.w	r3, [r6, #-1]
 8006be6:	f106 36ff 	addle.w	r6, r6, #4294967295
 8006bea:	1b92      	subs	r2, r2, r6
 8006bec:	6122      	str	r2, [r4, #16]
 8006bee:	464b      	mov	r3, r9
 8006bf0:	4621      	mov	r1, r4
 8006bf2:	4640      	mov	r0, r8
 8006bf4:	f8cd a000 	str.w	sl, [sp]
 8006bf8:	aa03      	add	r2, sp, #12
 8006bfa:	f7ff fee3 	bl	80069c4 <_printf_common>
 8006bfe:	3001      	adds	r0, #1
 8006c00:	d14a      	bne.n	8006c98 <_printf_i+0x1f0>
 8006c02:	f04f 30ff 	mov.w	r0, #4294967295
 8006c06:	b004      	add	sp, #16
 8006c08:	e8bd 87f0 	ldmia.w	sp!, {r4, r5, r6, r7, r8, r9, sl, pc}
 8006c0c:	6823      	ldr	r3, [r4, #0]
 8006c0e:	f043 0320 	orr.w	r3, r3, #32
 8006c12:	6023      	str	r3, [r4, #0]
 8006c14:	2778      	movs	r7, #120	@ 0x78
 8006c16:	4832      	ldr	r0, [pc, #200]	@ (8006ce0 <_printf_i+0x238>)
 8006c18:	f884 7045 	strb.w	r7, [r4, #69]	@ 0x45
 8006c1c:	6823      	ldr	r3, [r4, #0]
 8006c1e:	6831      	ldr	r1, [r6, #0]
 8006c20:	061f      	lsls	r7, r3, #24
 8006c22:	f851 5b04 	ldr.w	r5, [r1], #4
 8006c26:	d402      	bmi.n	8006c2e <_printf_i+0x186>
 8006c28:	065f      	lsls	r7, r3, #25
 8006c2a:	bf48      	it	mi
 8006c2c:	b2ad      	uxthmi	r5, r5
 8006c2e:	6031      	str	r1, [r6, #0]
 8006c30:	07d9      	lsls	r1, r3, #31
 8006c32:	bf44      	itt	mi
 8006c34:	f043 0320 	orrmi.w	r3, r3, #32
 8006c38:	6023      	strmi	r3, [r4, #0]
 8006c3a:	b11d      	cbz	r5, 8006c44 <_printf_i+0x19c>
 8006c3c:	2310      	movs	r3, #16
 8006c3e:	e7ad      	b.n	8006b9c <_printf_i+0xf4>
 8006c40:	4826      	ldr	r0, [pc, #152]	@ (8006cdc <_printf_i+0x234>)
 8006c42:	e7e9      	b.n	8006c18 <_printf_i+0x170>
 8006c44:	6823      	ldr	r3, [r4, #0]
 8006c46:	f023 0320 	bic.w	r3, r3, #32
 8006c4a:	6023      	str	r3, [r4, #0]
 8006c4c:	e7f6      	b.n	8006c3c <_printf_i+0x194>
 8006c4e:	4616      	mov	r6, r2
 8006c50:	e7bd      	b.n	8006bce <_printf_i+0x126>
 8006c52:	6833      	ldr	r3, [r6, #0]
 8006c54:	6825      	ldr	r5, [r4, #0]
 8006c56:	1d18      	adds	r0, r3, #4
 8006c58:	6961      	ldr	r1, [r4, #20]
 8006c5a:	6030      	str	r0, [r6, #0]
 8006c5c:	062e      	lsls	r6, r5, #24
 8006c5e:	681b      	ldr	r3, [r3, #0]
 8006c60:	d501      	bpl.n	8006c66 <_printf_i+0x1be>
 8006c62:	6019      	str	r1, [r3, #0]
 8006c64:	e002      	b.n	8006c6c <_printf_i+0x1c4>
 8006c66:	0668      	lsls	r0, r5, #25
 8006c68:	d5fb      	bpl.n	8006c62 <_printf_i+0x1ba>
 8006c6a:	8019      	strh	r1, [r3, #0]
 8006c6c:	2300      	movs	r3, #0
 8006c6e:	4616      	mov	r6, r2
 8006c70:	6123      	str	r3, [r4, #16]
 8006c72:	e7bc      	b.n	8006bee <_printf_i+0x146>
 8006c74:	6833      	ldr	r3, [r6, #0]
 8006c76:	2100      	movs	r1, #0
 8006c78:	1d1a      	adds	r2, r3, #4
 8006c7a:	6032      	str	r2, [r6, #0]
 8006c7c:	681e      	ldr	r6, [r3, #0]
 8006c7e:	6862      	ldr	r2, [r4, #4]
 8006c80:	4630      	mov	r0, r6
 8006c82:	f000 f985 	bl	8006f90 <memchr>
 8006c86:	b108      	cbz	r0, 8006c8c <_printf_i+0x1e4>
 8006c88:	1b80      	subs	r0, r0, r6
 8006c8a:	6060      	str	r0, [r4, #4]
 8006c8c:	6863      	ldr	r3, [r4, #4]
 8006c8e:	6123      	str	r3, [r4, #16]
 8006c90:	2300      	movs	r3, #0
 8006c92:	f884 3043 	strb.w	r3, [r4, #67]	@ 0x43
 8006c96:	e7aa      	b.n	8006bee <_printf_i+0x146>
 8006c98:	4632      	mov	r2, r6
 8006c9a:	4649      	mov	r1, r9
 8006c9c:	4640      	mov	r0, r8
 8006c9e:	6923      	ldr	r3, [r4, #16]
 8006ca0:	47d0      	blx	sl
 8006ca2:	3001      	adds	r0, #1
 8006ca4:	d0ad      	beq.n	8006c02 <_printf_i+0x15a>
 8006ca6:	6823      	ldr	r3, [r4, #0]
 8006ca8:	079b      	lsls	r3, r3, #30
 8006caa:	d413      	bmi.n	8006cd4 <_printf_i+0x22c>
 8006cac:	68e0      	ldr	r0, [r4, #12]
 8006cae:	9b03      	ldr	r3, [sp, #12]
 8006cb0:	4298      	cmp	r0, r3
 8006cb2:	bfb8      	it	lt
 8006cb4:	4618      	movlt	r0, r3
 8006cb6:	e7a6      	b.n	8006c06 <_printf_i+0x15e>
 8006cb8:	2301      	movs	r3, #1
 8006cba:	4632      	mov	r2, r6
 8006cbc:	4649      	mov	r1, r9
 8006cbe:	4640      	mov	r0, r8
 8006cc0:	47d0      	blx	sl
 8006cc2:	3001      	adds	r0, #1
 8006cc4:	d09d      	beq.n	8006c02 <_printf_i+0x15a>
 8006cc6:	3501      	adds	r5, #1
 8006cc8:	68e3      	ldr	r3, [r4, #12]
 8006cca:	9903      	ldr	r1, [sp, #12]
 8006ccc:	1a5b      	subs	r3, r3, r1
 8006cce:	42ab      	cmp	r3, r5
 8006cd0:	dcf2      	bgt.n	8006cb8 <_printf_i+0x210>
 8006cd2:	e7eb      	b.n	8006cac <_printf_i+0x204>
 8006cd4:	2500      	movs	r5, #0
 8006cd6:	f104 0619 	add.w	r6, r4, #25
 8006cda:	e7f5      	b.n	8006cc8 <_printf_i+0x220>
 8006cdc:	0800837f 	.word	0x0800837f
 8006ce0:	08008390 	.word	0x08008390

08006ce4 <__sflush_r>:
 8006ce4:	f9b1 200c 	ldrsh.w	r2, [r1, #12]
 8006ce8:	b5f8      	push	{r3, r4, r5, r6, r7, lr}
 8006cea:	0716      	lsls	r6, r2, #28
 8006cec:	4605      	mov	r5, r0
 8006cee:	460c      	mov	r4, r1
 8006cf0:	d454      	bmi.n	8006d9c <__sflush_r+0xb8>
 8006cf2:	684b      	ldr	r3, [r1, #4]
 8006cf4:	2b00      	cmp	r3, #0
 8006cf6:	dc02      	bgt.n	8006cfe <__sflush_r+0x1a>
 8006cf8:	6c0b      	ldr	r3, [r1, #64]	@ 0x40
 8006cfa:	2b00      	cmp	r3, #0
 8006cfc:	dd48      	ble.n	8006d90 <__sflush_r+0xac>
 8006cfe:	6ae6      	ldr	r6, [r4, #44]	@ 0x2c
 8006d00:	2e00      	cmp	r6, #0
 8006d02:	d045      	beq.n	8006d90 <__sflush_r+0xac>
 8006d04:	2300      	movs	r3, #0
 8006d06:	f412 5280 	ands.w	r2, r2, #4096	@ 0x1000
 8006d0a:	682f      	ldr	r7, [r5, #0]
 8006d0c:	6a21      	ldr	r1, [r4, #32]
 8006d0e:	602b      	str	r3, [r5, #0]
 8006d10:	d030      	beq.n	8006d74 <__sflush_r+0x90>
 8006d12:	6d62      	ldr	r2, [r4, #84]	@ 0x54
 8006d14:	89a3      	ldrh	r3, [r4, #12]
 8006d16:	0759      	lsls	r1, r3, #29
 8006d18:	d505      	bpl.n	8006d26 <__sflush_r+0x42>
 8006d1a:	6863      	ldr	r3, [r4, #4]
 8006d1c:	1ad2      	subs	r2, r2, r3
 8006d1e:	6b63      	ldr	r3, [r4, #52]	@ 0x34
 8006d20:	b10b      	cbz	r3, 8006d26 <__sflush_r+0x42>
 8006d22:	6c23      	ldr	r3, [r4, #64]	@ 0x40
 8006d24:	1ad2      	subs	r2, r2, r3
 8006d26:	2300      	movs	r3, #0
 8006d28:	4628      	mov	r0, r5
 8006d2a:	6ae6      	ldr	r6, [r4, #44]	@ 0x2c
 8006d2c:	6a21      	ldr	r1, [r4, #32]
 8006d2e:	47b0      	blx	r6
 8006d30:	1c43      	adds	r3, r0, #1
 8006d32:	89a3      	ldrh	r3, [r4, #12]
 8006d34:	d106      	bne.n	8006d44 <__sflush_r+0x60>
 8006d36:	6829      	ldr	r1, [r5, #0]
 8006d38:	291d      	cmp	r1, #29
 8006d3a:	d82b      	bhi.n	8006d94 <__sflush_r+0xb0>
 8006d3c:	4a28      	ldr	r2, [pc, #160]	@ (8006de0 <__sflush_r+0xfc>)
 8006d3e:	40ca      	lsrs	r2, r1
 8006d40:	07d6      	lsls	r6, r2, #31
 8006d42:	d527      	bpl.n	8006d94 <__sflush_r+0xb0>
 8006d44:	2200      	movs	r2, #0
 8006d46:	6062      	str	r2, [r4, #4]
 8006d48:	6922      	ldr	r2, [r4, #16]
 8006d4a:	04d9      	lsls	r1, r3, #19
 8006d4c:	6022      	str	r2, [r4, #0]
 8006d4e:	d504      	bpl.n	8006d5a <__sflush_r+0x76>
 8006d50:	1c42      	adds	r2, r0, #1
 8006d52:	d101      	bne.n	8006d58 <__sflush_r+0x74>
 8006d54:	682b      	ldr	r3, [r5, #0]
 8006d56:	b903      	cbnz	r3, 8006d5a <__sflush_r+0x76>
 8006d58:	6560      	str	r0, [r4, #84]	@ 0x54
 8006d5a:	6b61      	ldr	r1, [r4, #52]	@ 0x34
 8006d5c:	602f      	str	r7, [r5, #0]
 8006d5e:	b1b9      	cbz	r1, 8006d90 <__sflush_r+0xac>
 8006d60:	f104 0344 	add.w	r3, r4, #68	@ 0x44
 8006d64:	4299      	cmp	r1, r3
 8006d66:	d002      	beq.n	8006d6e <__sflush_r+0x8a>
 8006d68:	4628      	mov	r0, r5
 8006d6a:	f7ff fa9d 	bl	80062a8 <_free_r>
 8006d6e:	2300      	movs	r3, #0
 8006d70:	6363      	str	r3, [r4, #52]	@ 0x34
 8006d72:	e00d      	b.n	8006d90 <__sflush_r+0xac>
 8006d74:	2301      	movs	r3, #1
 8006d76:	4628      	mov	r0, r5
 8006d78:	47b0      	blx	r6
 8006d7a:	4602      	mov	r2, r0
 8006d7c:	1c50      	adds	r0, r2, #1
 8006d7e:	d1c9      	bne.n	8006d14 <__sflush_r+0x30>
 8006d80:	682b      	ldr	r3, [r5, #0]
 8006d82:	2b00      	cmp	r3, #0
 8006d84:	d0c6      	beq.n	8006d14 <__sflush_r+0x30>
 8006d86:	2b1d      	cmp	r3, #29
 8006d88:	d001      	beq.n	8006d8e <__sflush_r+0xaa>
 8006d8a:	2b16      	cmp	r3, #22
 8006d8c:	d11d      	bne.n	8006dca <__sflush_r+0xe6>
 8006d8e:	602f      	str	r7, [r5, #0]
 8006d90:	2000      	movs	r0, #0
 8006d92:	e021      	b.n	8006dd8 <__sflush_r+0xf4>
 8006d94:	f043 0340 	orr.w	r3, r3, #64	@ 0x40
 8006d98:	b21b      	sxth	r3, r3
 8006d9a:	e01a      	b.n	8006dd2 <__sflush_r+0xee>
 8006d9c:	690f      	ldr	r7, [r1, #16]
 8006d9e:	2f00      	cmp	r7, #0
 8006da0:	d0f6      	beq.n	8006d90 <__sflush_r+0xac>
 8006da2:	0793      	lsls	r3, r2, #30
 8006da4:	bf18      	it	ne
 8006da6:	2300      	movne	r3, #0
 8006da8:	680e      	ldr	r6, [r1, #0]
 8006daa:	bf08      	it	eq
 8006dac:	694b      	ldreq	r3, [r1, #20]
 8006dae:	1bf6      	subs	r6, r6, r7
 8006db0:	600f      	str	r7, [r1, #0]
 8006db2:	608b      	str	r3, [r1, #8]
 8006db4:	2e00      	cmp	r6, #0
 8006db6:	ddeb      	ble.n	8006d90 <__sflush_r+0xac>
 8006db8:	4633      	mov	r3, r6
 8006dba:	463a      	mov	r2, r7
 8006dbc:	4628      	mov	r0, r5
 8006dbe:	6a21      	ldr	r1, [r4, #32]
 8006dc0:	f8d4 c028 	ldr.w	ip, [r4, #40]	@ 0x28
 8006dc4:	47e0      	blx	ip
 8006dc6:	2800      	cmp	r0, #0
 8006dc8:	dc07      	bgt.n	8006dda <__sflush_r+0xf6>
 8006dca:	f9b4 300c 	ldrsh.w	r3, [r4, #12]
 8006dce:	f043 0340 	orr.w	r3, r3, #64	@ 0x40
 8006dd2:	f04f 30ff 	mov.w	r0, #4294967295
 8006dd6:	81a3      	strh	r3, [r4, #12]
 8006dd8:	bdf8      	pop	{r3, r4, r5, r6, r7, pc}
 8006dda:	4407      	add	r7, r0
 8006ddc:	1a36      	subs	r6, r6, r0
 8006dde:	e7e9      	b.n	8006db4 <__sflush_r+0xd0>
 8006de0:	20400001 	.word	0x20400001

08006de4 <_fflush_r>:
 8006de4:	b538      	push	{r3, r4, r5, lr}
 8006de6:	690b      	ldr	r3, [r1, #16]
 8006de8:	4605      	mov	r5, r0
 8006dea:	460c      	mov	r4, r1
 8006dec:	b913      	cbnz	r3, 8006df4 <_fflush_r+0x10>
 8006dee:	2500      	movs	r5, #0
 8006df0:	4628      	mov	r0, r5
 8006df2:	bd38      	pop	{r3, r4, r5, pc}
 8006df4:	b118      	cbz	r0, 8006dfe <_fflush_r+0x1a>
 8006df6:	6a03      	ldr	r3, [r0, #32]
 8006df8:	b90b      	cbnz	r3, 8006dfe <_fflush_r+0x1a>
 8006dfa:	f7ff f82b 	bl	8005e54 <__sinit>
 8006dfe:	f9b4 300c 	ldrsh.w	r3, [r4, #12]
 8006e02:	2b00      	cmp	r3, #0
 8006e04:	d0f3      	beq.n	8006dee <_fflush_r+0xa>
 8006e06:	6e62      	ldr	r2, [r4, #100]	@ 0x64
 8006e08:	07d0      	lsls	r0, r2, #31
 8006e0a:	d404      	bmi.n	8006e16 <_fflush_r+0x32>
 8006e0c:	0599      	lsls	r1, r3, #22
 8006e0e:	d402      	bmi.n	8006e16 <_fflush_r+0x32>
 8006e10:	6da0      	ldr	r0, [r4, #88]	@ 0x58
 8006e12:	f7ff fa38 	bl	8006286 <__retarget_lock_acquire_recursive>
 8006e16:	4628      	mov	r0, r5
 8006e18:	4621      	mov	r1, r4
 8006e1a:	f7ff ff63 	bl	8006ce4 <__sflush_r>
 8006e1e:	6e63      	ldr	r3, [r4, #100]	@ 0x64
 8006e20:	4605      	mov	r5, r0
 8006e22:	07da      	lsls	r2, r3, #31
 8006e24:	d4e4      	bmi.n	8006df0 <_fflush_r+0xc>
 8006e26:	89a3      	ldrh	r3, [r4, #12]
 8006e28:	059b      	lsls	r3, r3, #22
 8006e2a:	d4e1      	bmi.n	8006df0 <_fflush_r+0xc>
 8006e2c:	6da0      	ldr	r0, [r4, #88]	@ 0x58
 8006e2e:	f7ff fa2b 	bl	8006288 <__retarget_lock_release_recursive>
 8006e32:	e7dd      	b.n	8006df0 <_fflush_r+0xc>

08006e34 <__swhatbuf_r>:
 8006e34:	b570      	push	{r4, r5, r6, lr}
 8006e36:	460c      	mov	r4, r1
 8006e38:	f9b1 100e 	ldrsh.w	r1, [r1, #14]
 8006e3c:	4615      	mov	r5, r2
 8006e3e:	2900      	cmp	r1, #0
 8006e40:	461e      	mov	r6, r3
 8006e42:	b096      	sub	sp, #88	@ 0x58
 8006e44:	da0c      	bge.n	8006e60 <__swhatbuf_r+0x2c>
 8006e46:	89a3      	ldrh	r3, [r4, #12]
 8006e48:	2100      	movs	r1, #0
 8006e4a:	f013 0f80 	tst.w	r3, #128	@ 0x80
 8006e4e:	bf14      	ite	ne
 8006e50:	2340      	movne	r3, #64	@ 0x40
 8006e52:	f44f 6380 	moveq.w	r3, #1024	@ 0x400
 8006e56:	2000      	movs	r0, #0
 8006e58:	6031      	str	r1, [r6, #0]
 8006e5a:	602b      	str	r3, [r5, #0]
 8006e5c:	b016      	add	sp, #88	@ 0x58
 8006e5e:	bd70      	pop	{r4, r5, r6, pc}
 8006e60:	466a      	mov	r2, sp
 8006e62:	f000 f863 	bl	8006f2c <_fstat_r>
 8006e66:	2800      	cmp	r0, #0
 8006e68:	dbed      	blt.n	8006e46 <__swhatbuf_r+0x12>
 8006e6a:	9901      	ldr	r1, [sp, #4]
 8006e6c:	f401 4170 	and.w	r1, r1, #61440	@ 0xf000
 8006e70:	f5a1 5300 	sub.w	r3, r1, #8192	@ 0x2000
 8006e74:	4259      	negs	r1, r3
 8006e76:	4159      	adcs	r1, r3
 8006e78:	f44f 6380 	mov.w	r3, #1024	@ 0x400
 8006e7c:	e7eb      	b.n	8006e56 <__swhatbuf_r+0x22>

08006e7e <__smakebuf_r>:
 8006e7e:	898b      	ldrh	r3, [r1, #12]
 8006e80:	b5f7      	push	{r0, r1, r2, r4, r5, r6, r7, lr}
 8006e82:	079d      	lsls	r5, r3, #30
 8006e84:	4606      	mov	r6, r0
 8006e86:	460c      	mov	r4, r1
 8006e88:	d507      	bpl.n	8006e9a <__smakebuf_r+0x1c>
 8006e8a:	f104 0347 	add.w	r3, r4, #71	@ 0x47
 8006e8e:	6023      	str	r3, [r4, #0]
 8006e90:	6123      	str	r3, [r4, #16]
 8006e92:	2301      	movs	r3, #1
 8006e94:	6163      	str	r3, [r4, #20]
 8006e96:	b003      	add	sp, #12
 8006e98:	bdf0      	pop	{r4, r5, r6, r7, pc}
 8006e9a:	466a      	mov	r2, sp
 8006e9c:	ab01      	add	r3, sp, #4
 8006e9e:	f7ff ffc9 	bl	8006e34 <__swhatbuf_r>
 8006ea2:	9f00      	ldr	r7, [sp, #0]
 8006ea4:	4605      	mov	r5, r0
 8006ea6:	4639      	mov	r1, r7
 8006ea8:	4630      	mov	r0, r6
 8006eaa:	f7ff fa67 	bl	800637c <_malloc_r>
 8006eae:	b948      	cbnz	r0, 8006ec4 <__smakebuf_r+0x46>
 8006eb0:	f9b4 300c 	ldrsh.w	r3, [r4, #12]
 8006eb4:	059a      	lsls	r2, r3, #22
 8006eb6:	d4ee      	bmi.n	8006e96 <__smakebuf_r+0x18>
 8006eb8:	f023 0303 	bic.w	r3, r3, #3
 8006ebc:	f043 0302 	orr.w	r3, r3, #2
 8006ec0:	81a3      	strh	r3, [r4, #12]
 8006ec2:	e7e2      	b.n	8006e8a <__smakebuf_r+0xc>
 8006ec4:	89a3      	ldrh	r3, [r4, #12]
 8006ec6:	e9c4 0704 	strd	r0, r7, [r4, #16]
 8006eca:	f043 0380 	orr.w	r3, r3, #128	@ 0x80
 8006ece:	81a3      	strh	r3, [r4, #12]
 8006ed0:	9b01      	ldr	r3, [sp, #4]
 8006ed2:	6020      	str	r0, [r4, #0]
 8006ed4:	b15b      	cbz	r3, 8006eee <__smakebuf_r+0x70>
 8006ed6:	4630      	mov	r0, r6
 8006ed8:	f9b4 100e 	ldrsh.w	r1, [r4, #14]
 8006edc:	f000 f838 	bl	8006f50 <_isatty_r>
 8006ee0:	b128      	cbz	r0, 8006eee <__smakebuf_r+0x70>
 8006ee2:	89a3      	ldrh	r3, [r4, #12]
 8006ee4:	f023 0303 	bic.w	r3, r3, #3
 8006ee8:	f043 0301 	orr.w	r3, r3, #1
 8006eec:	81a3      	strh	r3, [r4, #12]
 8006eee:	89a3      	ldrh	r3, [r4, #12]
 8006ef0:	431d      	orrs	r5, r3
 8006ef2:	81a5      	strh	r5, [r4, #12]
 8006ef4:	e7cf      	b.n	8006e96 <__smakebuf_r+0x18>

08006ef6 <memmove>:
 8006ef6:	4288      	cmp	r0, r1
 8006ef8:	b510      	push	{r4, lr}
 8006efa:	eb01 0402 	add.w	r4, r1, r2
 8006efe:	d902      	bls.n	8006f06 <memmove+0x10>
 8006f00:	4284      	cmp	r4, r0
 8006f02:	4623      	mov	r3, r4
 8006f04:	d807      	bhi.n	8006f16 <memmove+0x20>
 8006f06:	1e43      	subs	r3, r0, #1
 8006f08:	42a1      	cmp	r1, r4
 8006f0a:	d008      	beq.n	8006f1e <memmove+0x28>
 8006f0c:	f811 2b01 	ldrb.w	r2, [r1], #1
 8006f10:	f803 2f01 	strb.w	r2, [r3, #1]!
 8006f14:	e7f8      	b.n	8006f08 <memmove+0x12>
 8006f16:	4601      	mov	r1, r0
 8006f18:	4402      	add	r2, r0
 8006f1a:	428a      	cmp	r2, r1
 8006f1c:	d100      	bne.n	8006f20 <memmove+0x2a>
 8006f1e:	bd10      	pop	{r4, pc}
 8006f20:	f813 4d01 	ldrb.w	r4, [r3, #-1]!
 8006f24:	f802 4d01 	strb.w	r4, [r2, #-1]!
 8006f28:	e7f7      	b.n	8006f1a <memmove+0x24>
	...

08006f2c <_fstat_r>:
 8006f2c:	b538      	push	{r3, r4, r5, lr}
 8006f2e:	2300      	movs	r3, #0
 8006f30:	4d06      	ldr	r5, [pc, #24]	@ (8006f4c <_fstat_r+0x20>)
 8006f32:	4604      	mov	r4, r0
 8006f34:	4608      	mov	r0, r1
 8006f36:	4611      	mov	r1, r2
 8006f38:	602b      	str	r3, [r5, #0]
 8006f3a:	f7fc f958 	bl	80031ee <_fstat>
 8006f3e:	1c43      	adds	r3, r0, #1
 8006f40:	d102      	bne.n	8006f48 <_fstat_r+0x1c>
 8006f42:	682b      	ldr	r3, [r5, #0]
 8006f44:	b103      	cbz	r3, 8006f48 <_fstat_r+0x1c>
 8006f46:	6023      	str	r3, [r4, #0]
 8006f48:	bd38      	pop	{r3, r4, r5, pc}
 8006f4a:	bf00      	nop
 8006f4c:	200009b4 	.word	0x200009b4

08006f50 <_isatty_r>:
 8006f50:	b538      	push	{r3, r4, r5, lr}
 8006f52:	2300      	movs	r3, #0
 8006f54:	4d05      	ldr	r5, [pc, #20]	@ (8006f6c <_isatty_r+0x1c>)
 8006f56:	4604      	mov	r4, r0
 8006f58:	4608      	mov	r0, r1
 8006f5a:	602b      	str	r3, [r5, #0]
 8006f5c:	f7fc f956 	bl	800320c <_isatty>
 8006f60:	1c43      	adds	r3, r0, #1
 8006f62:	d102      	bne.n	8006f6a <_isatty_r+0x1a>
 8006f64:	682b      	ldr	r3, [r5, #0]
 8006f66:	b103      	cbz	r3, 8006f6a <_isatty_r+0x1a>
 8006f68:	6023      	str	r3, [r4, #0]
 8006f6a:	bd38      	pop	{r3, r4, r5, pc}
 8006f6c:	200009b4 	.word	0x200009b4

08006f70 <_sbrk_r>:
 8006f70:	b538      	push	{r3, r4, r5, lr}
 8006f72:	2300      	movs	r3, #0
 8006f74:	4d05      	ldr	r5, [pc, #20]	@ (8006f8c <_sbrk_r+0x1c>)
 8006f76:	4604      	mov	r4, r0
 8006f78:	4608      	mov	r0, r1
 8006f7a:	602b      	str	r3, [r5, #0]
 8006f7c:	f7fc f95c 	bl	8003238 <_sbrk>
 8006f80:	1c43      	adds	r3, r0, #1
 8006f82:	d102      	bne.n	8006f8a <_sbrk_r+0x1a>
 8006f84:	682b      	ldr	r3, [r5, #0]
 8006f86:	b103      	cbz	r3, 8006f8a <_sbrk_r+0x1a>
 8006f88:	6023      	str	r3, [r4, #0]
 8006f8a:	bd38      	pop	{r3, r4, r5, pc}
 8006f8c:	200009b4 	.word	0x200009b4

08006f90 <memchr>:
 8006f90:	4603      	mov	r3, r0
 8006f92:	b510      	push	{r4, lr}
 8006f94:	b2c9      	uxtb	r1, r1
 8006f96:	4402      	add	r2, r0
 8006f98:	4293      	cmp	r3, r2
 8006f9a:	4618      	mov	r0, r3
 8006f9c:	d101      	bne.n	8006fa2 <memchr+0x12>
 8006f9e:	2000      	movs	r0, #0
 8006fa0:	e003      	b.n	8006faa <memchr+0x1a>
 8006fa2:	7804      	ldrb	r4, [r0, #0]
 8006fa4:	3301      	adds	r3, #1
 8006fa6:	428c      	cmp	r4, r1
 8006fa8:	d1f6      	bne.n	8006f98 <memchr+0x8>
 8006faa:	bd10      	pop	{r4, pc}

08006fac <_realloc_r>:
 8006fac:	e92d 41f0 	stmdb	sp!, {r4, r5, r6, r7, r8, lr}
 8006fb0:	4607      	mov	r7, r0
 8006fb2:	4614      	mov	r4, r2
 8006fb4:	460d      	mov	r5, r1
 8006fb6:	b921      	cbnz	r1, 8006fc2 <_realloc_r+0x16>
 8006fb8:	4611      	mov	r1, r2
 8006fba:	e8bd 41f0 	ldmia.w	sp!, {r4, r5, r6, r7, r8, lr}
 8006fbe:	f7ff b9dd 	b.w	800637c <_malloc_r>
 8006fc2:	b92a      	cbnz	r2, 8006fd0 <_realloc_r+0x24>
 8006fc4:	f7ff f970 	bl	80062a8 <_free_r>
 8006fc8:	4625      	mov	r5, r4
 8006fca:	4628      	mov	r0, r5
 8006fcc:	e8bd 81f0 	ldmia.w	sp!, {r4, r5, r6, r7, r8, pc}
 8006fd0:	f000 f81a 	bl	8007008 <_malloc_usable_size_r>
 8006fd4:	4284      	cmp	r4, r0
 8006fd6:	4606      	mov	r6, r0
 8006fd8:	d802      	bhi.n	8006fe0 <_realloc_r+0x34>
 8006fda:	ebb4 0f50 	cmp.w	r4, r0, lsr #1
 8006fde:	d8f4      	bhi.n	8006fca <_realloc_r+0x1e>
 8006fe0:	4621      	mov	r1, r4
 8006fe2:	4638      	mov	r0, r7
 8006fe4:	f7ff f9ca 	bl	800637c <_malloc_r>
 8006fe8:	4680      	mov	r8, r0
 8006fea:	b908      	cbnz	r0, 8006ff0 <_realloc_r+0x44>
 8006fec:	4645      	mov	r5, r8
 8006fee:	e7ec      	b.n	8006fca <_realloc_r+0x1e>
 8006ff0:	42b4      	cmp	r4, r6
 8006ff2:	4622      	mov	r2, r4
 8006ff4:	4629      	mov	r1, r5
 8006ff6:	bf28      	it	cs
 8006ff8:	4632      	movcs	r2, r6
 8006ffa:	f7ff f946 	bl	800628a <memcpy>
 8006ffe:	4629      	mov	r1, r5
 8007000:	4638      	mov	r0, r7
 8007002:	f7ff f951 	bl	80062a8 <_free_r>
 8007006:	e7f1      	b.n	8006fec <_realloc_r+0x40>

08007008 <_malloc_usable_size_r>:
 8007008:	f851 3c04 	ldr.w	r3, [r1, #-4]
 800700c:	1f18      	subs	r0, r3, #4
 800700e:	2b00      	cmp	r3, #0
 8007010:	bfbc      	itt	lt
 8007012:	580b      	ldrlt	r3, [r1, r0]
 8007014:	18c0      	addlt	r0, r0, r3
 8007016:	4770      	bx	lr

08007018 <_init>:
 8007018:	b5f8      	push	{r3, r4, r5, r6, r7, lr}
 800701a:	bf00      	nop
 800701c:	bcf8      	pop	{r3, r4, r5, r6, r7}
 800701e:	bc08      	pop	{r3}
 8007020:	469e      	mov	lr, r3
 8007022:	4770      	bx	lr

08007024 <_fini>:
 8007024:	b5f8      	push	{r3, r4, r5, r6, r7, lr}
 8007026:	bf00      	nop
 8007028:	bcf8      	pop	{r3, r4, r5, r6, r7}
 800702a:	bc08      	pop	{r3}
 800702c:	469e      	mov	lr, r3
 800702e:	4770      	bx	lr
